(lp1
(lp2
(I0
F916.79474309634145
I3
I0
I0
tp3
a(I1
F1420.7186822093295
I1
I0
I0
tp4
a(I2
F1923.6679135097202
I4
I0
I0
tp5
a(I3
F2930.541083923099
I3
I0
I0
tp6
a(I4
F3433.4903152234901
I3
I0
I0
tp7
a(I5
F3936.4395465238804
I2
I0
I0
tp8
a(I6
F4943.3127169372592
I3
I1
I0
tp9
a(I7
F5446.2619482376494
I1
I1
I0
tp10
a(I8
F5949.2111795380406
I4
I1
I0
tp11
a(I9
F6956.0843499514185
I3
I1
I0
tp12
a(I10
F7459.0335812518097
I3
I1
I0
tp13
a(I11
F7962.9575203647973
I2
I1
I0
tp14
a(I12
F8968.8559829655787
I2
I0
I0
tp15
a(I13
F9472.7799220785673
I3
I0
I0
tp16
a(I14
F9975.7291533789594
I1
I0
I0
tp17
a(I15
F10981.62761597974
I4
I0
I0
tp18
a(I16
F11485.551555092727
I2
I0
I0
tp19
a(I17
F11988.500786393119
I1
I0
I0
tp20
a(I18
F12995.373956806498
I2
I1
I0
tp21
a(I19
F13498.323188106888
I3
I1
I0
tp22
a(I20
F14001.272419407278
I1
I1
I0
tp23
a(I21
F15008.145589820657
I4
I1
I0
tp24
a(I22
F15511.094821121049
I2
I1
I0
tp25
a(I23
F16014.044052421437
I1
I1
I0
tp26
a(I24
F17010.195436896243
I3
I0
I0
tp27
a(I25
F17487.802265069098
I1
I0
I0
tp28
a(I26
F17951.763183865583
I4
I0
I0
tp29
a(I27
F18842.646124579838
I3
I0
I0
tp30
a(I28
F19268.593438685017
I3
I0
I0
tp31
a(I29
F19683.818966851617
I2
I0
I0
tp32
a(I30
F20483.079373181696
I3
I1
I0
tp33
a(I31
F20868.088959157769
I1
I1
I0
tp34
a(I32
F21243.351467007866
I4
I1
I0
tp35
a(I33
F21967.559371767922
I3
I1
I0
tp36
a(I34
F22318.454184303082
I3
I1
I0
tp37
a(I35
F22661.551334337455
I2
I1
I0
tp38
a(I36
F23327.276770341658
I2
I0
I0
tp39
a(I37
F23650.879764124078
I3
I0
I0
tp40
a(I38
F23968.634511030916
I1
I0
I0
tp41
a(I39
F24584.649848592631
I4
I0
I0
tp42
a(I40
F24883.885147060111
I2
I0
I0
tp43
a(I41
F25177.272198652008
I1
I0
I0
tp44
a(I42
F25749.425684646831
I2
I1
I0
tp45
a(I43
F26027.217411237165
I3
I1
I0
tp46
a(I44
F26302.085014389701
I1
I1
I0
tp47
a(I45
F26835.250187880622
I4
I1
I0
tp48
a(I46
F27095.497173844193
I2
I1
I0
tp49
a(I47
F27351.845328557378
I1
I1
I0
tp50
a(I48
F28171.574598952007
I3
I1
I0
tp51
a(I49
F29177.473061552788
I4
I1
I0
tp52
a(I50
F30184.34623196617
I2
I1
I0
tp53
a(I51
F31191.219402379545
I1
I1
I0
tp54
a(I52
F32197.117864980326
I1
I0
I0
tp55
a(I53
F33203.991035393708
I2
I0
I0
tp56
a(I54
F34209.889497994489
I4
I0
I0
tp57
a(I55
F35216.762668407864
I3
I0
I0
tp58
a(I56
F36234.357624759818
I3
I1
I0
tp59
a(I57
F37318.232712368408
I4
I1
I0
tp60
a(I58
F38487.882087485603
I2
I1
I0
tp61
a(I59
F39755.976951675148
I1
I1
I0
tp62
a(I60
F41131.289675250438
I1
I0
I0
tp63
a(I61
F41864.269950323884
I1
I1
I0
tp64
a(I62
F42626.49145977525
I2
I0
I0
tp65
a(I63
F43430.625405168314
I2
I1
I0
tp66
a(I64
F44280.570617753474
I4
I0
I0
tp67
a(I65
F45178.276513155914
I1
I1
I0
tp68
a(I66
F46121.793675750443
I3
I0
I0
tp69
a(I67
F46121.793675750443
I3
I0
I0
tp70
a(I68
F47244.657075862939
I3
I0
I0
tp71
a(I69
F47748.581014975935
I1
I0
I0
tp72
a(I70
F48251.530246276321
I4
I0
I0
tp73
a(I71
F49258.403416689696
I3
I0
I0
tp74
a(I72
F49761.35264799009
I3
I0
I0
tp75
a(I73
F50264.301879290484
I2
I0
I0
tp76
a(I74
F51271.175049703867
I3
I1
I0
tp77
a(I75
F51774.124281004246
I1
I1
I0
tp78
a(I76
F52277.07351230464
I4
I1
I0
tp79
a(I77
F53283.946682718022
I3
I1
I0
tp80
a(I78
F53786.895914018416
I3
I1
I0
tp81
a(I79
F54290.819853131397
I2
I1
I0
tp82
a(I80
F55296.718315732178
I2
I0
I0
tp83
a(I81
F55800.642254845174
I3
I0
I0
tp84
a(I82
F56303.59148614556
I1
I0
I0
tp85
a(I83
F57309.489948746341
I4
I0
I0
tp86
a(I84
F57813.413887859329
I2
I0
I0
tp87
a(I85
F58316.363119159723
I1
I0
I0
tp88
a(I86
F59323.236289573098
I2
I1
I0
tp89
a(I87
F59826.185520873485
I3
I1
I0
tp90
a(I88
F60329.134752173879
I1
I1
I0
tp91
a(I89
F61336.007922587261
I4
I1
I0
tp92
a(I90
F61838.957153887655
I2
I1
I0
tp93
a(I91
F62341.906385188042
I1
I1
I0
tp94
a(I92
F63348.779555601417
I3
I0
I0
tp95
a(I93
F63851.728786901811
I1
I0
I0
tp96
a(I94
F64355.652726014792
I4
I0
I0
tp97
a(I95
F65361.55118861558
I3
I0
I0
tp98
a(I96
F65865.475127728569
I3
I0
I0
tp99
a(I97
F66368.424359028955
I2
I0
I0
tp100
a(I98
F67374.322821629743
I3
I1
I0
tp101
a(I99
F67878.246760742739
I1
I1
I0
tp102
a(I100
F68381.195992043125
I4
I1
I0
tp103
a(I101
F69388.069162456493
I3
I1
I0
tp104
a(I102
F69891.018393756895
I3
I1
I0
tp105
a(I103
F70393.967625057281
I2
I1
I0
tp106
a(I104
F71409.613165784031
I2
I0
I0
tp107
a(I105
F71935.955384586778
I3
I0
I0
tp108
a(I106
F72477.892928391069
I1
I0
I0
tp109
a(I107
F73608.553991004344
I4
I0
I0
tp110
a(I108
F74200.201633251127
I2
I0
I0
tp111
a(I109
F74810.368723937252
I1
I0
I0
tp112
a(I110
F76097.957744378771
I2
I1
I0
tp113
a(I111
F76774.404966321526
I3
I1
I0
tp114
a(I112
F77477.169299204441
I1
I1
I0
tp115
a(I113
F78965.548129041068
I4
I1
I0
tp116
a(I114
F79357.380669705322
I4
I0
I0
tp117
a(I115
F79756.036165057754
I2
I1
I0
tp118
a(I116
F80163.464030723597
I2
I0
I0
tp119
a(I117
F80582.588390140576
I1
I1
I0
tp120
a(I118
F81535.852630861089
I1
I1
I0
tp121
a(I119
F82367.278395006884
I3
I1
I0
tp122
a(I120
F82367.278395006884
I4
I1
I0
tp123
a(I121
F83198.704159152694
I1
I1
I0
tp124
a(I122
F84031.104631111084
I1
I1
I0
tp125
a(I123
F84031.104631111084
I2
I1
I0
tp126
a(I124
F84862.530395256894
I1
I1
I0
tp127
a(I125
F85693.956159402689
I3
I0
I0
tp128
a(I126
F85693.956159402689
I4
I0
I0
tp129
a(I127
F86526.356631361094
I3
I1
I0
tp130
a(I128
F87357.782395506889
I1
I0
I0
tp131
a(I129
F87357.782395506889
I2
I0
I0
tp132
a(I130
F88189.208159652699
I1
I0
I0
tp133
a(I131
F89021.608631611089
I1
I1
I0
tp134
a(I132
F89021.608631611089
I3
I1
I0
tp135
a(I133
F89853.034395756898
I1
I0
I0
tp136
a(I134
F90684.460159902694
I2
I1
I0
tp137
a(I135
F90684.460159902694
I3
I1
I0
tp138
a(I136
F91516.860631861084
I1
I0
I0
tp139
a(I137
F92348.286396006879
I2
I1
I0
tp140
a(I138
F92348.286396006879
I4
I1
I0
tp141
a(I139
F93179.712160152689
I3
I0
I0
tp142
a(I140
F94012.112632111079
I1
I1
I0
tp143
a(I141
F94012.112632111079
I4
I1
I0
tp144
a(I142
F94843.538396256889
I2
I1
I0
tp145
a(I143
F95674.964160402684
I1
I1
I0
tp146
a(I144
F95674.964160402684
I2
I1
I0
tp147
a(I145
F96507.364632361088
I2
I1
I0
tp148
a(I146
F97338.790396506884
I3
I1
I0
tp149
a(I147
F97338.790396506884
I4
I1
I0
tp150
a(I148
F98170.216160652693
I2
I1
I0
tp151
a(I149
F99002.616632611083
I1
I1
I0
tp152
a(I150
F99002.616632611083
I2
I1
I0
tp153
a(I151
F99834.042396756893
I4
I1
I0
tp154
a(I152
F100665.46816090269
I3
I0
I0
tp155
a(I153
F100665.46816090269
I4
I0
I0
tp156
a(I154
F101497.86863286109
I2
I0
I0
tp157
a(I155
F102329.29439700689
I1
I1
I0
tp158
a(I156
F102329.29439700689
I4
I1
I0
tp159
a(I157
F103160.7201611527
I2
I0
I0
tp160
a(I158
F103993.12063311109
I2
I1
I0
tp161
a(I159
F103993.12063311109
I4
I1
I0
tp162
a(I160
F104824.5463972569
I2
I0
I0
tp163
a(I161
F105655.97216140269
I1
I1
I0
tp164
a(I162
F105655.97216140269
I3
I1
I0
tp165
a(I163
F106488.37263336108
I4
I0
I0
tp166
a(I164
F107319.79839750688
I2
I1
I0
tp167
a(I165
F107319.79839750688
I3
I1
I0
tp168
a(I166
F108151.22416165269
I1
I1
I0
tp169
a(I167
F108983.62463361108
I3
I1
I0
tp170
a(I168
F108983.62463361108
I4
I1
I0
tp171
a(I169
F109815.05039775689
I1
I1
I0
tp172
a(I170
F110646.47616190268
I1
I1
I0
tp173
a(I171
F110646.47616190268
I2
I1
I0
tp174
a(I172
F111478.87663386109
I1
I1
I0
tp175
a(I173
F112310.30239800688
I3
I0
I0
tp176
a(I174
F112310.30239800688
I4
I0
I0
tp177
a(I175
F113141.72816215269
I3
I1
I0
tp178
a(I176
F113974.12863411108
I1
I0
I0
tp179
a(I177
F113974.12863411108
I2
I0
I0
tp180
a(I178
F114805.55439825689
I1
I0
I0
tp181
a(I179
F115636.98016240269
I1
I1
I0
tp182
a(I180
F115636.98016240269
I3
I1
I0
tp183
a(I181
F116469.38063436109
I1
I0
I0
tp184
a(I182
F117300.80639850689
I2
I1
I0
tp185
a(I183
F117300.80639850689
I3
I1
I0
tp186
a(I184
F118132.2321626527
I1
I0
I0
tp187
a(I185
F118964.63263461109
I2
I1
I0
tp188
a(I186
F118964.63263461109
I4
I1
I0
tp189
a(I187
F119796.0583987569
I3
I0
I0
tp190
a(I188
F120627.48416290269
I1
I1
I0
tp191
a(I189
F120627.48416290269
I4
I1
I0
tp192
a(I190
F121457.93521923589
I2
I1
I0
tp193
a(I191
F122264.01858025415
I1
I1
I0
tp194
a(I192
F122264.01858025415
I2
I1
I0
tp195
a(I193
F123037.93658345669
I2
I1
I0
tp196
a(I194
F123783.5880600939
I3
I1
I0
tp197
a(I195
F123783.5880600939
I4
I1
I0
tp198
a(I196
F124502.92242579097
I2
I1
I0
tp199
a(I197
F125196.9143883605
I1
I1
I0
tp200
a(I198
F125196.9143883605
I2
I1
I0
tp201
a(I199
F125868.48807124028
I4
I1
I0
tp202
a(I200
F126518.61818224292
I3
I0
I0
tp203
a(I201
F126518.61818224292
I4
I0
I0
tp204
a(I202
F127148.27942918101
I2
I0
I0
tp205
a(I203
F127758.44651986715
I1
I1
I0
tp206
a(I204
F127758.44651986715
I4
I1
I0
tp207
a(I205
F128351.06886992652
I2
I0
I0
tp208
a(I206
F128926.14647935914
I2
I1
I0
tp209
a(I207
F128926.14647935914
I4
I1
I0
tp210
a(I208
F129486.60347160279
I2
I0
I0
tp211
a(I209
F130031.46513884488
I1
I1
I0
tp212
a(I210
F130031.46513884488
I3
I1
I0
tp213
a(I211
F130561.70618889801
I4
I0
I0
tp214
a(I212
F131079.27603738735
I2
I1
I0
tp215
a(I213
F131079.27603738735
I3
I1
I0
tp216
aa(lp217
(I0
F413.84551179595076
I1
I0
I0
tp218
a(I1
F916.79474309634145
I3
I0
I0
tp219
a(I2
F1420.7186822093295
I1
I0
I0
tp220
a(I3
F1923.6679135097202
I4
I0
I0
tp221
a(I4
F2426.6171448101109
I1
I0
I0
tp222
a(I5
F2930.541083923099
I3
I0
I0
tp223
a(I6
F3433.4903152234901
I3
I0
I0
tp224
a(I7
F3936.4395465238804
I2
I0
I0
tp225
a(I8
F4440.363485636869
I1
I1
I0
tp226
a(I9
F4943.3127169372592
I3
I1
I0
tp227
a(I10
F5446.2619482376494
I1
I1
I0
tp228
a(I11
F5949.2111795380406
I4
I1
I0
tp229
a(I12
F6453.1351186510283
I1
I1
I0
tp230
a(I13
F6956.0843499514185
I3
I1
I0
tp231
a(I14
F7459.0335812518097
I3
I1
I0
tp232
a(I15
F7962.9575203647973
I2
I1
I0
tp233
a(I16
F8465.9067516651885
I3
I0
I0
tp234
a(I17
F8968.8559829655787
I2
I0
I0
tp235
a(I18
F9472.7799220785673
I3
I0
I0
tp236
a(I19
F9975.7291533789594
I1
I0
I0
tp237
a(I20
F10478.678384679348
I3
I0
I0
tp238
a(I21
F10981.62761597974
I4
I0
I0
tp239
a(I22
F11485.551555092727
I2
I0
I0
tp240
a(I23
F11988.500786393119
I1
I0
I0
tp241
a(I24
F12491.450017693509
I3
I1
I0
tp242
a(I25
F12995.373956806498
I2
I1
I0
tp243
a(I26
F13498.323188106888
I3
I1
I0
tp244
a(I27
F14001.272419407278
I1
I1
I0
tp245
a(I28
F14505.196358520267
I3
I1
I0
tp246
a(I29
F15008.145589820657
I4
I1
I0
tp247
a(I30
F15511.094821121049
I2
I1
I0
tp248
a(I31
F16014.044052421437
I1
I1
I0
tp249
a(I32
F16517.967991534428
I1
I0
I0
tp250
a(I33
F17010.195436896243
I3
I0
I0
tp251
a(I34
F17487.802265069098
I1
I0
I0
tp252
a(I35
F17951.763183865583
I4
I0
I0
tp253
a(I36
F18404.027608910892
I1
I0
I0
tp254
a(I37
F18842.646124579838
I3
I0
I0
tp255
a(I38
F19268.593438685017
I3
I0
I0
tp256
a(I39
F19683.818966851617
I2
I0
I0
tp257
a(I40
F20087.348001267048
I1
I1
I0
tp258
a(I41
F20483.079373181696
I3
I1
I0
tp259
a(I42
F20868.088959157769
I1
I1
I0
tp260
a(I43
F21243.351467007866
I4
I1
I0
tp261
a(I44
F21609.841604544585
I1
I1
I0
tp262
a(I45
F21967.559371767922
I3
I1
I0
tp263
a(I46
F22318.454184303082
I3
I1
I0
tp264
a(I47
F22661.551334337455
I2
I1
I0
tp265
a(I48
F22997.825529683647
I3
I0
I0
tp266
a(I49
F23327.276770341658
I2
I0
I0
tp267
a(I50
F23650.879764124078
I3
I0
I0
tp268
a(I51
F23968.634511030916
I1
I0
I0
tp269
a(I52
F24279.566303249565
I3
I0
I0
tp270
a(I53
F24584.649848592631
I4
I0
I0
tp271
a(I54
F24883.885147060111
I2
I0
I0
tp272
a(I55
F25177.272198652008
I1
I0
I0
tp273
a(I56
F25466.760418993508
I3
I1
I0
tp274
a(I57
F25749.425684646831
I2
I1
I0
tp275
a(I58
F26027.217411237165
I3
I1
I0
tp276
a(I59
F26302.085014389701
I1
I1
I0
tp277
a(I60
F26571.104370666653
I3
I1
I0
tp278
a(I61
F26835.250187880622
I4
I1
I0
tp279
a(I62
F27095.497173844193
I2
I1
I0
tp280
a(I63
F27351.845328557378
I1
I1
I0
tp281
a(I64
F28171.574598952007
I3
I1
I0
tp282
a(I65
F29177.473061552788
I4
I1
I0
tp283
a(I66
F30184.34623196617
I2
I1
I0
tp284
a(I67
F30687.295463266557
I3
I1
I0
tp285
a(I68
F31191.219402379545
I1
I1
I0
tp286
a(I69
F32197.117864980326
I1
I0
I0
tp287
a(I70
F33203.991035393708
I2
I0
I0
tp288
a(I71
F34209.889497994489
I4
I0
I0
tp289
a(I72
F34713.81343710747
I1
I1
I0
tp290
a(I73
F35216.762668407864
I3
I0
I0
tp291
a(I74
F36234.357624759818
I3
I1
I0
tp292
a(I75
F37318.232712368408
I4
I1
I0
tp293
a(I76
F38487.882087485603
I2
I1
I0
tp294
a(I77
F39108.770964110307
I3
I1
I0
tp295
a(I78
F39755.976951675148
I1
I1
I0
tp296
a(I79
F41131.289675250438
I1
I0
I0
tp297
a(I80
F41864.269950323884
I1
I1
I0
tp298
a(I81
F42626.49145977525
I2
I0
I0
tp299
a(I82
F43430.625405168314
I2
I1
I0
tp300
a(I83
F44280.570617753474
I4
I0
I0
tp301
a(I84
F44724.062672485408
I4
I1
I0
tp302
a(I85
F45178.276513155914
I1
I0
I0
tp303
a(I86
F45642.237431952402
I1
I1
I0
tp304
a(I87
F46741.707844562552
I1
I0
I0
tp305
a(I88
F47244.657075862939
I3
I0
I0
tp306
a(I89
F47748.581014975935
I1
I0
I0
tp307
a(I90
F48251.530246276321
I4
I0
I0
tp308
a(I91
F48754.479477576715
I1
I0
I0
tp309
a(I92
F49258.403416689696
I3
I0
I0
tp310
a(I93
F49761.35264799009
I3
I0
I0
tp311
a(I94
F50264.301879290484
I2
I0
I0
tp312
a(I95
F50767.251110590871
I1
I1
I0
tp313
a(I96
F51271.175049703867
I3
I1
I0
tp314
a(I97
F51774.124281004246
I1
I1
I0
tp315
a(I98
F52277.07351230464
I4
I1
I0
tp316
a(I99
F52780.997451417628
I1
I1
I0
tp317
a(I100
F53283.946682718022
I3
I1
I0
tp318
a(I101
F53786.895914018416
I3
I1
I0
tp319
a(I102
F54290.819853131397
I2
I1
I0
tp320
a(I103
F54793.769084431791
I3
I0
I0
tp321
a(I104
F55296.718315732178
I2
I0
I0
tp322
a(I105
F55800.642254845174
I3
I0
I0
tp323
a(I106
F56303.59148614556
I1
I0
I0
tp324
a(I107
F56806.540717445954
I3
I0
I0
tp325
a(I108
F57309.489948746341
I4
I0
I0
tp326
a(I109
F57813.413887859329
I2
I0
I0
tp327
a(I110
F58316.363119159723
I1
I0
I0
tp328
a(I111
F58819.31235046011
I3
I1
I0
tp329
a(I112
F59323.236289573098
I2
I1
I0
tp330
a(I113
F59826.185520873485
I3
I1
I0
tp331
a(I114
F60329.134752173879
I1
I1
I0
tp332
a(I115
F60833.058691286868
I3
I1
I0
tp333
a(I116
F61336.007922587261
I4
I1
I0
tp334
a(I117
F61838.957153887655
I2
I1
I0
tp335
a(I118
F62341.906385188042
I1
I1
I0
tp336
a(I119
F62845.83032430103
I1
I0
I0
tp337
a(I120
F63348.779555601417
I3
I0
I0
tp338
a(I121
F63851.728786901811
I1
I0
I0
tp339
a(I122
F64355.652726014792
I4
I0
I0
tp340
a(I123
F64858.601957315186
I1
I0
I0
tp341
a(I124
F65361.55118861558
I3
I0
I0
tp342
a(I125
F65865.475127728569
I3
I0
I0
tp343
a(I126
F66368.424359028955
I2
I0
I0
tp344
a(I127
F66871.373590329342
I1
I1
I0
tp345
a(I128
F67374.322821629743
I3
I1
I0
tp346
a(I129
F67878.246760742739
I1
I1
I0
tp347
a(I130
F68381.195992043125
I4
I1
I0
tp348
a(I131
F68884.145223343497
I1
I1
I0
tp349
a(I132
F69388.069162456493
I3
I1
I0
tp350
a(I133
F69891.018393756895
I3
I1
I0
tp351
a(I134
F70393.967625057281
I2
I1
I0
tp352
a(I135
F70897.891564170262
I3
I0
I0
tp353
a(I136
F71409.613165784031
I2
I0
I0
tp354
a(I137
F71935.955384586778
I3
I0
I0
tp355
a(I138
F72477.892928391069
I1
I0
I0
tp356
a(I139
F73035.42579719692
I3
I0
I0
tp357
a(I140
F73608.553991004344
I4
I0
I0
tp358
a(I141
F74200.201633251127
I2
I0
I0
tp359
a(I142
F74810.368723937252
I1
I0
I0
tp360
a(I143
F75442.954094313129
I3
I1
I0
tp361
a(I144
F76097.957744378771
I2
I1
I0
tp362
a(I145
F76774.404966321526
I3
I1
I0
tp363
a(I146
F77477.169299204441
I1
I1
I0
tp364
a(I147
F77839.760605490781
I1
I0
I0
tp365
a(I148
F78207.225450840095
I3
I1
I0
tp366
a(I149
F78584.437374315385
I3
I0
I0
tp367
a(I150
F78965.548129041068
I4
I1
I0
tp368
a(I151
F79357.380669705322
I4
I0
I0
tp369
a(I152
F79756.036165057754
I2
I1
I0
tp370
a(I153
F80163.464030723597
I2
I0
I0
tp371
a(I154
F80582.588390140576
I1
I1
I0
tp372
a(I155
F81535.852630861089
I1
I1
I0
tp373
a(I156
F81951.078159027689
I2
I1
I0
tp374
a(I157
F82367.278395006884
I3
I1
I0
tp375
a(I158
F82367.278395006884
I4
I1
I0
tp376
a(I159
F83198.704159152694
I1
I1
I0
tp377
a(I160
F83614.904395131889
I3
I1
I0
tp378
a(I161
F84031.104631111084
I1
I1
I0
tp379
a(I162
F84031.104631111084
I2
I1
I0
tp380
a(I163
F84862.530395256894
I1
I1
I0
tp381
a(I164
F85278.730631236089
I2
I1
I0
tp382
a(I165
F85693.956159402689
I3
I0
I0
tp383
a(I166
F85693.956159402689
I4
I0
I0
tp384
a(I167
F86526.356631361094
I3
I1
I0
tp385
a(I168
F86941.582159527694
I4
I1
I0
tp386
a(I169
F87357.782395506889
I1
I0
I0
tp387
a(I170
F87357.782395506889
I2
I0
I0
tp388
a(I171
F88189.208159652699
I1
I0
I0
tp389
a(I172
F88605.408395631894
I2
I0
I0
tp390
a(I173
F89021.608631611089
I1
I1
I0
tp391
a(I174
F89021.608631611089
I3
I1
I0
tp392
a(I175
F89853.034395756898
I1
I0
I0
tp393
a(I176
F90269.234631736093
I3
I0
I0
tp394
a(I177
F90684.460159902694
I2
I1
I0
tp395
a(I178
F90684.460159902694
I3
I1
I0
tp396
a(I179
F91516.860631861084
I1
I0
I0
tp397
a(I180
F91932.086160027698
I2
I0
I0
tp398
a(I181
F92348.286396006879
I2
I1
I0
tp399
a(I182
F92348.286396006879
I4
I1
I0
tp400
a(I183
F93179.712160152689
I3
I0
I0
tp401
a(I184
F93595.912396131884
I4
I0
I0
tp402
a(I185
F94012.112632111079
I1
I1
I0
tp403
a(I186
F94012.112632111079
I4
I1
I0
tp404
a(I187
F94843.538396256889
I2
I1
I0
tp405
a(I188
F95259.738632236084
I3
I1
I0
tp406
a(I189
F95674.964160402684
I1
I1
I0
tp407
a(I190
F95674.964160402684
I2
I1
I0
tp408
a(I191
F96507.364632361088
I2
I1
I0
tp409
a(I192
F96922.590160527689
I4
I1
I0
tp410
a(I193
F97338.790396506884
I3
I1
I0
tp411
a(I194
F97338.790396506884
I4
I1
I0
tp412
a(I195
F98170.216160652693
I2
I1
I0
tp413
a(I196
F98586.416396631888
I3
I1
I0
tp414
a(I197
F99002.616632611083
I1
I1
I0
tp415
a(I198
F99002.616632611083
I2
I1
I0
tp416
a(I199
F99834.042396756893
I4
I1
I0
tp417
a(I200
F100250.24263273609
I1
I1
I0
tp418
a(I201
F100665.46816090269
I3
I0
I0
tp419
a(I202
F100665.46816090269
I4
I0
I0
tp420
a(I203
F101497.86863286109
I2
I0
I0
tp421
a(I204
F101913.09416102769
I3
I0
I0
tp422
a(I205
F102329.29439700689
I1
I1
I0
tp423
a(I206
F102329.29439700689
I4
I1
I0
tp424
a(I207
F103160.7201611527
I2
I0
I0
tp425
a(I208
F103576.92039713189
I4
I0
I0
tp426
a(I209
F103993.12063311109
I2
I1
I0
tp427
a(I210
F103993.12063311109
I4
I1
I0
tp428
a(I211
F104824.5463972569
I2
I0
I0
tp429
a(I212
F105240.74663323609
I3
I0
I0
tp430
a(I213
F105655.97216140269
I1
I1
I0
tp431
a(I214
F105655.97216140269
I3
I1
I0
tp432
a(I215
F106488.37263336108
I4
I0
I0
tp433
a(I216
F106903.5981615277
I1
I0
I0
tp434
a(I217
F107319.79839750688
I2
I1
I0
tp435
a(I218
F107319.79839750688
I3
I1
I0
tp436
a(I219
F108151.22416165269
I1
I1
I0
tp437
a(I220
F108567.42439763188
I2
I1
I0
tp438
a(I221
F108983.62463361108
I3
I1
I0
tp439
a(I222
F108983.62463361108
I4
I1
I0
tp440
a(I223
F109815.05039775689
I1
I1
I0
tp441
a(I224
F110231.25063373608
I3
I1
I0
tp442
a(I225
F110646.47616190268
I1
I1
I0
tp443
a(I226
F110646.47616190268
I2
I1
I0
tp444
a(I227
F111478.87663386109
I1
I1
I0
tp445
a(I228
F111894.10216202769
I2
I1
I0
tp446
a(I229
F112310.30239800688
I3
I0
I0
tp447
a(I230
F112310.30239800688
I4
I0
I0
tp448
a(I231
F113141.72816215269
I3
I1
I0
tp449
a(I232
F113557.92839813189
I4
I1
I0
tp450
a(I233
F113974.12863411108
I1
I0
I0
tp451
a(I234
F113974.12863411108
I2
I0
I0
tp452
a(I235
F114805.55439825689
I1
I0
I0
tp453
a(I236
F115221.75463423609
I2
I0
I0
tp454
a(I237
F115636.98016240269
I1
I1
I0
tp455
a(I238
F115636.98016240269
I3
I1
I0
tp456
a(I239
F116469.38063436109
I1
I0
I0
tp457
a(I240
F116884.60616252769
I3
I0
I0
tp458
a(I241
F117300.80639850689
I2
I1
I0
tp459
a(I242
F117300.80639850689
I3
I1
I0
tp460
a(I243
F118132.2321626527
I1
I0
I0
tp461
a(I244
F118548.43239863189
I2
I0
I0
tp462
a(I245
F118964.63263461109
I2
I1
I0
tp463
a(I246
F118964.63263461109
I4
I1
I0
tp464
a(I247
F119796.0583987569
I3
I0
I0
tp465
a(I248
F120212.25863473609
I4
I0
I0
tp466
a(I249
F120627.48416290269
I1
I1
I0
tp467
a(I250
F120627.48416290269
I4
I1
I0
tp468
a(I251
F121457.93521923589
I2
I1
I0
tp469
a(I252
F121865.36308490171
I3
I1
I0
tp470
a(I253
F122264.01858025415
I1
I1
I0
tp471
a(I254
F122264.01858025415
I2
I1
I0
tp472
a(I255
F123037.93658345669
I2
I1
I0
tp473
a(I256
F123413.19909130679
I4
I1
I0
tp474
a(I257
F123783.5880600939
I3
I1
I0
tp475
a(I258
F123783.5880600939
I4
I1
I0
tp476
a(I259
F124502.92242579097
I2
I1
I0
tp477
a(I260
F124852.84253051353
I3
I1
I0
tp478
a(I261
F125196.9143883605
I1
I1
I0
tp479
a(I262
F125196.9143883605
I2
I1
I0
tp480
a(I263
F125868.48807124028
I4
I1
I0
tp481
a(I264
F126195.98989627311
I1
I1
I0
tp482
a(I265
F126518.61818224292
I3
I0
I0
tp483
a(I266
F126518.61818224292
I4
I0
I0
tp484
a(I267
F127148.27942918101
I2
I0
I0
tp485
a(I268
F127455.31239014927
I3
I0
I0
tp486
a(I269
F127758.44651986715
I1
I1
I0
tp487
a(I270
F127758.44651986715
I4
I1
I0
tp488
a(I271
F128351.06886992652
I2
I0
I0
tp489
a(I272
F128640.55709026803
I4
I0
I0
tp490
a(I273
F128926.14647935914
I2
I1
I0
tp491
a(I274
F128926.14647935914
I4
I1
I0
tp492
a(I275
F129486.60347160279
I2
I0
I0
tp493
a(I276
F129760.49636694272
I3
I0
I0
tp494
a(I277
F130031.46513884488
I1
I1
I0
tp495
a(I278
F130031.46513884488
I3
I1
I0
tp496
a(I279
F130561.70618889801
I4
I0
I0
tp497
a(I280
F130821.95317486157
I1
I0
I0
tp498
a(I281
F131079.27603738735
I2
I1
I0
tp499
a(I282
F131079.27603738735
I3
I1
I0
tp500
a(I283
F131521.79338430669
I1
I0
I0
tp501
aa(lp502
(I0
F413.84551179595076
I1
I0
I0
tp503
a(I1
F916.79474309634145
I3
I0
I0
tp504
a(I2
F1420.7186822093295
I1
I0
I0
tp505
a(I3
F1923.6679135097202
I4
I0
I0
tp506
a(I4
F2175.1425291599157
I2
I1
I0
tp507
a(I5
F2426.6171448101109
I1
I0
I0
tp508
a(I6
F2930.541083923099
I3
I0
I0
tp509
a(I7
F3433.4903152234901
I3
I0
I0
tp510
a(I8
F3936.4395465238804
I2
I0
I0
tp511
a(I9
F4440.363485636869
I1
I1
I0
tp512
a(I10
F4943.3127169372592
I3
I1
I0
tp513
a(I11
F5446.2619482376494
I1
I1
I0
tp514
a(I12
F5949.2111795380406
I4
I1
I0
tp515
a(I13
F6201.6605030008341
I2
I0
I0
tp516
a(I14
F6453.1351186510283
I1
I1
I0
tp517
a(I15
F6956.0843499514185
I3
I1
I0
tp518
a(I16
F7459.0335812518097
I3
I1
I0
tp519
a(I17
F7962.9575203647973
I2
I1
I0
tp520
a(I18
F8465.9067516651885
I3
I0
I0
tp521
a(I19
F8968.8559829655787
I2
I0
I0
tp522
a(I20
F9472.7799220785673
I3
I0
I0
tp523
a(I21
F9975.7291533789594
I1
I0
I0
tp524
a(I22
F10227.203769029155
I2
I1
I0
tp525
a(I23
F10478.678384679348
I3
I0
I0
tp526
a(I24
F10981.62761597974
I4
I0
I0
tp527
a(I25
F11485.551555092727
I2
I0
I0
tp528
a(I26
F11988.500786393119
I1
I0
I0
tp529
a(I27
F12491.450017693509
I3
I1
I0
tp530
a(I28
F12995.373956806498
I2
I1
I0
tp531
a(I29
F13498.323188106888
I3
I1
I0
tp532
a(I30
F14001.272419407278
I1
I1
I0
tp533
a(I31
F14252.747035057473
I2
I0
I0
tp534
a(I32
F14505.196358520267
I3
I1
I0
tp535
a(I33
F15008.145589820657
I4
I1
I0
tp536
a(I34
F15511.094821121049
I2
I1
I0
tp537
a(I35
F16014.044052421437
I1
I1
I0
tp538
a(I36
F16517.967991534428
I1
I0
I0
tp539
a(I37
F17010.195436896243
I3
I0
I0
tp540
a(I38
F17487.802265069098
I1
I0
I0
tp541
a(I39
F17951.763183865583
I4
I0
I0
tp542
a(I40
F18179.844812013431
I2
I1
I0
tp543
a(I41
F18404.027608910892
I1
I0
I0
tp544
a(I42
F18842.646124579838
I3
I0
I0
tp545
a(I43
F19268.593438685017
I3
I0
I0
tp546
a(I44
F19683.818966851617
I2
I0
I0
tp547
a(I45
F20087.348001267048
I1
I1
I0
tp548
a(I46
F20483.079373181696
I3
I1
I0
tp549
a(I47
F20868.088959157769
I1
I1
I0
tp550
a(I48
F21243.351467007866
I4
I1
I0
tp551
a(I49
F21427.571243588824
I2
I0
I0
tp552
a(I50
F21609.841604544585
I1
I1
I0
tp553
a(I51
F21967.559371767922
I3
I1
I0
tp554
a(I52
F22318.454184303082
I3
I1
I0
tp555
a(I53
F22661.551334337455
I2
I1
I0
tp556
a(I54
F22997.825529683647
I3
I0
I0
tp557
a(I55
F23327.276770341658
I2
I0
I0
tp558
a(I56
F23650.879764124078
I3
I0
I0
tp559
a(I57
F23968.634511030916
I1
I0
I0
tp560
a(I58
F24124.58776104654
I2
I1
I0
tp561
a(I59
F24279.566303249565
I3
I0
I0
tp562
a(I60
F24584.649848592631
I4
I0
I0
tp563
a(I61
F24883.885147060111
I2
I0
I0
tp564
a(I62
F25177.272198652008
I1
I0
I0
tp565
a(I63
F25466.760418993508
I3
I1
I0
tp566
a(I64
F25749.425684646831
I2
I1
I0
tp567
a(I65
F26027.217411237165
I3
I1
I0
tp568
a(I66
F26302.085014389701
I1
I1
I0
tp569
a(I67
F26436.594692528179
I2
I0
I0
tp570
a(I68
F26571.104370666653
I3
I1
I0
tp571
a(I69
F26835.250187880622
I4
I1
I0
tp572
a(I70
F27095.497173844193
I2
I1
I0
tp573
a(I71
F27351.845328557378
I1
I1
I0
tp574
a(I72
F28171.574598952007
I3
I1
I0
tp575
a(I73
F28674.523830252398
I1
I1
I0
tp576
a(I74
F29177.473061552788
I4
I1
I0
tp577
a(I75
F30184.34623196617
I2
I1
I0
tp578
a(I76
F30435.82084761636
I4
I1
I0
tp579
a(I77
F30687.295463266557
I3
I1
I0
tp580
a(I78
F31191.219402379545
I1
I1
I0
tp581
a(I79
F32197.117864980326
I1
I0
I0
tp582
a(I80
F32700.067096280716
I3
I1
I0
tp583
a(I81
F33203.991035393708
I2
I0
I0
tp584
a(I82
F34209.889497994489
I4
I0
I0
tp585
a(I83
F34462.338821457277
I1
I1
I0
tp586
a(I84
F34713.81343710747
I2
I1
I0
tp587
a(I85
F35216.762668407864
I3
I0
I0
tp588
a(I86
F36234.357624759818
I3
I1
I0
tp589
a(I87
F36766.548090438133
I1
I1
I0
tp590
a(I88
F37318.232712368408
I4
I1
I0
tp591
a(I89
F38487.882087485603
I2
I1
I0
tp592
a(I90
F38794.915048453862
I4
I1
I0
tp593
a(I91
F39108.770964110307
I3
I1
I0
tp594
a(I92
F39755.976951675148
I1
I1
I0
tp595
a(I93
F41131.289675250438
I1
I0
I0
tp596
a(I94
F41493.880981536771
I3
I1
I0
tp597
a(I95
F41864.269950323884
I1
I1
I0
tp598
a(I96
F42626.49145977525
I2
I0
I0
tp599
a(I97
F43430.625405168314
I2
I1
I0
tp600
a(I98
F44280.570617753474
I4
I0
I0
tp601
a(I99
F44724.062672485408
I4
I1
I0
tp602
a(I100
F45178.276513155914
I1
I0
I0
tp603
a(I101
F45642.237431952402
I1
I1
I0
tp604
a(I102
F46121.793675750443
I3
I0
I0
tp605
a(I103
F46741.707844562552
I1
I0
I0
tp606
a(I104
F47244.657075862939
I3
I0
I0
tp607
a(I105
F47748.581014975935
I1
I0
I0
tp608
a(I106
F48251.530246276321
I4
I0
I0
tp609
a(I107
F48503.004861926514
I2
I1
I0
tp610
a(I108
F48754.479477576715
I1
I0
I0
tp611
a(I109
F49258.403416689696
I3
I0
I0
tp612
a(I110
F49761.35264799009
I3
I0
I0
tp613
a(I111
F50264.301879290484
I2
I0
I0
tp614
a(I112
F50767.251110590871
I1
I1
I0
tp615
a(I113
F51271.175049703867
I3
I1
I0
tp616
a(I114
F51774.124281004246
I1
I1
I0
tp617
a(I115
F52277.07351230464
I4
I1
I0
tp618
a(I116
F52529.522835767435
I2
I0
I0
tp619
a(I117
F52780.997451417628
I1
I1
I0
tp620
a(I118
F53283.946682718022
I3
I1
I0
tp621
a(I119
F53786.895914018416
I3
I1
I0
tp622
a(I120
F54290.819853131397
I2
I1
I0
tp623
a(I121
F54793.769084431791
I3
I0
I0
tp624
a(I122
F55296.718315732178
I2
I0
I0
tp625
a(I123
F55800.642254845174
I3
I0
I0
tp626
a(I124
F56303.59148614556
I1
I0
I0
tp627
a(I125
F56555.066101795754
I2
I1
I0
tp628
a(I126
F56806.540717445954
I3
I0
I0
tp629
a(I127
F57309.489948746341
I4
I0
I0
tp630
a(I128
F57813.413887859329
I2
I0
I0
tp631
a(I129
F58316.363119159723
I1
I0
I0
tp632
a(I130
F58819.31235046011
I3
I1
I0
tp633
a(I131
F59323.236289573098
I2
I1
I0
tp634
a(I132
F59826.185520873485
I3
I1
I0
tp635
a(I133
F60329.134752173879
I1
I1
I0
tp636
a(I134
F60580.60936782408
I2
I0
I0
tp637
a(I135
F60833.058691286868
I3
I1
I0
tp638
a(I136
F61336.007922587261
I4
I1
I0
tp639
a(I137
F61838.957153887655
I2
I1
I0
tp640
a(I138
F62341.906385188042
I1
I1
I0
tp641
a(I139
F62845.83032430103
I1
I0
I0
tp642
a(I140
F63348.779555601417
I3
I0
I0
tp643
a(I141
F63851.728786901811
I1
I0
I0
tp644
a(I142
F64355.652726014792
I4
I0
I0
tp645
a(I143
F64607.127341664993
I2
I1
I0
tp646
a(I144
F64858.601957315186
I1
I0
I0
tp647
a(I145
F65361.55118861558
I3
I0
I0
tp648
a(I146
F65865.475127728569
I3
I0
I0
tp649
a(I147
F66368.424359028955
I2
I0
I0
tp650
a(I148
F66871.373590329342
I1
I1
I0
tp651
a(I149
F67374.322821629743
I3
I1
I0
tp652
a(I150
F67878.246760742739
I1
I1
I0
tp653
a(I151
F68381.195992043125
I4
I1
I0
tp654
a(I152
F68632.670607693304
I2
I0
I0
tp655
a(I153
F68884.145223343497
I1
I1
I0
tp656
a(I154
F69388.069162456493
I3
I1
I0
tp657
a(I155
F69891.018393756895
I3
I1
I0
tp658
a(I156
F70393.967625057281
I2
I1
I0
tp659
a(I157
F70897.891564170262
I3
I0
I0
tp660
a(I158
F71409.613165784031
I2
I0
I0
tp661
a(I159
F71935.955384586778
I3
I0
I0
tp662
a(I160
F72477.892928391069
I1
I0
I0
tp663
a(I161
F72753.735239356203
I2
I1
I0
tp664
a(I162
F73035.42579719692
I3
I0
I0
tp665
a(I163
F73608.553991004344
I4
I0
I0
tp666
a(I164
F74200.201633251127
I2
I0
I0
tp667
a(I165
F74810.368723937252
I1
I0
I0
tp668
a(I166
F75442.954094313129
I3
I1
I0
tp669
a(I167
F76097.957744378771
I2
I1
I0
tp670
a(I168
F76774.404966321526
I3
I1
I0
tp671
a(I169
F77477.169299204441
I1
I1
I0
tp672
a(I170
F77839.760605490781
I2
I0
I0
tp673
a(I171
F78207.225450840095
I3
I1
I0
tp674
a(I172
F78584.437374315385
I3
I0
I0
tp675
a(I173
F78965.548129041068
I4
I1
I0
tp676
a(I174
F79357.380669705322
I4
I0
I0
tp677
a(I175
F79756.036165057754
I2
I1
I0
tp678
a(I176
F80163.464030723597
I2
I0
I0
tp679
a(I177
F80582.588390140576
I1
I1
I0
tp680
a(I178
F81535.852630861089
I1
I1
I0
tp681
a(I179
F81951.078159027689
I2
I1
I0
tp682
a(I180
F82367.278395006884
I3
I1
I0
tp683
a(I181
F82367.278395006884
I4
I1
I0
tp684
a(I182
F82783.478630986094
I3
I1
I0
tp685
a(I183
F83198.704159152694
I1
I1
I0
tp686
a(I184
F83614.904395131889
I3
I1
I0
tp687
a(I185
F84031.104631111084
I1
I1
I0
tp688
a(I186
F84031.104631111084
I2
I1
I0
tp689
a(I187
F84862.530395256894
I1
I1
I0
tp690
a(I188
F85278.730631236089
I2
I1
I0
tp691
a(I189
F85693.956159402689
I3
I0
I0
tp692
a(I190
F85693.956159402689
I4
I0
I0
tp693
a(I191
F86110.156395381884
I1
I1
I0
tp694
a(I192
F86526.356631361094
I3
I1
I0
tp695
a(I193
F86941.582159527694
I4
I1
I0
tp696
a(I194
F87357.782395506889
I1
I0
I0
tp697
a(I195
F87357.782395506889
I2
I0
I0
tp698
a(I196
F88189.208159652699
I1
I0
I0
tp699
a(I197
F88605.408395631894
I2
I0
I0
tp700
a(I198
F89021.608631611089
I1
I1
I0
tp701
a(I199
F89021.608631611089
I3
I1
I0
tp702
a(I200
F89436.834159777689
I3
I1
I0
tp703
a(I201
F89853.034395756898
I1
I0
I0
tp704
a(I202
F90269.234631736093
I3
I0
I0
tp705
a(I203
F90684.460159902694
I2
I1
I0
tp706
a(I204
F90684.460159902694
I3
I1
I0
tp707
a(I205
F91516.860631861084
I1
I0
I0
tp708
a(I206
F91932.086160027698
I2
I0
I0
tp709
a(I207
F92348.286396006879
I2
I1
I0
tp710
a(I208
F92348.286396006879
I4
I1
I0
tp711
a(I209
F92764.486631986088
I4
I1
I0
tp712
a(I210
F93179.712160152689
I3
I0
I0
tp713
a(I211
F93595.912396131884
I4
I0
I0
tp714
a(I212
F94012.112632111079
I1
I1
I0
tp715
a(I213
F94012.112632111079
I4
I1
I0
tp716
a(I214
F94843.538396256889
I2
I1
I0
tp717
a(I215
F95259.738632236084
I3
I1
I0
tp718
a(I216
F95674.964160402684
I1
I1
I0
tp719
a(I217
F95674.964160402684
I2
I1
I0
tp720
a(I218
F96091.164396381879
I4
I1
I0
tp721
a(I219
F96507.364632361088
I2
I1
I0
tp722
a(I220
F96922.590160527689
I4
I1
I0
tp723
a(I221
F97338.790396506884
I3
I1
I0
tp724
a(I222
F97338.790396506884
I4
I1
I0
tp725
a(I223
F98170.216160652693
I2
I1
I0
tp726
a(I224
F98586.416396631888
I3
I1
I0
tp727
a(I225
F99002.616632611083
I1
I1
I0
tp728
a(I226
F99002.616632611083
I2
I1
I0
tp729
a(I227
F99417.842160777684
I2
I1
I0
tp730
a(I228
F99834.042396756893
I4
I1
I0
tp731
a(I229
F100250.24263273609
I1
I1
I0
tp732
a(I230
F100665.46816090269
I3
I0
I0
tp733
a(I231
F100665.46816090269
I4
I0
I0
tp734
a(I232
F101497.86863286109
I2
I0
I0
tp735
a(I233
F101913.09416102769
I3
I0
I0
tp736
a(I234
F102329.29439700689
I1
I1
I0
tp737
a(I235
F102329.29439700689
I4
I1
I0
tp738
a(I236
F102745.4946329861
I4
I1
I0
tp739
a(I237
F103160.7201611527
I2
I0
I0
tp740
a(I238
F103576.92039713189
I4
I0
I0
tp741
a(I239
F103993.12063311109
I2
I1
I0
tp742
a(I240
F103993.12063311109
I4
I1
I0
tp743
a(I241
F104824.5463972569
I2
I0
I0
tp744
a(I242
F105240.74663323609
I3
I0
I0
tp745
a(I243
F105655.97216140269
I1
I1
I0
tp746
a(I244
F105655.97216140269
I3
I1
I0
tp747
a(I245
F106072.17239738189
I1
I1
I0
tp748
a(I246
F106488.37263336108
I4
I0
I0
tp749
a(I247
F106903.5981615277
I1
I0
I0
tp750
a(I248
F107319.79839750688
I2
I1
I0
tp751
a(I249
F107319.79839750688
I3
I1
I0
tp752
a(I250
F108151.22416165269
I1
I1
I0
tp753
a(I251
F108567.42439763188
I2
I1
I0
tp754
a(I252
F108983.62463361108
I3
I1
I0
tp755
a(I253
F108983.62463361108
I4
I1
I0
tp756
a(I254
F109398.85016177768
I3
I1
I0
tp757
a(I255
F109815.05039775689
I1
I1
I0
tp758
a(I256
F110231.25063373608
I3
I1
I0
tp759
a(I257
F110646.47616190268
I1
I1
I0
tp760
a(I258
F110646.47616190268
I2
I1
I0
tp761
a(I259
F111478.87663386109
I1
I1
I0
tp762
a(I260
F111894.10216202769
I2
I1
I0
tp763
a(I261
F112310.30239800688
I3
I0
I0
tp764
a(I262
F112310.30239800688
I4
I0
I0
tp765
a(I263
F112726.50263398609
I1
I1
I0
tp766
a(I264
F113141.72816215269
I3
I1
I0
tp767
a(I265
F113557.92839813189
I4
I1
I0
tp768
a(I266
F113974.12863411108
I1
I0
I0
tp769
a(I267
F113974.12863411108
I2
I0
I0
tp770
a(I268
F114805.55439825689
I1
I0
I0
tp771
a(I269
F115221.75463423609
I2
I0
I0
tp772
a(I270
F115636.98016240269
I1
I1
I0
tp773
a(I271
F115636.98016240269
I3
I1
I0
tp774
a(I272
F116053.18039838188
I3
I1
I0
tp775
a(I273
F116469.38063436109
I1
I0
I0
tp776
a(I274
F116884.60616252769
I3
I0
I0
tp777
a(I275
F117300.80639850689
I2
I1
I0
tp778
a(I276
F117300.80639850689
I3
I1
I0
tp779
a(I277
F118132.2321626527
I1
I0
I0
tp780
a(I278
F118548.43239863189
I2
I0
I0
tp781
a(I279
F118964.63263461109
I2
I1
I0
tp782
a(I280
F118964.63263461109
I4
I1
I0
tp783
a(I281
F119379.85816277769
I4
I1
I0
tp784
a(I282
F119796.0583987569
I3
I0
I0
tp785
a(I283
F120212.25863473609
I4
I0
I0
tp786
a(I284
F120627.48416290269
I1
I1
I0
tp787
a(I285
F120627.48416290269
I4
I1
I0
tp788
a(I286
F121457.93521923589
I2
I1
I0
tp789
a(I287
F121865.36308490171
I3
I1
I0
tp790
a(I288
F122264.01858025415
I1
I1
I0
tp791
a(I289
F122264.01858025415
I2
I1
I0
tp792
a(I290
F122653.90170529322
I4
I1
I0
tp793
a(I291
F123037.93658345669
I2
I1
I0
tp794
a(I292
F123413.19909130679
I4
I1
I0
tp795
a(I293
F123783.5880600939
I3
I1
I0
tp796
a(I294
F123783.5880600939
I4
I1
I0
tp797
a(I295
F124502.92242579097
I2
I1
I0
tp798
a(I296
F124852.84253051353
I3
I1
I0
tp799
a(I297
F125196.9143883605
I1
I1
I0
tp800
a(I298
F125196.9143883605
I2
I1
I0
tp801
a(I299
F125535.13799933188
I2
I1
I0
tp802
a(I300
F125868.48807124028
I4
I1
I0
tp803
a(I301
F126195.98989627311
I1
I1
I0
tp804
a(I302
F126518.61818224292
I3
I0
I0
tp805
a(I303
F126518.61818224292
I4
I0
I0
tp806
a(I304
F127148.27942918101
I2
I0
I0
tp807
a(I305
F127455.31239014927
I3
I0
I0
tp808
a(I306
F127758.44651986715
I1
I1
I0
tp809
a(I307
F127758.44651986715
I4
I1
I0
tp810
a(I308
F128056.70711052202
I4
I1
I0
tp811
a(I309
F128351.06886992652
I2
I0
I0
tp812
a(I310
F128640.55709026803
I4
I0
I0
tp813
a(I311
F128926.14647935914
I2
I1
I0
tp814
a(I312
F128926.14647935914
I4
I1
I0
tp815
a(I313
F129486.60347160279
I2
I0
I0
tp816
a(I314
F129760.49636694272
I3
I0
I0
tp817
a(I315
F130031.46513884488
I1
I1
I0
tp818
a(I316
F130031.46513884488
I3
I1
I0
tp819
a(I317
F130298.53507949664
I1
I1
I0
tp820
a(I318
F130561.70618889801
I4
I0
I0
tp821
a(I319
F130821.95317486157
I1
I0
I0
tp822
a(I320
F131079.27603738735
I2
I1
I0
tp823
a(I321
F131079.27603738735
I3
I1
I0
tp824
a(I322
F131521.79338430669
I1
I0
I0
tp825
aa.