(lp1
(lp2
(I0
F871.7030727890625
I3
I0
I0
tp3
a(I1
F1375.5766245468749
I1
I0
I0
tp4
a(I2
F1878.4755659531249
I4
I0
I0
tp5
a(I3
F2885.2480591171875
I3
I0
I0
tp6
a(I4
F3388.1470005234378
I3
I0
I0
tp7
a(I5
F3891.0459419296876
I2
I0
I0
tp8
a(I6
F4897.8184350937499
I3
I1
I0
tp9
a(I7
F5400.7173764999998
I1
I1
I0
tp10
a(I8
F5903.6163179062496
I4
I1
I0
tp11
a(I9
F6910.3888110703119
I3
I1
I0
tp12
a(I10
F7413.2877524765618
I3
I1
I0
tp13
a(I11
F7917.1613042343743
I2
I1
I0
tp14
a(I12
F8922.9591870468739
I2
I0
I0
tp15
a(I13
F9426.8327388046873
I3
I0
I0
tp16
a(I14
F9929.7316802109381
I1
I0
I0
tp17
a(I15
F10935.529563023438
I4
I0
I0
tp18
a(I16
F11439.403114781249
I2
I0
I0
tp19
a(I17
F11942.3020561875
I1
I0
I0
tp20
a(I18
F12949.074549351562
I2
I1
I0
tp21
a(I19
F13451.973490757811
I3
I1
I0
tp22
a(I20
F13954.872432164062
I1
I1
I0
tp23
a(I21
F14961.644925328124
I4
I1
I0
tp24
a(I22
F15464.543866734375
I2
I1
I0
tp25
a(I23
F15967.442808140624
I1
I1
I0
tp26
a(I24
F16963.494587437501
I3
I0
I0
tp27
a(I25
F17441.053659703128
I1
I0
I0
tp28
a(I26
F17904.968187046878
I4
I0
I0
tp29
a(I27
F18795.762048375
I3
I0
I0
tp30
a(I28
F19221.666772007815
I3
I0
I0
tp31
a(I29
F19636.850781773439
I2
I0
I0
tp32
a(I30
F20436.031270054689
I3
I1
I0
tp33
a(I31
F20821.002358921876
I1
I1
I0
tp34
a(I32
F21196.22734427344
I4
I1
I0
tp35
a(I33
F21920.362835484375
I3
I1
I0
tp36
a(I34
F22271.222562046878
I3
I1
I0
tp37
a(I35
F22614.285405796876
I2
I1
I0
tp38
a(I36
F23279.944275914066
I2
I0
I0
tp39
a(I37
F23603.514912632814
I3
I0
I0
tp40
a(I38
F23921.23788724219
I1
I0
I0
tp41
a(I39
F24537.19162942969
I4
I0
I0
tp42
a(I40
F24836.397007359377
I2
I0
I0
tp43
a(I41
F25129.754723179689
I1
I0
I0
tp44
a(I42
F25701.850999546878
I2
I1
I0
tp45
a(I43
F25979.61494974219
I3
I1
I0
tp46
a(I44
F26254.455068882813
I1
I1
I0
tp47
a(I45
F26787.566931187503
I4
I1
I0
tp48
a(I46
F27047.787895054687
I2
I1
I0
tp49
a(I47
F27304.110417515625
I1
I1
I0
tp50
a(I48
F28123.757723179689
I3
I1
I0
tp51
a(I49
F29129.555605992187
I4
I1
I0
tp52
a(I50
F30136.328099156253
I2
I1
I0
tp53
a(I51
F31143.100592320316
I1
I1
I0
tp54
a(I52
F32148.898475132813
I1
I0
I0
tp55
a(I53
F33155.670968296879
I2
I0
I0
tp56
a(I54
F34161.468851109377
I4
I0
I0
tp57
a(I55
F35168.24134427344
I3
I0
I0
tp58
a(I56
F36185.734551304689
I3
I1
I0
tp59
a(I57
F37269.501262242185
I4
I1
I0
tp60
a(I58
F38439.033684117188
I2
I1
I0
tp61
a(I59
F39707.0017515
I1
I1
I0
tp62
a(I60
F41082.176957554686
I1
I0
I0
tp63
a(I61
F41815.08394192969
I1
I1
I0
tp64
a(I62
F42577.229236851563
I2
I0
I0
tp65
a(I63
F43381.282776890628
I2
I1
I0
tp66
a(I64
F44231.143003453129
I4
I0
I0
tp67
a(I65
F45128.759137242188
I1
I1
I0
tp68
a(I66
F46072.181957554691
I3
I0
I0
tp69
a(I67
F46072.181957554691
I3
I0
I0
tp70
a(I68
F47194.933082554686
I3
I0
I0
tp71
a(I69
F47698.806634312503
I1
I0
I0
tp72
a(I70
F48201.705575718748
I4
I0
I0
tp73
a(I71
F49208.47806888281
I3
I0
I0
tp74
a(I72
F49711.377010289063
I3
I0
I0
tp75
a(I73
F50214.275951695316
I2
I0
I0
tp76
a(I74
F51221.048444859378
I3
I1
I0
tp77
a(I75
F51723.947386265623
I1
I1
I0
tp78
a(I76
F52226.846327671876
I4
I1
I0
tp79
a(I77
F53233.618820835938
I3
I1
I0
tp80
a(I78
F53736.517762242191
I3
I1
I0
tp81
a(I79
F54240.391314
I2
I1
I0
tp82
a(I80
F55246.189196812498
I2
I0
I0
tp83
a(I81
F55750.062748570315
I3
I0
I0
tp84
a(I82
F56252.961689976561
I1
I0
I0
tp85
a(I83
F57258.759572789066
I4
I0
I0
tp86
a(I84
F57762.633124546875
I2
I0
I0
tp87
a(I85
F58265.532065953128
I1
I0
I0
tp88
a(I86
F59272.30455911719
I2
I1
I0
tp89
a(I87
F59775.203500523436
I3
I1
I0
tp90
a(I88
F60278.102441929688
I1
I1
I0
tp91
a(I89
F61284.874935093751
I4
I1
I0
tp92
a(I90
F61787.773876500003
I2
I1
I0
tp93
a(I91
F62290.672817906248
I1
I1
I0
tp94
a(I92
F63297.445311070311
I3
I0
I0
tp95
a(I93
F63800.344252476563
I1
I0
I0
tp96
a(I94
F64304.217804234373
I4
I0
I0
tp97
a(I95
F65310.015687046878
I3
I0
I0
tp98
a(I96
F65813.889238804695
I3
I0
I0
tp99
a(I97
F66316.788180210933
I2
I0
I0
tp100
a(I98
F67322.586063023438
I3
I1
I0
tp101
a(I99
F67826.459614781255
I1
I1
I0
tp102
a(I100
F68329.358556187508
I4
I1
I0
tp103
a(I101
F69336.131049351563
I3
I1
I0
tp104
a(I102
F69839.029990757816
I3
I1
I0
tp105
a(I103
F70341.928932164068
I2
I1
I0
tp106
a(I104
F71357.472918492189
I2
I0
I0
tp107
a(I105
F71883.762508335945
I3
I0
I0
tp108
a(I106
F72425.64586380469
I1
I0
I0
tp109
a(I107
F73556.193871617186
I4
I0
I0
tp110
a(I108
F74147.782355015632
I2
I0
I0
tp111
a(I109
F74757.888435093744
I1
I0
I0
tp112
a(I110
F76045.348709507816
I2
I1
I0
tp113
a(I111
F76721.728293492182
I3
I1
I0
tp114
a(I112
F77424.422356968746
I1
I1
I0
tp115
a(I113
F78912.652363804693
I4
I1
I0
tp116
a(I114
F79304.445725132813
I4
I0
I0
tp117
a(I115
F79703.06135892187
I2
I1
I0
tp118
a(I116
F80110.448485875007
I2
I0
I0
tp119
a(I117
F80529.530937046875
I1
I1
I0
tp120
a(I118
F81482.699860875
I1
I1
I0
tp121
a(I119
F82314.042490757813
I3
I1
I0
tp122
a(I120
F82314.042490757813
I4
I1
I0
tp123
a(I121
F83145.385120640625
I1
I1
I0
tp124
a(I122
F83977.702360875002
I1
I1
I0
tp125
a(I123
F83977.702360875002
I2
I1
I0
tp126
a(I124
F84809.044990757815
I1
I1
I0
tp127
a(I125
F85640.387620640628
I3
I0
I0
tp128
a(I126
F85640.387620640628
I4
I0
I0
tp129
a(I127
F86472.704860875005
I3
I1
I0
tp130
a(I128
F87304.047490757817
I1
I0
I0
tp131
a(I129
F87304.047490757817
I2
I0
I0
tp132
a(I130
F88135.39012064063
I1
I0
I0
tp133
a(I131
F88967.707360875007
I1
I1
I0
tp134
a(I132
F88967.707360875007
I3
I1
I0
tp135
a(I133
F89799.04999075782
I1
I0
I0
tp136
a(I134
F90630.392620640632
I2
I1
I0
tp137
a(I135
F90630.392620640632
I3
I1
I0
tp138
a(I136
F91462.709860874995
I1
I0
I0
tp139
a(I137
F92294.052490757807
I2
I1
I0
tp140
a(I138
F92294.052490757807
I4
I1
I0
tp141
a(I139
F93125.39512064062
I3
I0
I0
tp142
a(I140
F93957.712360874997
I1
I1
I0
tp143
a(I141
F93957.712360874997
I4
I1
I0
tp144
a(I142
F94789.05499075781
I2
I1
I0
tp145
a(I143
F95620.397620640622
I1
I1
I0
tp146
a(I144
F95620.397620640622
I2
I1
I0
tp147
a(I145
F96452.714860874999
I2
I1
I0
tp148
a(I146
F97284.057490757812
I3
I1
I0
tp149
a(I147
F97284.057490757812
I4
I1
I0
tp150
a(I148
F98115.400120640625
I2
I1
I0
tp151
a(I149
F98947.717360875002
I1
I1
I0
tp152
a(I150
F98947.717360875002
I2
I1
I0
tp153
a(I151
F99779.059990757814
I4
I1
I0
tp154
a(I152
F100610.40262064063
I3
I0
I0
tp155
a(I153
F100610.40262064063
I4
I0
I0
tp156
a(I154
F101442.719860875
I2
I0
I0
tp157
a(I155
F102274.06249075782
I1
I1
I0
tp158
a(I156
F102274.06249075782
I4
I1
I0
tp159
a(I157
F103105.40512064063
I2
I0
I0
tp160
a(I158
F103937.72236087501
I2
I1
I0
tp161
a(I159
F103937.72236087501
I4
I1
I0
tp162
a(I160
F104769.06499075782
I2
I0
I0
tp163
a(I161
F105600.40762064063
I1
I1
I0
tp164
a(I162
F105600.40762064063
I3
I1
I0
tp165
a(I163
F106432.72486087499
I4
I0
I0
tp166
a(I164
F107264.06749075781
I2
I1
I0
tp167
a(I165
F107264.06749075781
I3
I1
I0
tp168
a(I166
F108095.41012064062
I1
I1
I0
tp169
a(I167
F108927.727360875
I3
I1
I0
tp170
a(I168
F108927.727360875
I4
I1
I0
tp171
a(I169
F109759.06999075781
I1
I1
I0
tp172
a(I170
F110590.41262064062
I1
I1
I0
tp173
a(I171
F110590.41262064062
I2
I1
I0
tp174
a(I172
F111422.729860875
I1
I1
I0
tp175
a(I173
F112254.07249075781
I3
I0
I0
tp176
a(I174
F112254.07249075781
I4
I0
I0
tp177
a(I175
F113085.41512064062
I3
I1
I0
tp178
a(I176
F113917.732360875
I1
I0
I0
tp179
a(I177
F113917.732360875
I2
I0
I0
tp180
a(I178
F114749.07499075781
I1
I0
I0
tp181
a(I179
F115580.41762064063
I1
I1
I0
tp182
a(I180
F115580.41762064063
I3
I1
I0
tp183
a(I181
F116412.734860875
I1
I0
I0
tp184
a(I182
F117244.07749075782
I2
I1
I0
tp185
a(I183
F117244.07749075782
I3
I1
I0
tp186
a(I184
F118075.42012064063
I1
I0
I0
tp187
a(I185
F118907.73736087501
I2
I1
I0
tp188
a(I186
F118907.73736087501
I4
I1
I0
tp189
a(I187
F119739.07999075782
I3
I0
I0
tp190
a(I188
F120570.42262064063
I1
I1
I0
tp191
a(I189
F120570.42262064063
I4
I1
I0
tp192
a(I190
F121400.79064017188
I2
I1
I0
tp193
a(I191
F122206.79340091406
I1
I1
I0
tp194
a(I192
F122206.79340091406
I2
I1
I0
tp195
a(I193
F122980.63402005468
I2
I1
I0
tp196
a(I194
F123726.210939
I3
I1
I0
tp197
a(I195
F123726.210939
I4
I1
I0
tp198
a(I196
F124445.47337845313
I2
I1
I0
tp199
a(I197
F125139.39594876562
I1
I1
I0
tp200
a(I198
F125139.39594876562
I2
I1
I0
tp201
a(I199
F125810.90248099218
I4
I1
I0
tp202
a(I200
F126460.96758548438
I3
I0
I0
tp203
a(I201
F126460.96758548438
I4
I0
I0
tp204
a(I202
F127090.56587259375
I2
I0
I0
tp205
a(I203
F127700.67195267188
I1
I1
I0
tp206
a(I204
F127700.67195267188
I4
I1
I0
tp207
a(I205
F128293.23504642188
I2
I0
I0
tp208
a(I206
F128868.25515384375
I2
I1
I0
tp209
a(I207
F128868.25515384375
I4
I1
I0
tp210
a(I208
F129428.6561059922
I2
I0
I0
tp211
a(I209
F129973.46329251563
I1
I1
I0
tp212
a(I210
F129973.46329251563
I3
I1
I0
tp213
a(I211
F130503.65132376563
I4
I0
I0
tp214
a(I212
F131021.16942044529
I2
I1
I0
tp215
a(I213
F131021.16942044529
I3
I1
I0
tp216
aa(lp217
(I0
F368.8041313828125
I1
I0
I0
tp218
a(I1
F871.7030727890625
I3
I0
I0
tp219
a(I2
F1375.5766245468749
I1
I0
I0
tp220
a(I3
F1878.4755659531249
I4
I0
I0
tp221
a(I4
F2381.374507359375
I1
I0
I0
tp222
a(I5
F2885.2480591171875
I3
I0
I0
tp223
a(I6
F3388.1470005234378
I3
I0
I0
tp224
a(I7
F3891.0459419296876
I2
I0
I0
tp225
a(I8
F4394.9194936875001
I1
I1
I0
tp226
a(I9
F4897.8184350937499
I3
I1
I0
tp227
a(I10
F5400.7173764999998
I1
I1
I0
tp228
a(I11
F5903.6163179062496
I4
I1
I0
tp229
a(I12
F6407.4898696640621
I1
I1
I0
tp230
a(I13
F6910.3888110703119
I3
I1
I0
tp231
a(I14
F7413.2877524765618
I3
I1
I0
tp232
a(I15
F7917.1613042343743
I2
I1
I0
tp233
a(I16
F8420.060245640625
I3
I0
I0
tp234
a(I17
F8922.9591870468739
I2
I0
I0
tp235
a(I18
F9426.8327388046873
I3
I0
I0
tp236
a(I19
F9929.7316802109381
I1
I0
I0
tp237
a(I20
F10432.630621617187
I3
I0
I0
tp238
a(I21
F10935.529563023438
I4
I0
I0
tp239
a(I22
F11439.403114781249
I2
I0
I0
tp240
a(I23
F11942.3020561875
I1
I0
I0
tp241
a(I24
F12445.200997593749
I3
I1
I0
tp242
a(I25
F12949.074549351562
I2
I1
I0
tp243
a(I26
F13451.973490757811
I3
I1
I0
tp244
a(I27
F13954.872432164062
I1
I1
I0
tp245
a(I28
F14458.745983921875
I3
I1
I0
tp246
a(I29
F14961.644925328124
I4
I1
I0
tp247
a(I30
F15464.543866734375
I2
I1
I0
tp248
a(I31
F15967.442808140624
I1
I1
I0
tp249
a(I32
F16471.316359898439
I1
I0
I0
tp250
a(I33
F16963.494587437501
I3
I0
I0
tp251
a(I34
F17441.053659703128
I1
I0
I0
tp252
a(I35
F17904.968187046878
I4
I0
I0
tp253
a(I36
F18357.187390171875
I1
I0
I0
tp254
a(I37
F18795.762048375
I3
I0
I0
tp255
a(I38
F19221.666772007815
I3
I0
I0
tp256
a(I39
F19636.850781773439
I2
I0
I0
tp257
a(I40
F20040.339467320315
I1
I1
I0
tp258
a(I41
F20436.031270054689
I3
I1
I0
tp259
a(I42
F20821.002358921876
I1
I1
I0
tp260
a(I43
F21196.22734427344
I4
I1
I0
tp261
a(I44
F21562.680836460939
I1
I1
I0
tp262
a(I45
F21920.362835484375
I3
I1
I0
tp263
a(I46
F22271.222562046878
I3
I1
I0
tp264
a(I47
F22614.285405796876
I2
I1
I0
tp265
a(I48
F22950.525977085937
I3
I0
I0
tp266
a(I49
F23279.944275914066
I2
I0
I0
tp267
a(I50
F23603.514912632814
I3
I0
I0
tp268
a(I51
F23921.23788724219
I1
I0
I0
tp269
a(I52
F24232.138589390626
I3
I0
I0
tp270
a(I53
F24537.19162942969
I4
I0
I0
tp271
a(I54
F24836.397007359377
I2
I0
I0
tp272
a(I55
F25129.754723179689
I1
I0
I0
tp273
a(I56
F25419.21399759375
I3
I1
I0
tp274
a(I57
F25701.850999546878
I2
I1
I0
tp275
a(I58
F25979.61494974219
I3
I1
I0
tp276
a(I59
F26254.455068882813
I1
I1
I0
tp277
a(I60
F26523.447525914064
I3
I1
I0
tp278
a(I61
F26787.566931187503
I4
I1
I0
tp279
a(I62
F27047.787895054687
I2
I1
I0
tp280
a(I63
F27304.110417515625
I1
I1
I0
tp281
a(I64
F28123.757723179689
I3
I1
I0
tp282
a(I65
F29129.555605992187
I4
I1
I0
tp283
a(I66
F30136.328099156253
I2
I1
I0
tp284
a(I67
F30639.227040562502
I3
I1
I0
tp285
a(I68
F31143.100592320316
I1
I1
I0
tp286
a(I69
F32148.898475132813
I1
I0
I0
tp287
a(I70
F33155.670968296879
I2
I0
I0
tp288
a(I71
F34161.468851109377
I4
I0
I0
tp289
a(I72
F34665.342402867187
I1
I1
I0
tp290
a(I73
F35168.24134427344
I3
I0
I0
tp291
a(I74
F36185.734551304689
I3
I1
I0
tp292
a(I75
F37269.501262242185
I4
I1
I0
tp293
a(I76
F38439.033684117188
I2
I1
I0
tp294
a(I77
F39059.860478062503
I3
I1
I0
tp295
a(I78
F39707.0017515
I1
I1
I0
tp296
a(I79
F41082.176957554686
I1
I0
I0
tp297
a(I80
F41815.08394192969
I1
I1
I0
tp298
a(I81
F42577.229236851563
I2
I0
I0
tp299
a(I82
F43381.282776890628
I2
I1
I0
tp300
a(I83
F44231.143003453129
I4
I0
I0
tp301
a(I84
F44674.590713414065
I4
I1
I0
tp302
a(I85
F45128.759137242188
I1
I0
I0
tp303
a(I86
F45592.673664585942
I1
I1
I0
tp304
a(I87
F46692.034141148441
I1
I0
I0
tp305
a(I88
F47194.933082554686
I3
I0
I0
tp306
a(I89
F47698.806634312503
I1
I0
I0
tp307
a(I90
F48201.705575718748
I4
I0
I0
tp308
a(I91
F48704.604517125001
I1
I0
I0
tp309
a(I92
F49208.47806888281
I3
I0
I0
tp310
a(I93
F49711.377010289063
I3
I0
I0
tp311
a(I94
F50214.275951695316
I2
I0
I0
tp312
a(I95
F50717.174893101561
I1
I1
I0
tp313
a(I96
F51221.048444859378
I3
I1
I0
tp314
a(I97
F51723.947386265623
I1
I1
I0
tp315
a(I98
F52226.846327671876
I4
I1
I0
tp316
a(I99
F52730.719879429686
I1
I1
I0
tp317
a(I100
F53233.618820835938
I3
I1
I0
tp318
a(I101
F53736.517762242191
I3
I1
I0
tp319
a(I102
F54240.391314
I2
I1
I0
tp320
a(I103
F54743.290255406253
I3
I0
I0
tp321
a(I104
F55246.189196812498
I2
I0
I0
tp322
a(I105
F55750.062748570315
I3
I0
I0
tp323
a(I106
F56252.961689976561
I1
I0
I0
tp324
a(I107
F56755.860631382813
I3
I0
I0
tp325
a(I108
F57258.759572789066
I4
I0
I0
tp326
a(I109
F57762.633124546875
I2
I0
I0
tp327
a(I110
F58265.532065953128
I1
I0
I0
tp328
a(I111
F58768.431007359373
I3
I1
I0
tp329
a(I112
F59272.30455911719
I2
I1
I0
tp330
a(I113
F59775.203500523436
I3
I1
I0
tp331
a(I114
F60278.102441929688
I1
I1
I0
tp332
a(I115
F60781.975993687498
I3
I1
I0
tp333
a(I116
F61284.874935093751
I4
I1
I0
tp334
a(I117
F61787.773876500003
I2
I1
I0
tp335
a(I118
F62290.672817906248
I1
I1
I0
tp336
a(I119
F62794.546369664065
I1
I0
I0
tp337
a(I120
F63297.445311070311
I3
I0
I0
tp338
a(I121
F63800.344252476563
I1
I0
I0
tp339
a(I122
F64304.217804234373
I4
I0
I0
tp340
a(I123
F64807.116745640626
I1
I0
I0
tp341
a(I124
F65310.015687046878
I3
I0
I0
tp342
a(I125
F65813.889238804695
I3
I0
I0
tp343
a(I126
F66316.788180210933
I2
I0
I0
tp344
a(I127
F66819.687121617186
I1
I1
I0
tp345
a(I128
F67322.586063023438
I3
I1
I0
tp346
a(I129
F67826.459614781255
I1
I1
I0
tp347
a(I130
F68329.358556187508
I4
I1
I0
tp348
a(I131
F68832.257497593746
I1
I1
I0
tp349
a(I132
F69336.131049351563
I3
I1
I0
tp350
a(I133
F69839.029990757816
I3
I1
I0
tp351
a(I134
F70341.928932164068
I2
I1
I0
tp352
a(I135
F70845.802483921871
I3
I0
I0
tp353
a(I136
F71357.472918492189
I2
I0
I0
tp354
a(I137
F71883.762508335945
I3
I0
I0
tp355
a(I138
F72425.64586380469
I1
I0
I0
tp356
a(I139
F72983.122984898437
I3
I0
I0
tp357
a(I140
F73556.193871617186
I4
I0
I0
tp358
a(I141
F74147.782355015632
I2
I0
I0
tp359
a(I142
F74757.888435093744
I1
I0
I0
tp360
a(I143
F75390.410553257811
I3
I1
I0
tp361
a(I144
F76045.348709507816
I2
I1
I0
tp362
a(I145
F76721.728293492182
I3
I1
I0
tp363
a(I146
F77424.422356968746
I1
I1
I0
tp364
a(I147
F77786.977407750004
I1
I0
I0
tp365
a(I148
F78154.405510289071
I3
I1
I0
tp366
a(I149
F78531.579716343753
I3
I0
I0
tp367
a(I150
F78912.652363804693
I4
I1
I0
tp368
a(I151
F79304.445725132813
I4
I0
I0
tp369
a(I152
F79703.06135892187
I2
I1
I0
tp370
a(I153
F80110.448485875007
I2
I0
I0
tp371
a(I154
F80529.530937046875
I1
I1
I0
tp372
a(I155
F81482.699860875
I1
I1
I0
tp373
a(I156
F81897.883870640624
I2
I1
I0
tp374
a(I157
F82314.042490757813
I3
I1
I0
tp375
a(I158
F82314.042490757813
I4
I1
I0
tp376
a(I159
F83145.385120640625
I1
I1
I0
tp377
a(I160
F83561.543740757814
I3
I1
I0
tp378
a(I161
F83977.702360875002
I1
I1
I0
tp379
a(I162
F83977.702360875002
I2
I1
I0
tp380
a(I163
F84809.044990757815
I1
I1
I0
tp381
a(I164
F85225.203610875004
I2
I1
I0
tp382
a(I165
F85640.387620640628
I3
I0
I0
tp383
a(I166
F85640.387620640628
I4
I0
I0
tp384
a(I167
F86472.704860875005
I3
I1
I0
tp385
a(I168
F86887.888870640629
I4
I1
I0
tp386
a(I169
F87304.047490757817
I1
I0
I0
tp387
a(I170
F87304.047490757817
I2
I0
I0
tp388
a(I171
F88135.39012064063
I1
I0
I0
tp389
a(I172
F88551.548740757818
I2
I0
I0
tp390
a(I173
F88967.707360875007
I1
I1
I0
tp391
a(I174
F88967.707360875007
I3
I1
I0
tp392
a(I175
F89799.04999075782
I1
I0
I0
tp393
a(I176
F90215.208610875008
I3
I0
I0
tp394
a(I177
F90630.392620640632
I2
I1
I0
tp395
a(I178
F90630.392620640632
I3
I1
I0
tp396
a(I179
F91462.709860874995
I1
I0
I0
tp397
a(I180
F91877.893870640633
I2
I0
I0
tp398
a(I181
F92294.052490757807
I2
I1
I0
tp399
a(I182
F92294.052490757807
I4
I1
I0
tp400
a(I183
F93125.39512064062
I3
I0
I0
tp401
a(I184
F93541.553740757809
I4
I0
I0
tp402
a(I185
F93957.712360874997
I1
I1
I0
tp403
a(I186
F93957.712360874997
I4
I1
I0
tp404
a(I187
F94789.05499075781
I2
I1
I0
tp405
a(I188
F95205.213610874998
I3
I1
I0
tp406
a(I189
F95620.397620640622
I1
I1
I0
tp407
a(I190
F95620.397620640622
I2
I1
I0
tp408
a(I191
F96452.714860874999
I2
I1
I0
tp409
a(I192
F96867.898870640623
I4
I1
I0
tp410
a(I193
F97284.057490757812
I3
I1
I0
tp411
a(I194
F97284.057490757812
I4
I1
I0
tp412
a(I195
F98115.400120640625
I2
I1
I0
tp413
a(I196
F98531.558740757813
I3
I1
I0
tp414
a(I197
F98947.717360875002
I1
I1
I0
tp415
a(I198
F98947.717360875002
I2
I1
I0
tp416
a(I199
F99779.059990757814
I4
I1
I0
tp417
a(I200
F100195.218610875
I1
I1
I0
tp418
a(I201
F100610.40262064063
I3
I0
I0
tp419
a(I202
F100610.40262064063
I4
I0
I0
tp420
a(I203
F101442.719860875
I2
I0
I0
tp421
a(I204
F101857.90387064063
I3
I0
I0
tp422
a(I205
F102274.06249075782
I1
I1
I0
tp423
a(I206
F102274.06249075782
I4
I1
I0
tp424
a(I207
F103105.40512064063
I2
I0
I0
tp425
a(I208
F103521.56374075782
I4
I0
I0
tp426
a(I209
F103937.72236087501
I2
I1
I0
tp427
a(I210
F103937.72236087501
I4
I1
I0
tp428
a(I211
F104769.06499075782
I2
I0
I0
tp429
a(I212
F105185.22361087501
I3
I0
I0
tp430
a(I213
F105600.40762064063
I1
I1
I0
tp431
a(I214
F105600.40762064063
I3
I1
I0
tp432
a(I215
F106432.72486087499
I4
I0
I0
tp433
a(I216
F106847.90887064063
I1
I0
I0
tp434
a(I217
F107264.06749075781
I2
I1
I0
tp435
a(I218
F107264.06749075781
I3
I1
I0
tp436
a(I219
F108095.41012064062
I1
I1
I0
tp437
a(I220
F108511.56874075781
I2
I1
I0
tp438
a(I221
F108927.727360875
I3
I1
I0
tp439
a(I222
F108927.727360875
I4
I1
I0
tp440
a(I223
F109759.06999075781
I1
I1
I0
tp441
a(I224
F110175.228610875
I3
I1
I0
tp442
a(I225
F110590.41262064062
I1
I1
I0
tp443
a(I226
F110590.41262064062
I2
I1
I0
tp444
a(I227
F111422.729860875
I1
I1
I0
tp445
a(I228
F111837.91387064062
I2
I1
I0
tp446
a(I229
F112254.07249075781
I3
I0
I0
tp447
a(I230
F112254.07249075781
I4
I0
I0
tp448
a(I231
F113085.41512064062
I3
I1
I0
tp449
a(I232
F113501.57374075781
I4
I1
I0
tp450
a(I233
F113917.732360875
I1
I0
I0
tp451
a(I234
F113917.732360875
I2
I0
I0
tp452
a(I235
F114749.07499075781
I1
I0
I0
tp453
a(I236
F115165.233610875
I2
I0
I0
tp454
a(I237
F115580.41762064063
I1
I1
I0
tp455
a(I238
F115580.41762064063
I3
I1
I0
tp456
a(I239
F116412.734860875
I1
I0
I0
tp457
a(I240
F116827.91887064063
I3
I0
I0
tp458
a(I241
F117244.07749075782
I2
I1
I0
tp459
a(I242
F117244.07749075782
I3
I1
I0
tp460
a(I243
F118075.42012064063
I1
I0
I0
tp461
a(I244
F118491.57874075782
I2
I0
I0
tp462
a(I245
F118907.73736087501
I2
I1
I0
tp463
a(I246
F118907.73736087501
I4
I1
I0
tp464
a(I247
F119739.07999075782
I3
I0
I0
tp465
a(I248
F120155.23861087501
I4
I0
I0
tp466
a(I249
F120570.42262064063
I1
I1
I0
tp467
a(I250
F120570.42262064063
I4
I1
I0
tp468
a(I251
F121400.79064017188
I2
I1
I0
tp469
a(I252
F121808.177767125
I3
I1
I0
tp470
a(I253
F122206.79340091406
I1
I1
I0
tp471
a(I254
F122206.79340091406
I2
I1
I0
tp472
a(I255
F122980.63402005468
I2
I1
I0
tp473
a(I256
F123355.85900540625
I4
I1
I0
tp474
a(I257
F123726.210939
I3
I1
I0
tp475
a(I258
F123726.210939
I4
I1
I0
tp476
a(I259
F124445.47337845313
I2
I1
I0
tp477
a(I260
F124795.35849466406
I3
I1
I0
tp478
a(I261
F125139.39594876562
I1
I1
I0
tp479
a(I262
F125139.39594876562
I2
I1
I0
tp480
a(I263
F125810.90248099218
I4
I1
I0
tp481
a(I264
F126138.37155911719
I1
I1
I0
tp482
a(I265
F126460.96758548438
I3
I0
I0
tp483
a(I266
F126460.96758548438
I4
I0
I0
tp484
a(I267
F127090.56587259375
I2
I0
I0
tp485
a(I268
F127397.56813333594
I3
I0
I0
tp486
a(I269
F127700.67195267188
I1
I1
I0
tp487
a(I270
F127700.67195267188
I4
I1
I0
tp488
a(I271
F128293.23504642188
I2
I0
I0
tp489
a(I272
F128582.69432083594
I4
I0
I0
tp490
a(I273
F128868.25515384375
I2
I1
I0
tp491
a(I274
F128868.25515384375
I4
I1
I0
tp492
a(I275
F129428.6561059922
I2
I0
I0
tp493
a(I276
F129702.52161478125
I3
I0
I0
tp494
a(I277
F129973.46329251563
I1
I1
I0
tp495
a(I278
F129973.46329251563
I3
I1
I0
tp496
a(I279
F130503.65132376563
I4
I0
I0
tp497
a(I280
F130763.87228763281
I1
I0
I0
tp498
a(I281
F131021.16942044529
I2
I1
I0
tp499
a(I282
F131021.16942044529
I3
I1
I0
tp500
a(I283
F131463.64252005468
I1
I0
I0
tp501
aa(lp502
(I0
F368.8041313828125
I1
I0
I0
tp503
a(I1
F871.7030727890625
I3
I0
I0
tp504
a(I2
F1375.5766245468749
I1
I0
I0
tp505
a(I3
F1878.4755659531249
I4
I0
I0
tp506
a(I4
F2129.9250366562501
I2
I1
I0
tp507
a(I5
F2381.374507359375
I1
I0
I0
tp508
a(I6
F2885.2480591171875
I3
I0
I0
tp509
a(I7
F3388.1470005234378
I3
I0
I0
tp510
a(I8
F3891.0459419296876
I2
I0
I0
tp511
a(I9
F4394.9194936875001
I1
I1
I0
tp512
a(I10
F4897.8184350937499
I3
I1
I0
tp513
a(I11
F5400.7173764999998
I1
I1
I0
tp514
a(I12
F5903.6163179062496
I4
I1
I0
tp515
a(I13
F6156.0403989609376
I2
I0
I0
tp516
a(I14
F6407.4898696640621
I1
I1
I0
tp517
a(I15
F6910.3888110703119
I3
I1
I0
tp518
a(I16
F7413.2877524765618
I3
I1
I0
tp519
a(I17
F7917.1613042343743
I2
I1
I0
tp520
a(I18
F8420.060245640625
I3
I0
I0
tp521
a(I19
F8922.9591870468739
I2
I0
I0
tp522
a(I20
F9426.8327388046873
I3
I0
I0
tp523
a(I21
F9929.7316802109381
I1
I0
I0
tp524
a(I22
F10181.181150914063
I2
I1
I0
tp525
a(I23
F10432.630621617187
I3
I0
I0
tp526
a(I24
F10935.529563023438
I4
I0
I0
tp527
a(I25
F11439.403114781249
I2
I0
I0
tp528
a(I26
F11942.3020561875
I1
I0
I0
tp529
a(I27
F12445.200997593749
I3
I1
I0
tp530
a(I28
F12949.074549351562
I2
I1
I0
tp531
a(I29
F13451.973490757811
I3
I1
I0
tp532
a(I30
F13954.872432164062
I1
I1
I0
tp533
a(I31
F14206.321902867187
I2
I0
I0
tp534
a(I32
F14458.745983921875
I3
I1
I0
tp535
a(I33
F14961.644925328124
I4
I1
I0
tp536
a(I34
F15464.543866734375
I2
I1
I0
tp537
a(I35
F15967.442808140624
I1
I1
I0
tp538
a(I36
F16471.316359898439
I1
I0
I0
tp539
a(I37
F16963.494587437501
I3
I0
I0
tp540
a(I38
F17441.053659703128
I1
I0
I0
tp541
a(I39
F17904.968187046878
I4
I0
I0
tp542
a(I40
F18133.0270093125
I2
I1
I0
tp543
a(I41
F18357.187390171875
I1
I0
I0
tp544
a(I42
F18795.762048375
I3
I0
I0
tp545
a(I43
F19221.666772007815
I3
I0
I0
tp546
a(I44
F19636.850781773439
I2
I0
I0
tp547
a(I45
F20040.339467320315
I1
I1
I0
tp548
a(I46
F20436.031270054689
I3
I1
I0
tp549
a(I47
F20821.002358921876
I1
I1
I0
tp550
a(I48
F21196.22734427344
I4
I1
I0
tp551
a(I49
F21380.428700718752
I2
I0
I0
tp552
a(I50
F21562.680836460939
I1
I1
I0
tp553
a(I51
F21920.362835484375
I3
I1
I0
tp554
a(I52
F22271.222562046878
I3
I1
I0
tp555
a(I53
F22614.285405796876
I2
I1
I0
tp556
a(I54
F22950.525977085937
I3
I0
I0
tp557
a(I55
F23279.944275914066
I2
I0
I0
tp558
a(I56
F23603.514912632814
I3
I0
I0
tp559
a(I57
F23921.23788724219
I1
I0
I0
tp560
a(I58
F24077.175543492191
I2
I1
I0
tp561
a(I59
F24232.138589390626
I3
I0
I0
tp562
a(I60
F24537.19162942969
I4
I0
I0
tp563
a(I61
F24836.397007359377
I2
I0
I0
tp564
a(I62
F25129.754723179689
I1
I0
I0
tp565
a(I63
F25419.21399759375
I3
I1
I0
tp566
a(I64
F25701.850999546878
I2
I1
I0
tp567
a(I65
F25979.61494974219
I3
I1
I0
tp568
a(I66
F26254.455068882813
I1
I1
I0
tp569
a(I67
F26388.951297398438
I2
I0
I0
tp570
a(I68
F26523.447525914064
I3
I1
I0
tp571
a(I69
F26787.566931187503
I4
I1
I0
tp572
a(I70
F27047.787895054687
I2
I1
I0
tp573
a(I71
F27304.110417515625
I1
I1
I0
tp574
a(I72
F28123.757723179689
I3
I1
I0
tp575
a(I73
F28626.656664585938
I1
I1
I0
tp576
a(I74
F29129.555605992187
I4
I1
I0
tp577
a(I75
F30136.328099156253
I2
I1
I0
tp578
a(I76
F30387.777569859376
I4
I1
I0
tp579
a(I77
F30639.227040562502
I3
I1
I0
tp580
a(I78
F31143.100592320316
I1
I1
I0
tp581
a(I79
F32148.898475132813
I1
I0
I0
tp582
a(I80
F32651.797416539062
I3
I1
I0
tp583
a(I81
F33155.670968296879
I2
I0
I0
tp584
a(I82
F34161.468851109377
I4
I0
I0
tp585
a(I83
F34413.892932164061
I1
I1
I0
tp586
a(I84
F34665.342402867187
I2
I1
I0
tp587
a(I85
F35168.24134427344
I3
I0
I0
tp588
a(I86
F36185.734551304689
I3
I1
I0
tp589
a(I87
F36717.871803257811
I1
I1
I0
tp590
a(I88
F37269.501262242185
I4
I1
I0
tp591
a(I89
F38439.033684117188
I2
I1
I0
tp592
a(I90
F38746.035944859374
I4
I1
I0
tp593
a(I91
F39059.860478062503
I3
I1
I0
tp594
a(I92
F39707.0017515
I1
I1
I0
tp595
a(I93
F41082.176957554686
I1
I0
I0
tp596
a(I94
F41444.732008335937
I3
I1
I0
tp597
a(I95
F41815.08394192969
I1
I1
I0
tp598
a(I96
F42577.229236851563
I2
I0
I0
tp599
a(I97
F43381.282776890628
I2
I1
I0
tp600
a(I98
F44231.143003453129
I4
I0
I0
tp601
a(I99
F44674.590713414065
I4
I1
I0
tp602
a(I100
F45128.759137242188
I1
I0
I0
tp603
a(I101
F45592.673664585942
I1
I1
I0
tp604
a(I102
F46072.181957554691
I3
I0
I0
tp605
a(I103
F46692.034141148441
I1
I0
I0
tp606
a(I104
F47194.933082554686
I3
I0
I0
tp607
a(I105
F47698.806634312503
I1
I0
I0
tp608
a(I106
F48201.705575718748
I4
I0
I0
tp609
a(I107
F48453.155046421874
I2
I1
I0
tp610
a(I108
F48704.604517125001
I1
I0
I0
tp611
a(I109
F49208.47806888281
I3
I0
I0
tp612
a(I110
F49711.377010289063
I3
I0
I0
tp613
a(I111
F50214.275951695316
I2
I0
I0
tp614
a(I112
F50717.174893101561
I1
I1
I0
tp615
a(I113
F51221.048444859378
I3
I1
I0
tp616
a(I114
F51723.947386265623
I1
I1
I0
tp617
a(I115
F52226.846327671876
I4
I1
I0
tp618
a(I116
F52479.270408726567
I2
I0
I0
tp619
a(I117
F52730.719879429686
I1
I1
I0
tp620
a(I118
F53233.618820835938
I3
I1
I0
tp621
a(I119
F53736.517762242191
I3
I1
I0
tp622
a(I120
F54240.391314
I2
I1
I0
tp623
a(I121
F54743.290255406253
I3
I0
I0
tp624
a(I122
F55246.189196812498
I2
I0
I0
tp625
a(I123
F55750.062748570315
I3
I0
I0
tp626
a(I124
F56252.961689976561
I1
I0
I0
tp627
a(I125
F56504.411160679687
I2
I1
I0
tp628
a(I126
F56755.860631382813
I3
I0
I0
tp629
a(I127
F57258.759572789066
I4
I0
I0
tp630
a(I128
F57762.633124546875
I2
I0
I0
tp631
a(I129
F58265.532065953128
I1
I0
I0
tp632
a(I130
F58768.431007359373
I3
I1
I0
tp633
a(I131
F59272.30455911719
I2
I1
I0
tp634
a(I132
F59775.203500523436
I3
I1
I0
tp635
a(I133
F60278.102441929688
I1
I1
I0
tp636
a(I134
F60529.551912632814
I2
I0
I0
tp637
a(I135
F60781.975993687498
I3
I1
I0
tp638
a(I136
F61284.874935093751
I4
I1
I0
tp639
a(I137
F61787.773876500003
I2
I1
I0
tp640
a(I138
F62290.672817906248
I1
I1
I0
tp641
a(I139
F62794.546369664065
I1
I0
I0
tp642
a(I140
F63297.445311070311
I3
I0
I0
tp643
a(I141
F63800.344252476563
I1
I0
I0
tp644
a(I142
F64304.217804234373
I4
I0
I0
tp645
a(I143
F64555.667274937499
I2
I1
I0
tp646
a(I144
F64807.116745640626
I1
I0
I0
tp647
a(I145
F65310.015687046878
I3
I0
I0
tp648
a(I146
F65813.889238804695
I3
I0
I0
tp649
a(I147
F66316.788180210933
I2
I0
I0
tp650
a(I148
F66819.687121617186
I1
I1
I0
tp651
a(I149
F67322.586063023438
I3
I1
I0
tp652
a(I150
F67826.459614781255
I1
I1
I0
tp653
a(I151
F68329.358556187508
I4
I1
I0
tp654
a(I152
F68580.80802689062
I2
I0
I0
tp655
a(I153
F68832.257497593746
I1
I1
I0
tp656
a(I154
F69336.131049351563
I3
I1
I0
tp657
a(I155
F69839.029990757816
I3
I1
I0
tp658
a(I156
F70341.928932164068
I2
I1
I0
tp659
a(I157
F70845.802483921871
I3
I0
I0
tp660
a(I158
F71357.472918492189
I2
I0
I0
tp661
a(I159
F71883.762508335945
I3
I0
I0
tp662
a(I160
F72425.64586380469
I1
I0
I0
tp663
a(I161
F72701.46059329687
I2
I1
I0
tp664
a(I162
F72983.122984898437
I3
I0
I0
tp665
a(I163
F73556.193871617186
I4
I0
I0
tp666
a(I164
F74147.782355015632
I2
I0
I0
tp667
a(I165
F74757.888435093744
I1
I0
I0
tp668
a(I166
F75390.410553257811
I3
I1
I0
tp669
a(I167
F76045.348709507816
I2
I1
I0
tp670
a(I168
F76721.728293492182
I3
I1
I0
tp671
a(I169
F77424.422356968746
I1
I1
I0
tp672
a(I170
F77786.977407750004
I2
I0
I0
tp673
a(I171
F78154.405510289071
I3
I1
I0
tp674
a(I172
F78531.579716343753
I3
I0
I0
tp675
a(I173
F78912.652363804693
I4
I1
I0
tp676
a(I174
F79304.445725132813
I4
I0
I0
tp677
a(I175
F79703.06135892187
I2
I1
I0
tp678
a(I176
F80110.448485875007
I2
I0
I0
tp679
a(I177
F80529.530937046875
I1
I1
I0
tp680
a(I178
F81482.699860875
I1
I1
I0
tp681
a(I179
F81897.883870640624
I2
I1
I0
tp682
a(I180
F82314.042490757813
I3
I1
I0
tp683
a(I181
F82314.042490757813
I4
I1
I0
tp684
a(I182
F82730.201110875001
I3
I1
I0
tp685
a(I183
F83145.385120640625
I1
I1
I0
tp686
a(I184
F83561.543740757814
I3
I1
I0
tp687
a(I185
F83977.702360875002
I1
I1
I0
tp688
a(I186
F83977.702360875002
I2
I1
I0
tp689
a(I187
F84809.044990757815
I1
I1
I0
tp690
a(I188
F85225.203610875004
I2
I1
I0
tp691
a(I189
F85640.387620640628
I3
I0
I0
tp692
a(I190
F85640.387620640628
I4
I0
I0
tp693
a(I191
F86056.546240757816
I1
I1
I0
tp694
a(I192
F86472.704860875005
I3
I1
I0
tp695
a(I193
F86887.888870640629
I4
I1
I0
tp696
a(I194
F87304.047490757817
I1
I0
I0
tp697
a(I195
F87304.047490757817
I2
I0
I0
tp698
a(I196
F88135.39012064063
I1
I0
I0
tp699
a(I197
F88551.548740757818
I2
I0
I0
tp700
a(I198
F88967.707360875007
I1
I1
I0
tp701
a(I199
F88967.707360875007
I3
I1
I0
tp702
a(I200
F89382.891370640631
I3
I1
I0
tp703
a(I201
F89799.04999075782
I1
I0
I0
tp704
a(I202
F90215.208610875008
I3
I0
I0
tp705
a(I203
F90630.392620640632
I2
I1
I0
tp706
a(I204
F90630.392620640632
I3
I1
I0
tp707
a(I205
F91462.709860874995
I1
I0
I0
tp708
a(I206
F91877.893870640633
I2
I0
I0
tp709
a(I207
F92294.052490757807
I2
I1
I0
tp710
a(I208
F92294.052490757807
I4
I1
I0
tp711
a(I209
F92710.211110874996
I4
I1
I0
tp712
a(I210
F93125.39512064062
I3
I0
I0
tp713
a(I211
F93541.553740757809
I4
I0
I0
tp714
a(I212
F93957.712360874997
I1
I1
I0
tp715
a(I213
F93957.712360874997
I4
I1
I0
tp716
a(I214
F94789.05499075781
I2
I1
I0
tp717
a(I215
F95205.213610874998
I3
I1
I0
tp718
a(I216
F95620.397620640622
I1
I1
I0
tp719
a(I217
F95620.397620640622
I2
I1
I0
tp720
a(I218
F96036.556240757811
I4
I1
I0
tp721
a(I219
F96452.714860874999
I2
I1
I0
tp722
a(I220
F96867.898870640623
I4
I1
I0
tp723
a(I221
F97284.057490757812
I3
I1
I0
tp724
a(I222
F97284.057490757812
I4
I1
I0
tp725
a(I223
F98115.400120640625
I2
I1
I0
tp726
a(I224
F98531.558740757813
I3
I1
I0
tp727
a(I225
F98947.717360875002
I1
I1
I0
tp728
a(I226
F98947.717360875002
I2
I1
I0
tp729
a(I227
F99362.901370640626
I2
I1
I0
tp730
a(I228
F99779.059990757814
I4
I1
I0
tp731
a(I229
F100195.218610875
I1
I1
I0
tp732
a(I230
F100610.40262064063
I3
I0
I0
tp733
a(I231
F100610.40262064063
I4
I0
I0
tp734
a(I232
F101442.719860875
I2
I0
I0
tp735
a(I233
F101857.90387064063
I3
I0
I0
tp736
a(I234
F102274.06249075782
I1
I1
I0
tp737
a(I235
F102274.06249075782
I4
I1
I0
tp738
a(I236
F102690.22111087501
I4
I1
I0
tp739
a(I237
F103105.40512064063
I2
I0
I0
tp740
a(I238
F103521.56374075782
I4
I0
I0
tp741
a(I239
F103937.72236087501
I2
I1
I0
tp742
a(I240
F103937.72236087501
I4
I1
I0
tp743
a(I241
F104769.06499075782
I2
I0
I0
tp744
a(I242
F105185.22361087501
I3
I0
I0
tp745
a(I243
F105600.40762064063
I1
I1
I0
tp746
a(I244
F105600.40762064063
I3
I1
I0
tp747
a(I245
F106016.56624075782
I1
I1
I0
tp748
a(I246
F106432.72486087499
I4
I0
I0
tp749
a(I247
F106847.90887064063
I1
I0
I0
tp750
a(I248
F107264.06749075781
I2
I1
I0
tp751
a(I249
F107264.06749075781
I3
I1
I0
tp752
a(I250
F108095.41012064062
I1
I1
I0
tp753
a(I251
F108511.56874075781
I2
I1
I0
tp754
a(I252
F108927.727360875
I3
I1
I0
tp755
a(I253
F108927.727360875
I4
I1
I0
tp756
a(I254
F109342.91137064062
I3
I1
I0
tp757
a(I255
F109759.06999075781
I1
I1
I0
tp758
a(I256
F110175.228610875
I3
I1
I0
tp759
a(I257
F110590.41262064062
I1
I1
I0
tp760
a(I258
F110590.41262064062
I2
I1
I0
tp761
a(I259
F111422.729860875
I1
I1
I0
tp762
a(I260
F111837.91387064062
I2
I1
I0
tp763
a(I261
F112254.07249075781
I3
I0
I0
tp764
a(I262
F112254.07249075781
I4
I0
I0
tp765
a(I263
F112670.231110875
I1
I1
I0
tp766
a(I264
F113085.41512064062
I3
I1
I0
tp767
a(I265
F113501.57374075781
I4
I1
I0
tp768
a(I266
F113917.732360875
I1
I0
I0
tp769
a(I267
F113917.732360875
I2
I0
I0
tp770
a(I268
F114749.07499075781
I1
I0
I0
tp771
a(I269
F115165.233610875
I2
I0
I0
tp772
a(I270
F115580.41762064063
I1
I1
I0
tp773
a(I271
F115580.41762064063
I3
I1
I0
tp774
a(I272
F115996.57624075781
I3
I1
I0
tp775
a(I273
F116412.734860875
I1
I0
I0
tp776
a(I274
F116827.91887064063
I3
I0
I0
tp777
a(I275
F117244.07749075782
I2
I1
I0
tp778
a(I276
F117244.07749075782
I3
I1
I0
tp779
a(I277
F118075.42012064063
I1
I0
I0
tp780
a(I278
F118491.57874075782
I2
I0
I0
tp781
a(I279
F118907.73736087501
I2
I1
I0
tp782
a(I280
F118907.73736087501
I4
I1
I0
tp783
a(I281
F119322.92137064063
I4
I1
I0
tp784
a(I282
F119739.07999075782
I3
I0
I0
tp785
a(I283
F120155.23861087501
I4
I0
I0
tp786
a(I284
F120570.42262064063
I1
I1
I0
tp787
a(I285
F120570.42262064063
I4
I1
I0
tp788
a(I286
F121400.79064017188
I2
I1
I0
tp789
a(I287
F121808.177767125
I3
I1
I0
tp790
a(I288
F122206.79340091406
I1
I1
I0
tp791
a(I289
F122206.79340091406
I2
I1
I0
tp792
a(I290
F122596.63754153906
I4
I1
I0
tp793
a(I291
F122980.63402005468
I2
I1
I0
tp794
a(I292
F123355.85900540625
I4
I1
I0
tp795
a(I293
F123726.210939
I3
I1
I0
tp796
a(I294
F123726.210939
I4
I1
I0
tp797
a(I295
F124445.47337845313
I2
I1
I0
tp798
a(I296
F124795.35849466406
I3
I1
I0
tp799
a(I297
F125139.39594876562
I1
I1
I0
tp800
a(I298
F125139.39594876562
I2
I1
I0
tp801
a(I299
F125477.58574075782
I2
I1
I0
tp802
a(I300
F125810.90248099218
I4
I1
I0
tp803
a(I301
F126138.37155911719
I1
I1
I0
tp804
a(I302
F126460.96758548438
I3
I0
I0
tp805
a(I303
F126460.96758548438
I4
I0
I0
tp806
a(I304
F127090.56587259375
I2
I0
I0
tp807
a(I305
F127397.56813333594
I3
I0
I0
tp808
a(I306
F127700.67195267188
I1
I1
I0
tp809
a(I307
F127700.67195267188
I4
I1
I0
tp810
a(I308
F127998.90272025
I4
I1
I0
tp811
a(I309
F128293.23504642188
I2
I0
I0
tp812
a(I310
F128582.69432083594
I4
I0
I0
tp813
a(I311
F128868.25515384375
I2
I1
I0
tp814
a(I312
F128868.25515384375
I4
I1
I0
tp815
a(I313
F129428.6561059922
I2
I0
I0
tp816
a(I314
F129702.52161478125
I3
I0
I0
tp817
a(I315
F129973.46329251563
I1
I1
I0
tp818
a(I316
F129973.46329251563
I3
I1
I0
tp819
a(I317
F130240.50652884375
I1
I1
I0
tp820
a(I318
F130503.65132376563
I4
I0
I0
tp821
a(I319
F130763.87228763281
I1
I0
I0
tp822
a(I320
F131021.16942044529
I2
I1
I0
tp823
a(I321
F131021.16942044529
I3
I1
I0
tp824
a(I322
F131463.64252005468
I1
I0
I0
tp825
aa.