(lp1
(lp2
(I0
F180
I1
I0
I0
tp3
a(I1
F1022.90625
I3
I0
I0
tp4
a(I2
F1951.6640625
I2
I0
I0
tp5
a(I3
F2875.5439453125
I4
I0
I0
tp6
a(I4
F3794.5458984375
I1
I1
I0
tp7
a(I5
F4703.7919921875
I3
I1
I0
tp8
a(I6
F5609.1357421875
I2
I1
I0
tp9
a(I7
F6507.650390625
I4
I1
I0
tp10
a(I8
F7397.384765625
I3
I0
I0
tp11
a(I9
F8277.36328125
I4
I0
I0
tp12
a(I10
F9145.634765625
I1
I0
I0
tp13
a(I11
F9145.634765625
I2
I0
I0
tp14
a(I12
F10869.4951171875
I1
I1
I0
tp15
a(I13
F11721.181640625
I2
I1
I0
tp16
a(I14
F12568.9658203125
I3
I1
I0
tp17
a(I15
F12568.9658203125
I4
I1
I0
tp18
a(I16
F14245.0224609375
I3
I0
I0
tp19
a(I17
F15068.4169921875
I2
I0
I0
tp20
a(I18
F15884.0068359375
I4
I0
I0
tp21
a(I19
F16692.767578125
I1
I0
I0
tp22
a(I20
F17495.6748046875
I3
I1
I0
tp23
a(I21
F18292.728515625
I2
I1
I0
tp24
a(I22
F19083.9287109375
I4
I1
I0
tp25
a(I23
F19868.2998046875
I1
I1
I0
tp26
a(I24
F20647.79296875
I1
I0
I0
tp27
a(I25
F21416.5546875
I2
I0
I0
tp28
a(I26
F22177.51171875
I3
I0
I0
tp29
a(I27
F22558.9658203125
I3
I0
I0
tp30
a(I28
F22935.5419921875
I4
I0
I0
tp31
a(I29
F23312.1181640625
I4
I0
I0
tp32
a(I30
F23689.669921875
I1
I1
I0
tp33
a(I31
F24436.96875
I2
I1
I0
tp34
a(I32
F25182.31640625
I3
I1
I0
tp35
a(I33
F25552.0634765625
I3
I1
I0
tp36
a(I34
F25922.7861328125
I4
I1
I0
tp37
a(I35
F26290.58203125
I4
I1
I0
tp38
a(I36
F26657.40234375
I1
I0
I0
tp39
a(I37
F27384.2138671875
I3
I0
I0
tp40
a(I38
F28104.1962890625
I2
I0
I0
tp41
a(I39
F28821.251953125
I4
I0
I0
tp42
a(I40
F29535.380859375
I1
I1
I0
tp43
a(I41
F30242.6806640625
I3
I1
I0
tp44
a(I42
F30949.0048828125
I2
I1
I0
tp45
a(I43
F31649.4755859375
I4
I1
I0
tp46
a(I44
F32346.043945312504
I3
I0
I0
tp47
a(I45
F33035.783203125
I4
I0
I0
tp48
a(I46
F33718.693359375
I1
I0
I0
tp49
a(I47
F33718.693359375
I2
I0
I0
tp50
a(I48
F35076.708984375
I1
I1
I0
tp51
a(I49
F35748.8876953125
I2
I1
I0
tp52
a(I50
F36419.115234375
I3
I1
I0
tp53
a(I51
F36419.115234375
I4
I1
I0
tp54
a(I52
F37746.8876953125
I3
I0
I0
tp55
a(I53
F38402.4814453125
I2
I0
I0
tp56
a(I54
F39052.2216796875
I4
I0
I0
tp57
a(I55
F39700.0107421875
I1
I0
I0
tp58
a(I56
F40343.8974609375
I3
I1
I0
tp59
a(I57
F40983.8818359375
I2
I1
I0
tp60
a(I58
F41621.9150390625
I4
I1
I0
tp61
a(I59
F42256.0458984375
I1
I1
I0
tp62
a(I60
F42887.25
I1
I0
I0
tp63
a(I61
F43511.625
I2
I0
I0
tp64
a(I62
F44131.1220703125
I3
I0
I0
tp65
a(I63
F44441.3583984375
I3
I0
I0
tp66
a(I64
F44748.66796875
I4
I0
I0
tp67
a(I65
F45055.9775390625
I4
I0
I0
tp68
a(I66
F45363.287109375
I1
I1
I0
tp69
a(I67
F45974.00390625
I2
I1
I0
tp70
a(I68
F46582.76953125
I3
I1
I0
tp71
a(I69
F46886.1767578125
I3
I1
I0
tp72
a(I70
F47188.6083984375
I4
I1
I0
tp73
a(I71
F47490.064453125
I4
I1
I0
tp74
a(I72
F47790.544921875
I1
I0
I0
tp75
a(I73
F48387.603515625
I3
I0
I0
tp76
a(I74
F48979.7841796875
I2
I0
I0
tp77
a(I75
F49569.0380859375
I4
I0
I0
tp78
a(I76
F50157.31640625
I1
I1
I0
tp79
a(I77
F50740.716796875
I3
I1
I0
tp80
a(I78
F51323.1416015625
I2
I1
I0
tp81
a(I79
F51902.6396484375
I4
I1
I0
tp82
a(I80
F52478.2353515625
I3
I0
I0
tp83
a(I81
F53049.9287109375
I4
I0
I0
tp84
a(I82
F53616.744140625
I1
I0
I0
tp85
a(I83
F53616.744140625
I2
I0
I0
tp86
a(I84
F54744.521484375
I1
I1
I0
tp87
a(I85
F55303.5322265625
I2
I1
I0
tp88
a(I86
F55861.5673828125
I3
I1
I0
tp89
a(I87
F55861.5673828125
I4
I1
I0
tp90
a(I88
F56968.857421875
I3
I0
I0
tp91
a(I89
F57516.1611328125
I2
I0
I0
tp92
a(I90
F58059.5625
I4
I0
I0
tp93
a(I91
F58601.98828125
I1
I0
I0
tp94
a(I92
F59141.4873046875
I3
I1
I0
tp95
a(I93
F59679.03515625
I2
I1
I0
tp96
a(I94
F60213.65625
I4
I1
I0
tp97
a(I95
F60747.3017578125
I1
I1
I0
tp98
a(I96
F61277.044921875
I1
I0
I0
tp99
a(I97
F61802.8857421875
I2
I0
I0
tp100
a(I98
F62325.7998046875
I3
I0
I0
tp101
a(I99
F62587.2568359375
I3
I0
I0
tp102
a(I100
F62846.7626953125
I4
I0
I0
tp103
a(I101
F63106.2685546875
I4
I0
I0
tp104
a(I102
F63364.798828125
I1
I1
I0
tp105
a(I103
F63880.8837890625
I2
I1
I0
tp106
a(I104
F64395.993164062493
I3
I1
I0
tp107
a(I105
F64652.572265625007
I3
I1
I0
tp108
a(I106
F64908.17578125
I4
I1
I0
tp109
a(I107
F65163.779296875
I4
I1
I0
tp110
a(I108
F65418.4072265625
I1
I0
I0
tp111
a(I109
F65673.03515625
I3
I0
I0
tp112
a(I110
F65799.861328125
I4
I0
I0
tp113
a(I111
F65927.6630859375
I2
I0
I0
tp114
a(I112
F66435.943359375
I3
I0
I0
tp115
a(I113
F66945.19921875
I2
I0
I0
tp116
a(I114
F67454.455078125
I1
I1
I0
tp117
a(I115
F67709.0830078125
I3
I1
I0
tp118
a(I116
F67835.9091796875
I4
I1
I0
tp119
a(I117
F67963.7109375
I2
I1
I0
tp120
a(I118
F68472.966796875
I2
I1
I0
tp121
a(I119
F68981.2470703125
I3
I1
I0
tp122
a(I120
F69490.5029296875
I1
I0
I0
tp123
a(I121
F69745.130859375
I3
I0
I0
tp124
a(I122
F69871.95703125
I4
I0
I0
tp125
a(I123
F69999.7587890625
I2
I0
I0
tp126
a(I124
F70509.0146484375
I3
I0
I0
tp127
a(I125
F71017.294921875
I2
I0
I0
tp128
a(I126
F71526.55078125
I1
I1
I0
tp129
a(I127
F71781.1787109375
I3
I1
I0
tp130
a(I128
F71908.98046875
I4
I1
I0
tp131
a(I129
F72035.806640625
I2
I1
I0
tp132
a(I130
F72545.0625
I2
I1
I0
tp133
a(I131
F73054.318359375
I3
I1
I0
tp134
a(I132
F73562.5986328125
I1
I0
I0
tp135
a(I133
F74071.8544921875
I3
I0
I0
tp136
a(I134
F74581.1103515625
I2
I0
I0
tp137
a(I135
F75090.3662109375
I4
I0
I0
tp138
a(I136
F75598.646484375
I1
I1
I0
tp139
a(I137
F76107.90234375
I3
I1
I0
tp140
a(I138
F76617.158203125
I2
I1
I0
tp141
a(I139
F77126.4140625
I4
I1
I0
tp142
a(I140
F77635.669921875
I1
I0
I0
tp143
a(I141
F78143.9501953125
I3
I0
I0
tp144
a(I142
F78653.2060546875
I2
I0
I0
tp145
a(I143
F79162.4619140625
I4
I0
I0
tp146
a(I144
F79671.7177734375
I1
I1
I0
tp147
a(I145
F80180.9736328125
I3
I1
I0
tp148
a(I146
F80689.25390625
I2
I1
I0
tp149
a(I147
F81198.509765625
I4
I1
I0
tp150
a(I148
F81707.765625
I3
I0
I0
tp151
a(I149
F82217.021484375
I2
I0
I0
tp152
a(I150
F82725.3017578125
I4
I0
I0
tp153
a(I151
F83234.5576171875
I1
I0
I0
tp154
a(I152
F83743.8134765625
I3
I1
I0
tp155
a(I153
F84253.0693359375
I2
I1
I0
tp156
a(I154
F84762.3251953125
I4
I1
I0
tp157
a(I155
F85270.60546875
I1
I1
I0
tp158
a(I156
F85779.861328125
I3
I0
I0
tp159
a(I157
F86289.1171875
I2
I0
I0
tp160
a(I158
F86798.373046875
I4
I0
I0
tp161
a(I159
F87307.62890625
I1
I0
I0
tp162
a(I160
F87815.9091796875
I3
I1
I0
tp163
a(I161
F88325.1650390625
I2
I1
I0
tp164
a(I162
F88834.4208984375
I4
I1
I0
tp165
a(I163
F89343.6767578125
I1
I1
I0
tp166
a(I164
F92533.515625
I3
I1
I0
tp167
a(I165
F93410.46875
I4
I1
I0
tp168
a(I166
F94211.25
I1
I1
I0
tp169
a(I167
F95011.0546875
I2
I1
I0
tp170
a(I168
F95810.859375
I3
I1
I0
tp171
a(I169
F96610.6640625
I4
I1
I0
tp172
a(I170
F97410.46875
I1
I1
I0
tp173
a(I171
F98211.25
I2
I1
I0
tp174
a(I172
F99011.0546875
I4
I0
I0
tp175
a(I173
F99810.859375
I2
I0
I0
tp176
a(I174
F100610.6640625
I3
I0
I0
tp177
a(I175
F101011.0546875
I1
I0
I0
tp178
a(I176
F101410.46875
I3
I0
I0
tp179
a(I177
F102211.25
I3
I1
I0
tp180
a(I178
F103011.0546875
I4
I1
I0
tp181
a(I179
F103810.859375
I1
I1
I0
tp182
a(I180
F104610.6640625
I2
I1
I0
tp183
a(I181
F105410.46875
I3
I1
I0
tp184
a(I182
F106211.25
I2
I1
I0
tp185
a(I183
F107011.0546875
I2
I1
I0
tp186
a(I184
F107810.859375
I1
I1
I0
tp187
a(I185
F108610.6640625
I2
I0
I0
tp188
a(I186
F109410.46875
I1
I0
I0
tp189
a(I187
F110211.25
I3
I0
I0
tp190
a(I188
F110211.25
I4
I0
I0
tp191
a(I189
F111011.0546875
I3
I1
I0
tp192
a(I190
F111011.0546875
I4
I1
I0
tp193
a(I191
F111810.859375
I3
I1
I0
tp194
a(I192
F112610.6640625
I4
I1
I0
tp195
a(I193
F113410.46875
I1
I1
I0
tp196
a(I194
F114211.25
I2
I1
I0
tp197
a(I195
F115011.0546875
I3
I1
I0
tp198
a(I196
F115810.859375
I4
I1
I0
tp199
a(I197
F116610.6640625
I1
I1
I0
tp200
a(I198
F117410.46875
I2
I1
I0
tp201
a(I199
F118211.25
I4
I0
I0
tp202
a(I200
F119011.0546875
I2
I0
I0
tp203
a(I201
F119810.859375
I3
I0
I0
tp204
a(I202
F120211.25
I1
I0
I0
tp205
a(I203
F120610.6640625
I3
I0
I0
tp206
a(I204
F121410.46875
I3
I1
I0
tp207
a(I205
F122211.25
I4
I1
I0
tp208
a(I206
F123011.0546875
I1
I1
I0
tp209
a(I207
F123810.859375
I2
I1
I0
tp210
a(I208
F124610.6640625
I3
I1
I0
tp211
a(I209
F125410.46875
I2
I1
I0
tp212
a(I210
F126211.25
I2
I1
I0
tp213
a(I211
F127011.0546875
I1
I1
I0
tp214
a(I212
F127810.859375
I2
I0
I0
tp215
a(I213
F128610.6640625
I1
I0
I0
tp216
a(I214
F129410.46875
I3
I0
I0
tp217
a(I215
F129410.46875
I4
I0
I0
tp218
a(I216
F130211.25
I3
I1
I0
tp219
a(I217
F130211.25
I4
I1
I0
tp220
aa(lp221
(I0
F180
I1
I0
I0
tp222
a(I1
F552.673828125
I3
I0
I0
tp223
a(I2
F787.7900390625
I4
I0
I0
tp224
a(I3
F1022.90625
I2
I0
I0
tp225
a(I4
F1951.6640625
I3
I0
I0
tp226
a(I5
F2875.5439453125
I2
I0
I0
tp227
a(I6
F3794.5458984375
I1
I1
I0
tp228
a(I7
F4250.14453125
I3
I1
I0
tp229
a(I8
F4476.48046875
I4
I1
I0
tp230
a(I9
F4703.7919921875
I2
I1
I0
tp231
a(I10
F5157.439453125
I3
I1
I0
tp232
a(I11
F5609.1357421875
I2
I1
I0
tp233
a(I12
F6507.650390625
I3
I1
I0
tp234
a(I13
F7397.384765625
I1
I0
I0
tp235
a(I14
F7838.349609375
I2
I0
I0
tp236
a(I15
F8277.36328125
I3
I0
I0
tp237
a(I16
F8277.36328125
I4
I0
I0
tp238
a(I17
F8711.4990234375
I1
I0
I0
tp239
a(I18
F8711.4990234375
I2
I0
I0
tp240
a(I19
F9145.634765625
I3
I0
I0
tp241
a(I20
F9145.634765625
I4
I0
I0
tp242
a(I21
F10010.00390625
I2
I0
I0
tp243
a(I22
F10869.4951171875
I3
I1
I0
tp244
a(I23
F11295.826171875
I4
I1
I0
tp245
a(I24
F11721.181640625
I1
I1
I0
tp246
a(I25
F11721.181640625
I2
I1
I0
tp247
a(I26
F12145.5615234375
I3
I1
I0
tp248
a(I27
F12145.5615234375
I4
I1
I0
tp249
a(I28
F12568.9658203125
I1
I1
I0
tp250
a(I29
F12568.9658203125
I2
I1
I0
tp251
a(I30
F13409.9208984375
I3
I1
I0
tp252
a(I31
F14245.0224609375
I1
I0
I0
tp253
a(I32
F14657.6953125
I3
I0
I0
tp254
a(I33
F14863.5439453125
I2
I0
I0
tp255
a(I34
F15068.4169921875
I4
I0
I0
tp256
a(I35
F15476.2119140625
I1
I0
I0
tp257
a(I36
F15884.0068359375
I3
I0
I0
tp258
a(I37
F16288.875000000002
I2
I0
I0
tp259
a(I38
F16692.767578125
I4
I0
I0
tp260
a(I39
F17495.6748046875
I1
I1
I0
tp261
a(I40
F17895.6650390625
I3
I1
I0
tp262
a(I41
F18094.6845703125
I2
I1
I0
tp263
a(I42
F18292.728515625
I4
I1
I0
tp264
a(I43
F18688.81640625
I1
I1
I0
tp265
a(I44
F19083.9287109375
I3
I1
I0
tp266
a(I45
F19477.08984375
I2
I1
I0
tp267
a(I46
F19868.2998046875
I4
I1
I0
tp268
a(I47
F20647.79296875
I3
I1
I0
tp269
a(I48
F21032.173828125
I4
I1
I0
tp270
a(I49
F21224.3642578125
I2
I1
I0
tp271
a(I50
F21416.5546875
I1
I1
I0
tp272
a(I51
F22177.51171875
I1
I1
I0
tp273
a(I52
F22177.51171875
I4
I1
I0
tp274
a(I53
F22935.5419921875
I3
I1
I0
tp275
a(I54
F23312.1181640625
I4
I1
I0
tp276
a(I55
F23689.669921875
I3
I0
I0
tp277
a(I56
F24063.3193359375
I4
I0
I0
tp278
a(I57
F24250.6318359375
I2
I0
I0
tp279
a(I58
F24436.96875
I1
I0
I0
tp280
a(I59
F25182.31640625
I2
I0
I0
tp281
a(I60
F25182.31640625
I3
I0
I0
tp282
a(I61
F25922.7861328125
I3
I0
I0
tp283
a(I62
F26657.40234375
I1
I0
I0
tp284
a(I63
F27021.2958984375
I3
I0
I0
tp285
a(I64
F27202.7548828125
I4
I0
I0
tp286
a(I65
F27384.2138671875
I2
I0
I0
tp287
a(I66
F28104.1962890625
I3
I0
I0
tp288
a(I67
F28821.251953125
I2
I0
I0
tp289
a(I68
F29535.380859375
I1
I1
I0
tp290
a(I69
F29889.5185546875
I3
I1
I0
tp291
a(I70
F30066.099609375
I4
I1
I0
tp292
a(I71
F30242.6806640625
I2
I1
I0
tp293
a(I72
F30596.818359375
I3
I1
I0
tp294
a(I73
F30949.0048828125
I2
I1
I0
tp295
a(I74
F31649.4755859375
I3
I1
I0
tp296
a(I75
F32346.043945312504
I1
I0
I0
tp297
a(I76
F32691.401367187504
I2
I0
I0
tp298
a(I77
F33035.783203125
I3
I0
I0
tp299
a(I78
F33035.783203125
I4
I0
I0
tp300
a(I79
F33377.23828125
I1
I0
I0
tp301
a(I80
F33377.23828125
I2
I0
I0
tp302
a(I81
F33718.693359375
I3
I0
I0
tp303
a(I82
F33718.693359375
I4
I0
I0
tp304
a(I83
F34399.65234375
I2
I0
I0
tp305
a(I84
F35076.708984375
I3
I1
I0
tp306
a(I85
F35413.2861328125
I4
I1
I0
tp307
a(I86
F35748.8876953125
I1
I1
I0
tp308
a(I87
F35748.8876953125
I2
I1
I0
tp309
a(I88
F36084.4892578125
I3
I1
I0
tp310
a(I89
F36084.4892578125
I4
I1
I0
tp311
a(I90
F36419.115234375
I1
I1
I0
tp312
a(I91
F36419.115234375
I2
I1
I0
tp313
a(I92
F37085.4404296875
I3
I1
I0
tp314
a(I93
F37746.8876953125
I1
I0
I0
tp315
a(I94
F38074.6845703125
I3
I0
I0
tp316
a(I95
F38238.5830078125
I2
I0
I0
tp317
a(I96
F38402.4814453125
I4
I0
I0
tp318
a(I97
F38727.3515625
I1
I0
I0
tp319
a(I98
F39052.2216796875
I3
I0
I0
tp320
a(I99
F39377.091796875
I2
I0
I0
tp321
a(I100
F39700.0107421875
I4
I0
I0
tp322
a(I101
F40343.8974609375
I1
I1
I0
tp323
a(I102
F40664.865234375
I3
I1
I0
tp324
a(I103
F40823.8857421875
I2
I1
I0
tp325
a(I104
F40983.8818359375
I4
I1
I0
tp326
a(I105
F41303.8740234375
I1
I1
I0
tp327
a(I106
F41621.9150390625
I3
I1
I0
tp328
a(I107
F41938.98046875
I2
I1
I0
tp329
a(I108
F42256.0458984375
I4
I1
I0
tp330
a(I109
F42887.25
I3
I1
I0
tp331
a(I110
F43199.4375
I4
I1
I0
tp332
a(I111
F43355.53125
I2
I1
I0
tp333
a(I112
F43511.625
I1
I1
I0
tp334
a(I113
F44131.1220703125
I1
I1
I0
tp335
a(I114
F44131.1220703125
I4
I1
I0
tp336
a(I115
F44748.66796875
I3
I1
I0
tp337
a(I116
F45055.9775390625
I4
I1
I0
tp338
a(I117
F45363.287109375
I3
I0
I0
tp339
a(I118
F45668.6455078125
I4
I0
I0
tp340
a(I119
F45821.8125
I2
I0
I0
tp341
a(I120
F45974.00390625
I1
I0
I0
tp342
a(I121
F46582.76953125
I2
I0
I0
tp343
a(I122
F46582.76953125
I3
I0
I0
tp344
a(I123
F47188.6083984375
I3
I0
I0
tp345
a(I124
F47790.544921875
I1
I0
I0
tp346
a(I125
F48089.07421875
I3
I0
I0
tp347
a(I126
F48238.3388671875
I4
I0
I0
tp348
a(I127
F48387.603515625
I2
I0
I0
tp349
a(I128
F48979.7841796875
I3
I0
I0
tp350
a(I129
F49569.0380859375
I2
I0
I0
tp351
a(I130
F50157.31640625
I1
I1
I0
tp352
a(I131
F50449.0166015625
I3
I1
I0
tp353
a(I132
F50595.3544921875
I4
I1
I0
tp354
a(I133
F50740.716796875
I2
I1
I0
tp355
a(I134
F51032.4169921875
I3
I1
I0
tp356
a(I135
F51323.1416015625
I2
I1
I0
tp357
a(I136
F51902.6396484375
I3
I1
I0
tp358
a(I137
F52478.2353515625
I1
I0
I0
tp359
a(I138
F52764.08203125
I2
I0
I0
tp360
a(I139
F53049.9287109375
I3
I0
I0
tp361
a(I140
F53049.9287109375
I4
I0
I0
tp362
a(I141
F53332.8486328125
I1
I0
I0
tp363
a(I142
F53332.8486328125
I2
I0
I0
tp364
a(I143
F53616.744140625
I3
I0
I0
tp365
a(I144
F53616.744140625
I4
I0
I0
tp366
a(I145
F54181.6083984375
I2
I0
I0
tp367
a(I146
F54744.521484375
I3
I1
I0
tp368
a(I147
F55023.5390625
I4
I1
I0
tp369
a(I148
F55303.5322265625
I1
I1
I0
tp370
a(I149
F55303.5322265625
I2
I1
I0
tp371
a(I150
F55582.5498046875
I3
I1
I0
tp372
a(I151
F55582.5498046875
I4
I1
I0
tp373
a(I152
F55861.5673828125
I1
I1
I0
tp374
a(I153
F55861.5673828125
I2
I1
I0
tp375
a(I154
F56416.67578125
I3
I1
I0
tp376
a(I155
F56968.857421875
I1
I0
I0
tp377
a(I156
F57242.9970703125
I3
I0
I0
tp378
a(I157
F57516.1611328125
I4
I0
I0
tp379
a(I158
F58059.5625
I3
I0
I0
tp380
a(I159
F58331.7509765625
I2
I0
I0
tp381
a(I160
F58601.98828125
I4
I0
I0
tp382
a(I161
F59141.4873046875
I1
I1
I0
tp383
a(I162
F59410.7490234375
I3
I1
I0
tp384
a(I163
F59679.03515625
I4
I1
I0
tp385
a(I164
F59947.3212890625
I1
I1
I0
tp386
a(I165
F60213.65625
I3
I1
I0
tp387
a(I166
F60480.966796875
I2
I1
I0
tp388
a(I167
F60747.3017578125
I4
I1
I0
tp389
a(I168
F61277.044921875
I3
I1
I0
tp390
a(I169
F61540.453125
I4
I1
I0
tp391
a(I170
F61802.8857421875
I1
I1
I0
tp392
a(I171
F62325.7998046875
I1
I1
I0
tp393
a(I172
F62325.7998046875
I4
I1
I0
tp394
a(I173
F62846.7626953125
I3
I1
I0
tp395
a(I174
F63106.2685546875
I4
I1
I0
tp396
a(I175
F63364.798828125
I3
I0
I0
tp397
a(I176
F63623.3291015625
I4
I0
I0
tp398
a(I177
F63880.8837890625
I1
I0
I0
tp399
a(I178
F64395.993164062493
I2
I0
I0
tp400
a(I179
F64395.993164062493
I3
I0
I0
tp401
a(I180
F64908.17578125
I3
I0
I0
tp402
a(I181
F65418.4072265625
I1
I0
I0
tp403
a(I182
F65673.03515625
I3
I0
I0
tp404
a(I183
F65799.861328125
I4
I0
I0
tp405
a(I184
F65927.6630859375
I2
I0
I0
tp406
a(I185
F66182.291015625
I1
I1
I0
tp407
a(I186
F66435.943359375
I3
I0
I0
tp408
a(I187
F66945.19921875
I2
I0
I0
tp409
a(I188
F67454.455078125
I1
I1
I0
tp410
a(I189
F67709.0830078125
I3
I1
I0
tp411
a(I190
F67835.9091796875
I4
I1
I0
tp412
a(I191
F67963.7109375
I2
I1
I0
tp413
a(I192
F68218.3388671875
I3
I1
I0
tp414
a(I193
F68472.966796875
I2
I1
I0
tp415
a(I194
F68981.2470703125
I3
I1
I0
tp416
a(I195
F69490.5029296875
I1
I0
I0
tp417
a(I196
F69745.130859375
I3
I0
I0
tp418
a(I197
F69871.95703125
I4
I0
I0
tp419
a(I198
F69999.7587890625
I2
I0
I0
tp420
a(I199
F70254.38671875
I1
I1
I0
tp421
a(I200
F70509.0146484375
I3
I0
I0
tp422
a(I201
F71017.294921875
I2
I0
I0
tp423
a(I202
F71526.55078125
I1
I1
I0
tp424
a(I203
F71781.1787109375
I3
I1
I0
tp425
a(I204
F71908.98046875
I4
I1
I0
tp426
a(I205
F72035.806640625
I2
I1
I0
tp427
a(I206
F72290.4345703125
I3
I1
I0
tp428
a(I207
F72545.0625
I2
I1
I0
tp429
a(I208
F73054.318359375
I3
I1
I0
tp430
a(I209
F73562.5986328125
I1
I0
I0
tp431
a(I210
F74071.8544921875
I3
I0
I0
tp432
a(I211
F74581.1103515625
I2
I0
I0
tp433
a(I212
F75090.3662109375
I4
I0
I0
tp434
a(I213
F75598.646484375
I1
I1
I0
tp435
a(I214
F76107.90234375
I3
I1
I0
tp436
a(I215
F76617.158203125
I2
I1
I0
tp437
a(I216
F77126.4140625
I4
I1
I0
tp438
a(I217
F77635.669921875
I1
I0
I0
tp439
a(I218
F78143.9501953125
I3
I0
I0
tp440
a(I219
F78653.2060546875
I2
I0
I0
tp441
a(I220
F79162.4619140625
I4
I0
I0
tp442
a(I221
F79671.7177734375
I1
I1
I0
tp443
a(I222
F80180.9736328125
I3
I1
I0
tp444
a(I223
F80689.25390625
I2
I1
I0
tp445
a(I224
F81198.509765625
I4
I1
I0
tp446
a(I225
F81707.765625
I1
I0
I0
tp447
a(I226
F81962.3935546875
I3
I0
I0
tp448
a(I227
F82089.2197265625
I2
I0
I0
tp449
a(I228
F82217.021484375
I4
I0
I0
tp450
a(I229
F82471.6494140625
I1
I0
I0
tp451
a(I230
F82725.3017578125
I3
I0
I0
tp452
a(I231
F82979.9296875
I2
I0
I0
tp453
a(I232
F83234.5576171875
I4
I0
I0
tp454
a(I233
F83743.8134765625
I1
I1
I0
tp455
a(I234
F83998.44140625
I3
I1
I0
tp456
a(I235
F84125.267578125
I2
I1
I0
tp457
a(I236
F84253.0693359375
I4
I1
I0
tp458
a(I237
F84507.697265625
I1
I1
I0
tp459
a(I238
F84762.3251953125
I3
I1
I0
tp460
a(I239
F85015.9775390625
I2
I1
I0
tp461
a(I240
F85270.60546875
I4
I1
I0
tp462
a(I241
F85779.861328125
I1
I0
I0
tp463
a(I242
F86034.4892578125
I3
I0
I0
tp464
a(I243
F86162.291015625
I2
I0
I0
tp465
a(I244
F86289.1171875
I4
I0
I0
tp466
a(I245
F86543.7451171875
I1
I0
I0
tp467
a(I246
F86798.373046875
I3
I0
I0
tp468
a(I247
F87053.0009765625
I2
I0
I0
tp469
a(I248
F87307.62890625
I4
I0
I0
tp470
a(I249
F87815.9091796875
I1
I1
I0
tp471
a(I250
F88070.537109375
I3
I1
I0
tp472
a(I251
F88198.3388671875
I2
I1
I0
tp473
a(I252
F88325.1650390625
I4
I1
I0
tp474
a(I253
F88579.79296875
I1
I1
I0
tp475
a(I254
F88834.4208984375
I3
I1
I0
tp476
a(I255
F89089.048828125
I2
I1
I0
tp477
a(I256
F89343.6767578125
I4
I1
I0
tp478
a(I257
F92533.515625
I3
I1
I0
tp479
a(I258
F93410.46875
I4
I1
I0
tp480
a(I259
F94211.25
I1
I1
I0
tp481
a(I260
F95011.0546875
I2
I1
I0
tp482
a(I261
F95810.859375
I3
I1
I0
tp483
a(I262
F96610.6640625
I4
I1
I0
tp484
a(I263
F97410.46875
I1
I1
I0
tp485
a(I264
F98211.25
I2
I1
I0
tp486
a(I265
F99011.0546875
I4
I0
I0
tp487
a(I266
F99810.859375
I2
I0
I0
tp488
a(I267
F100610.6640625
I3
I0
I0
tp489
a(I268
F101011.0546875
I1
I0
I0
tp490
a(I269
F101410.46875
I3
I0
I0
tp491
a(I270
F102211.25
I3
I1
I0
tp492
a(I271
F103011.0546875
I4
I1
I0
tp493
a(I272
F103810.859375
I1
I1
I0
tp494
a(I273
F104610.6640625
I2
I1
I0
tp495
a(I274
F105410.46875
I3
I1
I0
tp496
a(I275
F106211.25
I2
I1
I0
tp497
a(I276
F107011.0546875
I2
I1
I0
tp498
a(I277
F107810.859375
I1
I1
I0
tp499
a(I278
F108610.6640625
I2
I0
I0
tp500
a(I279
F109410.46875
I1
I0
I0
tp501
a(I280
F110211.25
I3
I0
I0
tp502
a(I281
F110211.25
I4
I0
I0
tp503
a(I282
F111011.0546875
I3
I1
I0
tp504
a(I283
F111011.0546875
I4
I1
I0
tp505
a(I284
F111810.859375
I3
I1
I0
tp506
a(I285
F112610.6640625
I4
I1
I0
tp507
a(I286
F113410.46875
I1
I1
I0
tp508
a(I287
F114211.25
I2
I1
I0
tp509
a(I288
F115011.0546875
I3
I1
I0
tp510
a(I289
F115810.859375
I4
I1
I0
tp511
a(I290
F116610.6640625
I1
I1
I0
tp512
a(I291
F117410.46875
I2
I1
I0
tp513
a(I292
F118211.25
I4
I0
I0
tp514
a(I293
F119011.0546875
I2
I0
I0
tp515
a(I294
F119810.859375
I3
I0
I0
tp516
a(I295
F120211.25
I1
I0
I0
tp517
a(I296
F120610.6640625
I3
I0
I0
tp518
a(I297
F121410.46875
I3
I1
I0
tp519
a(I298
F122211.25
I4
I1
I0
tp520
a(I299
F123011.0546875
I1
I1
I0
tp521
a(I300
F123810.859375
I2
I1
I0
tp522
a(I301
F124610.6640625
I3
I1
I0
tp523
a(I302
F125410.46875
I2
I1
I0
tp524
a(I303
F126211.25
I2
I1
I0
tp525
a(I304
F127011.0546875
I1
I1
I0
tp526
a(I305
F127810.859375
I2
I0
I0
tp527
a(I306
F128610.6640625
I1
I0
I0
tp528
a(I307
F129410.46875
I3
I0
I0
tp529
a(I308
F129410.46875
I4
I0
I0
tp530
a(I309
F130211.25
I3
I1
I0
tp531
a(I310
F130211.25
I4
I1
I0
tp532
aa(lp533
(I0
F180
I2
I0
I0
tp534
a(I1
F317.5576171875
I3
I1
I0
tp535
a(I2
F552.673828125
I4
I0
I0
tp536
a(I3
F787.7900390625
I3
I1
I0
tp537
a(I4
F1022.90625
I1
I0
I0
tp538
a(I5
F1255.095703125
I2
I1
I0
tp539
a(I6
F1487.28515625
I1
I0
I0
tp540
a(I7
F1951.6640625
I3
I0
I0
tp541
a(I8
F2183.853515625
I4
I1
I0
tp542
a(I9
F2416.04296875
I3
I0
I0
tp543
a(I10
F2875.5439453125
I1
I1
I0
tp544
a(I11
F3105.7822265625
I2
I1
I0
tp545
a(I12
F3335.044921875
I1
I0
I0
tp546
a(I13
F3794.5458984375
I2
I0
I0
tp547
a(I14
F4022.8330078125
I3
I1
I0
tp548
a(I15
F4250.14453125
I4
I0
I0
tp549
a(I16
F4476.48046875
I3
I1
I0
tp550
a(I17
F4703.7919921875
I1
I0
I0
tp551
a(I18
F4931.103515625
I2
I1
I0
tp552
a(I19
F5157.439453125
I1
I1
I0
tp553
a(I20
F5384.7509765625
I2
I1
I0
tp554
a(I21
F5609.1357421875
I4
I1
I0
tp555
a(I22
F5833.5205078125
I3
I1
I0
tp556
a(I23
F6057.9052734375
I2
I0
I0
tp557
a(I24
F6283.265625
I1
I1
I0
tp558
a(I25
F6507.650390625
I3
I0
I0
tp559
a(I26
F6507.650390625
I4
I0
I0
tp560
a(I27
F7397.384765625
I2
I0
I0
tp561
a(I28
F7618.8427734375
I3
I0
I0
tp562
a(I29
F7838.349609375
I4
I0
I0
tp563
a(I30
F8057.8564453125
I3
I0
I0
tp564
a(I31
F8277.36328125
I1
I0
I0
tp565
a(I32
F8494.9189453125
I2
I0
I0
tp566
a(I33
F8711.4990234375
I3
I0
I0
tp567
a(I34
F8711.4990234375
I4
I0
I0
tp568
a(I35
F9145.634765625
I1
I0
I0
tp569
a(I36
F9145.634765625
I2
I0
I0
tp570
a(I37
F9580.74609375
I3
I0
I0
tp571
a(I38
F9580.74609375
I4
I0
I0
tp572
a(I39
F10010.00390625
I1
I0
I0
tp573
a(I40
F10010.00390625
I2
I0
I0
tp574
a(I41
F10869.4951171875
I2
I1
I0
tp575
a(I42
F11083.1484375
I3
I1
I0
tp576
a(I43
F11295.826171875
I4
I1
I0
tp577
a(I44
F11508.50390625
I3
I1
I0
tp578
a(I45
F11721.181640625
I1
I1
I0
tp579
a(I46
F11932.8837890625
I2
I1
I0
tp580
a(I47
F12145.5615234375
I3
I1
I0
tp581
a(I48
F12145.5615234375
I4
I1
I0
tp582
a(I49
F12568.9658203125
I1
I1
I0
tp583
a(I50
F12568.9658203125
I2
I1
I0
tp584
a(I51
F12989.443359375
I3
I1
I0
tp585
a(I52
F12989.443359375
I4
I1
I0
tp586
a(I53
F13409.9208984375
I1
I1
I0
tp587
a(I54
F13409.9208984375
I2
I1
I0
tp588
a(I55
F14245.0224609375
I1
I0
I0
tp589
a(I56
F14451.8466796875
I3
I0
I0
tp590
a(I57
F14657.6953125
I2
I0
I0
tp591
a(I58
F14863.5439453125
I4
I0
I0
tp592
a(I59
F15068.4169921875
I1
I1
I0
tp593
a(I60
F15272.314453125
I3
I1
I0
tp594
a(I61
F15476.2119140625
I2
I1
I0
tp595
a(I62
F15884.0068359375
I4
I1
I0
tp596
a(I63
F16086.9287109375
I1
I0
I0
tp597
a(I64
F16288.875000000002
I3
I0
I0
tp598
a(I65
F16692.767578125
I2
I0
I0
tp599
a(I66
F16893.73828125
I4
I0
I0
tp600
a(I67
F17095.6845703125
I1
I1
I0
tp601
a(I68
F17495.6748046875
I1
I1
I0
tp602
a(I69
F17695.669921875
I4
I1
I0
tp603
a(I70
F17895.6650390625
I2
I1
I0
tp604
a(I71
F18094.6845703125
I3
I0
I0
tp605
a(I72
F18292.728515625
I1
I0
I0
tp606
a(I73
F18490.7724609375
I4
I0
I0
tp607
a(I74
F18688.81640625
I2
I1
I0
tp608
a(I75
F19083.9287109375
I3
I1
I0
tp609
a(I76
F19280.9970703125
I1
I0
I0
tp610
a(I77
F19477.08984375
I4
I0
I0
tp611
a(I78
F19868.2998046875
I2
I1
I0
tp612
a(I79
F20647.79296875
I1
I0
I0
tp613
a(I80
F20839.9833984375
I3
I0
I0
tp614
a(I81
F21032.173828125
I2
I0
I0
tp615
a(I82
F21224.3642578125
I4
I0
I0
tp616
a(I83
F21416.5546875
I1
I1
I0
tp617
a(I84
F21606.7939453125
I3
I1
I0
tp618
a(I85
F21797.033203125
I2
I1
I0
tp619
a(I86
F22177.51171875
I4
I1
I0
tp620
a(I87
F22367.7509765625
I1
I0
I0
tp621
a(I88
F22558.9658203125
I3
I0
I0
tp622
a(I89
F22935.5419921875
I2
I0
I0
tp623
a(I90
F23123.830078125
I4
I0
I0
tp624
a(I91
F23312.1181640625
I1
I1
I0
tp625
a(I92
F23689.669921875
I1
I1
I0
tp626
a(I93
F23876.982421875
I4
I1
I0
tp627
a(I94
F24063.3193359375
I2
I1
I0
tp628
a(I95
F24250.6318359375
I3
I0
I0
tp629
a(I96
F24436.96875
I1
I0
I0
tp630
a(I97
F24624.28125
I4
I0
I0
tp631
a(I98
F24810.6181640625
I2
I1
I0
tp632
a(I99
F25182.31640625
I3
I1
I0
tp633
a(I100
F25367.677734375
I1
I0
I0
tp634
a(I101
F25552.0634765625
I4
I0
I0
tp635
a(I102
F25922.7861328125
I2
I1
I0
tp636
a(I103
F26657.40234375
I2
I0
I0
tp637
a(I104
F26839.8369140625
I3
I1
I0
tp638
a(I105
F27021.2958984375
I4
I0
I0
tp639
a(I106
F27202.7548828125
I3
I1
I0
tp640
a(I107
F27384.2138671875
I1
I0
I0
tp641
a(I108
F27564.697265625
I2
I1
I0
tp642
a(I109
F27744.205078125
I1
I0
I0
tp643
a(I110
F28104.1962890625
I3
I0
I0
tp644
a(I111
F28284.6796875
I4
I1
I0
tp645
a(I112
F28465.1630859375
I3
I0
I0
tp646
a(I113
F28821.251953125
I1
I1
I0
tp647
a(I114
F28999.7841796875
I2
I1
I0
tp648
a(I115
F29178.31640625
I1
I0
I0
tp649
a(I116
F29535.380859375
I2
I0
I0
tp650
a(I117
F29712.9375
I3
I1
I0
tp651
a(I118
F29889.5185546875
I4
I0
I0
tp652
a(I119
F30066.099609375
I3
I1
I0
tp653
a(I120
F30242.6806640625
I1
I0
I0
tp654
a(I121
F30420.2373046875
I2
I0
I0
tp655
a(I122
F30596.818359375
I1
I1
I0
tp656
a(I123
F30773.3994140625
I2
I1
I0
tp657
a(I124
F30949.0048828125
I4
I1
I0
tp658
a(I125
F31123.634765625
I3
I1
I0
tp659
a(I126
F31299.240234375
I2
I0
I0
tp660
a(I127
F31474.845703125
I1
I1
I0
tp661
a(I128
F31649.4755859375
I3
I0
I0
tp662
a(I129
F31649.4755859375
I4
I0
I0
tp663
a(I130
F32346.043945312504
I2
I0
I0
tp664
a(I131
F32519.698242187504
I3
I0
I0
tp665
a(I132
F32691.401367187504
I4
I0
I0
tp666
a(I133
F32864.080078125
I3
I0
I0
tp667
a(I134
F33035.783203125
I1
I0
I0
tp668
a(I135
F33206.5107421875
I2
I0
I0
tp669
a(I136
F33377.23828125
I3
I0
I0
tp670
a(I137
F33377.23828125
I4
I0
I0
tp671
a(I138
F33718.693359375
I1
I0
I0
tp672
a(I139
F33718.693359375
I2
I0
I0
tp673
a(I140
F34060.1484375
I3
I0
I0
tp674
a(I141
F34060.1484375
I4
I0
I0
tp675
a(I142
F34399.65234375
I1
I0
I0
tp676
a(I143
F34399.65234375
I2
I0
I0
tp677
a(I144
F35076.708984375
I2
I1
I0
tp678
a(I145
F35245.4853515625
I3
I1
I0
tp679
a(I146
F35413.2861328125
I4
I1
I0
tp680
a(I147
F35581.0869140625
I3
I1
I0
tp681
a(I148
F35748.8876953125
I1
I1
I0
tp682
a(I149
F35916.6884765625
I2
I1
I0
tp683
a(I150
F36084.4892578125
I3
I1
I0
tp684
a(I151
F36084.4892578125
I4
I1
I0
tp685
a(I152
F36419.115234375
I1
I1
I0
tp686
a(I153
F36419.115234375
I2
I1
I0
tp687
a(I154
F36751.7900390625
I3
I1
I0
tp688
a(I155
F36751.7900390625
I4
I1
I0
tp689
a(I156
F37085.4404296875
I1
I1
I0
tp690
a(I157
F37085.4404296875
I2
I1
I0
tp691
a(I158
F37746.8876953125
I1
I0
I0
tp692
a(I159
F37911.76171875
I3
I0
I0
tp693
a(I160
F38074.6845703125
I2
I0
I0
tp694
a(I161
F38238.5830078125
I4
I0
I0
tp695
a(I162
F38402.4814453125
I1
I1
I0
tp696
a(I163
F38565.404296875
I3
I1
I0
tp697
a(I164
F38727.3515625
I2
I1
I0
tp698
a(I165
F39052.2216796875
I4
I1
I0
tp699
a(I166
F39215.14453125
I1
I0
I0
tp700
a(I167
F39377.091796875
I3
I0
I0
tp701
a(I168
F39700.0107421875
I2
I0
I0
tp702
a(I169
F39860.982421875
I4
I0
I0
tp703
a(I170
F40021.9541015625
I1
I1
I0
tp704
a(I171
F40343.8974609375
I1
I1
I0
tp705
a(I172
F40504.869140625
I4
I1
I0
tp706
a(I173
F40664.865234375
I2
I1
I0
tp707
a(I174
F40823.8857421875
I3
I0
I0
tp708
a(I175
F40983.8818359375
I1
I0
I0
tp709
a(I176
F41143.8779296875
I4
I0
I0
tp710
a(I177
F41303.8740234375
I2
I1
I0
tp711
a(I178
F41621.9150390625
I3
I1
I0
tp712
a(I179
F41780.935546875
I1
I0
I0
tp713
a(I180
F41938.98046875
I4
I0
I0
tp714
a(I181
F42256.0458984375
I2
I1
I0
tp715
a(I182
F42887.25
I1
I0
I0
tp716
a(I183
F43043.34375
I3
I0
I0
tp717
a(I184
F43199.4375
I2
I0
I0
tp718
a(I185
F43355.53125
I4
I0
I0
tp719
a(I186
F43511.625
I1
I1
I0
tp720
a(I187
F43666.7431640625
I3
I1
I0
tp721
a(I188
F43821.861328125
I2
I1
I0
tp722
a(I189
F44131.1220703125
I4
I1
I0
tp723
a(I190
F44286.240234375
I1
I0
I0
tp724
a(I191
F44441.3583984375
I3
I0
I0
tp725
a(I192
F44748.66796875
I2
I0
I0
tp726
a(I193
F44902.810546875
I4
I0
I0
tp727
a(I194
F45055.9775390625
I1
I1
I0
tp728
a(I195
F45363.287109375
I1
I1
I0
tp729
a(I196
F45516.4541015625
I4
I1
I0
tp730
a(I197
F45668.6455078125
I2
I1
I0
tp731
a(I198
F45821.8125
I3
I0
I0
tp732
a(I199
F45974.00390625
I1
I0
I0
tp733
a(I200
F46126.1953125
I4
I0
I0
tp734
a(I201
F46279.3623046875
I2
I1
I0
tp735
a(I202
F46582.76953125
I3
I1
I0
tp736
a(I203
F46733.9853515625
I1
I0
I0
tp737
a(I204
F46886.1767578125
I4
I0
I0
tp738
a(I205
F47188.6083984375
I2
I1
I0
tp739
a(I206
F47790.544921875
I2
I0
I0
tp740
a(I207
F47939.8095703125
I3
I1
I0
tp741
a(I208
F48089.07421875
I4
I0
I0
tp742
a(I209
F48238.3388671875
I3
I1
I0
tp743
a(I210
F48387.603515625
I1
I0
I0
tp744
a(I211
F48535.892578125
I2
I1
I0
tp745
a(I212
F48683.2060546875
I1
I0
I0
tp746
a(I213
F48979.7841796875
I3
I0
I0
tp747
a(I214
F49127.09765625
I4
I1
I0
tp748
a(I215
F49275.38671875
I3
I0
I0
tp749
a(I216
F49569.0380859375
I1
I1
I0
tp750
a(I217
F49716.3515625
I2
I1
I0
tp751
a(I218
F49862.689453125
I1
I0
I0
tp752
a(I219
F50157.31640625
I2
I0
I0
tp753
a(I220
F50303.654296875
I3
I1
I0
tp754
a(I221
F50449.0166015625
I4
I0
I0
tp755
a(I222
F50595.3544921875
I3
I1
I0
tp756
a(I223
F50740.716796875
I1
I0
I0
tp757
a(I224
F50887.0546875
I2
I1
I0
tp758
a(I225
F51032.4169921875
I1
I1
I0
tp759
a(I226
F51178.7548828125
I2
I1
I0
tp760
a(I227
F51323.1416015625
I4
I1
I0
tp761
a(I228
F51467.5283203125
I3
I1
I0
tp762
a(I229
F51612.890625
I2
I0
I0
tp763
a(I230
F51757.27734375
I1
I1
I0
tp764
a(I231
F51902.6396484375
I3
I0
I0
tp765
a(I232
F51902.6396484375
I4
I0
I0
tp766
a(I233
F52478.2353515625
I2
I0
I0
tp767
a(I234
F52764.08203125
I4
I0
I0
tp768
a(I235
F53049.9287109375
I1
I0
I0
tp769
a(I236
F53191.388671875
I2
I0
I0
tp770
a(I237
F53332.8486328125
I1
I1
I0
tp771
a(I238
F53616.744140625
I1
I0
I0
tp772
a(I239
F53616.744140625
I2
I0
I0
tp773
a(I240
F53899.6640625
I3
I0
I0
tp774
a(I241
F53899.6640625
I4
I0
I0
tp775
a(I242
F54181.6083984375
I1
I0
I0
tp776
a(I243
F54181.6083984375
I2
I0
I0
tp777
a(I244
F54744.521484375
I2
I1
I0
tp778
a(I245
F54884.0302734375
I3
I1
I0
tp779
a(I246
F55023.5390625
I4
I1
I0
tp780
a(I247
F55164.0234375
I3
I1
I0
tp781
a(I248
F55303.5322265625
I1
I1
I0
tp782
a(I249
F55582.5498046875
I3
I1
I0
tp783
a(I250
F55861.5673828125
I1
I1
I0
tp784
a(I251
F55861.5673828125
I2
I1
I0
tp785
a(I252
F56138.6337890625
I3
I1
I0
tp786
a(I253
F56138.6337890625
I4
I1
I0
tp787
a(I254
F56416.67578125
I1
I1
I0
tp788
a(I255
F56416.67578125
I2
I1
I0
tp789
a(I256
F56968.857421875
I1
I0
I0
tp790
a(I257
F57242.9970703125
I2
I0
I0
tp791
a(I258
F57379.5791015625
I4
I0
I0
tp792
a(I259
F57516.1611328125
I1
I1
I0
tp793
a(I260
F58059.5625
I4
I1
I0
tp794
a(I261
F58196.14453125
I1
I0
I0
tp795
a(I262
F58331.7509765625
I3
I0
I0
tp796
a(I263
F58601.98828125
I2
I0
I0
tp797
a(I264
F58736.619140625
I4
I0
I0
tp798
a(I265
F58872.2255859375
I1
I1
I0
tp799
a(I266
F59141.4873046875
I1
I1
I0
tp800
a(I267
F59410.7490234375
I2
I1
I0
tp801
a(I268
F59544.404296875
I3
I0
I0
tp802
a(I269
F59679.03515625
I1
I0
I0
tp803
a(I270
F60213.65625
I3
I1
I0
tp804
a(I271
F60347.3115234375
I1
I0
I0
tp805
a(I272
F60480.966796875
I4
I0
I0
tp806
a(I273
F60747.3017578125
I2
I1
I0
tp807
a(I274
F61277.044921875
I1
I0
I0
tp808
a(I275
F61540.453125
I2
I0
I0
tp809
a(I276
F61672.1572265625
I4
I0
I0
tp810
a(I277
F61802.8857421875
I1
I1
I0
tp811
a(I278
F62325.7998046875
I4
I1
I0
tp812
a(I279
F62456.5283203125
I1
I0
I0
tp813
a(I280
F62587.2568359375
I3
I0
I0
tp814
a(I281
F62846.7626953125
I2
I0
I0
tp815
a(I282
F62976.515625
I4
I0
I0
tp816
a(I283
F63106.2685546875
I1
I1
I0
tp817
a(I284
F63364.798828125
I1
I1
I0
tp818
a(I285
F63623.3291015625
I2
I1
I0
tp819
a(I286
F63752.1064453125
I3
I0
I0
tp820
a(I287
F63880.8837890625
I1
I0
I0
tp821
a(I288
F64139.4140625
I2
I1
I0
tp822
a(I289
F64395.993164062493
I3
I1
I0
tp823
a(I290
F64523.794921875
I1
I0
I0
tp824
a(I291
F64652.572265625007
I4
I0
I0
tp825
a(I292
F64908.17578125
I2
I1
I0
tp826
a(I293
F65418.4072265625
I1
I0
I0
tp827
a(I294
F65673.03515625
I3
I0
I0
tp828
a(I295
F65799.861328125
I4
I0
I0
tp829
a(I296
F65927.6630859375
I2
I0
I0
tp830
a(I297
F66182.291015625
I1
I1
I0
tp831
a(I298
F66435.943359375
I3
I0
I0
tp832
a(I299
F66945.19921875
I2
I0
I0
tp833
a(I300
F67454.455078125
I1
I1
I0
tp834
a(I301
F67709.0830078125
I3
I1
I0
tp835
a(I302
F67835.9091796875
I4
I1
I0
tp836
a(I303
F67963.7109375
I2
I1
I0
tp837
a(I304
F68218.3388671875
I3
I1
I0
tp838
a(I305
F68472.966796875
I2
I1
I0
tp839
a(I306
F68981.2470703125
I3
I1
I0
tp840
a(I307
F69490.5029296875
I1
I0
I0
tp841
a(I308
F69745.130859375
I3
I0
I0
tp842
a(I309
F69871.95703125
I4
I0
I0
tp843
a(I310
F69999.7587890625
I2
I0
I0
tp844
a(I311
F70254.38671875
I1
I1
I0
tp845
a(I312
F70509.0146484375
I3
I0
I0
tp846
a(I313
F71017.294921875
I2
I0
I0
tp847
a(I314
F71526.55078125
I1
I1
I0
tp848
a(I315
F71781.1787109375
I3
I1
I0
tp849
a(I316
F71908.98046875
I4
I1
I0
tp850
a(I317
F72035.806640625
I2
I1
I0
tp851
a(I318
F72290.4345703125
I3
I1
I0
tp852
a(I319
F72545.0625
I2
I1
I0
tp853
a(I320
F73054.318359375
I3
I1
I0
tp854
a(I321
F73562.5986328125
I3
I0
I0
tp855
a(I322
F73817.2265625
I4
I0
I0
tp856
a(I323
F74071.8544921875
I3
I0
I0
tp857
a(I324
F74326.482421875
I1
I0
I0
tp858
a(I325
F74453.30859375
I2
I0
I0
tp859
a(I326
F74707.9365234375
I3
I0
I0
tp860
a(I327
F74962.564453125
I4
I0
I0
tp861
a(I328
F75090.3662109375
I2
I0
I0
tp862
a(I329
F75344.994140625
I1
I0
I0
tp863
a(I330
F75598.646484375
I3
I1
I0
tp864
a(I331
F75853.2744140625
I4
I1
I0
tp865
a(I332
F76107.90234375
I3
I1
I0
tp866
a(I333
F76362.5302734375
I1
I1
I0
tp867
a(I334
F76490.33203125
I2
I1
I0
tp868
a(I335
F76744.9599609375
I3
I1
I0
tp869
a(I336
F76871.7861328125
I4
I1
I0
tp870
a(I337
F77126.4140625
I2
I1
I0
tp871
a(I338
F77635.669921875
I3
I0
I0
tp872
a(I339
F77890.2978515625
I4
I0
I0
tp873
a(I340
F78143.9501953125
I3
I0
I0
tp874
a(I341
F78398.578125
I1
I0
I0
tp875
a(I342
F78526.3798828125
I2
I0
I0
tp876
a(I343
F78781.0078125
I3
I0
I0
tp877
a(I344
F79035.6357421875
I4
I0
I0
tp878
a(I345
F79162.4619140625
I2
I0
I0
tp879
a(I346
F79417.08984375
I1
I0
I0
tp880
a(I347
F79671.7177734375
I3
I1
I0
tp881
a(I348
F79926.345703125
I4
I1
I0
tp882
a(I349
F80180.9736328125
I3
I1
I0
tp883
a(I350
F80434.6259765625
I1
I1
I0
tp884
a(I351
F80562.427734375
I2
I1
I0
tp885
a(I352
F80817.0556640625
I3
I1
I0
tp886
a(I353
F80943.8818359375
I4
I1
I0
tp887
a(I354
F81198.509765625
I2
I1
I0
tp888
a(I355
F81707.765625
I1
I0
I0
tp889
a(I356
F81962.3935546875
I3
I0
I0
tp890
a(I357
F82089.2197265625
I2
I0
I0
tp891
a(I358
F82217.021484375
I4
I0
I0
tp892
a(I359
F82471.6494140625
I1
I0
I0
tp893
a(I360
F82725.3017578125
I3
I0
I0
tp894
a(I361
F82979.9296875
I2
I0
I0
tp895
a(I362
F83234.5576171875
I4
I0
I0
tp896
a(I363
F83743.8134765625
I1
I1
I0
tp897
a(I364
F83998.44140625
I3
I1
I0
tp898
a(I365
F84125.267578125
I2
I1
I0
tp899
a(I366
F84253.0693359375
I4
I1
I0
tp900
a(I367
F84507.697265625
I1
I1
I0
tp901
a(I368
F84762.3251953125
I3
I1
I0
tp902
a(I369
F85015.9775390625
I2
I1
I0
tp903
a(I370
F85270.60546875
I4
I1
I0
tp904
a(I371
F85779.861328125
I1
I0
I0
tp905
a(I372
F86034.4892578125
I3
I0
I0
tp906
a(I373
F86162.291015625
I2
I0
I0
tp907
a(I374
F86289.1171875
I4
I0
I0
tp908
a(I375
F86543.7451171875
I1
I0
I0
tp909
a(I376
F86798.373046875
I3
I0
I0
tp910
a(I377
F87053.0009765625
I2
I0
I0
tp911
a(I378
F87307.62890625
I4
I0
I0
tp912
a(I379
F87815.9091796875
I1
I1
I0
tp913
a(I380
F88070.537109375
I3
I1
I0
tp914
a(I381
F88198.3388671875
I2
I1
I0
tp915
a(I382
F88325.1650390625
I4
I1
I0
tp916
a(I383
F88579.79296875
I1
I1
I0
tp917
a(I384
F88834.4208984375
I3
I1
I0
tp918
a(I385
F89089.048828125
I2
I1
I0
tp919
a(I386
F89343.6767578125
I4
I1
I0
tp920
a(I387
F92533.515625
I3
I1
I0
tp921
a(I388
F93410.46875
I4
I1
I0
tp922
a(I389
F94211.25
I1
I1
I0
tp923
a(I390
F95011.0546875
I2
I1
I0
tp924
a(I391
F95810.859375
I3
I1
I0
tp925
a(I392
F96610.6640625
I4
I1
I0
tp926
a(I393
F97410.46875
I1
I1
I0
tp927
a(I394
F98211.25
I2
I1
I0
tp928
a(I395
F99011.0546875
I4
I0
I0
tp929
a(I396
F99810.859375
I2
I0
I0
tp930
a(I397
F100610.6640625
I3
I0
I0
tp931
a(I398
F101011.0546875
I1
I0
I0
tp932
a(I399
F101410.46875
I3
I0
I0
tp933
a(I400
F102211.25
I3
I1
I0
tp934
a(I401
F103011.0546875
I4
I1
I0
tp935
a(I402
F103810.859375
I1
I1
I0
tp936
a(I403
F104610.6640625
I2
I1
I0
tp937
a(I404
F105410.46875
I3
I1
I0
tp938
a(I405
F106211.25
I2
I1
I0
tp939
a(I406
F107011.0546875
I2
I1
I0
tp940
a(I407
F107810.859375
I1
I1
I0
tp941
a(I408
F108610.6640625
I2
I0
I0
tp942
a(I409
F109410.46875
I1
I0
I0
tp943
a(I410
F110211.25
I3
I0
I0
tp944
a(I411
F110211.25
I4
I0
I0
tp945
a(I412
F111011.0546875
I3
I1
I0
tp946
a(I413
F111011.0546875
I4
I1
I0
tp947
a(I414
F111810.859375
I3
I1
I0
tp948
a(I415
F112610.6640625
I4
I1
I0
tp949
a(I416
F113410.46875
I1
I1
I0
tp950
a(I417
F114211.25
I2
I1
I0
tp951
a(I418
F115011.0546875
I3
I1
I0
tp952
a(I419
F115810.859375
I4
I1
I0
tp953
a(I420
F116610.6640625
I1
I1
I0
tp954
a(I421
F117410.46875
I2
I1
I0
tp955
a(I422
F118211.25
I4
I0
I0
tp956
a(I423
F119011.0546875
I2
I0
I0
tp957
a(I424
F119810.859375
I3
I0
I0
tp958
a(I425
F120211.25
I1
I0
I0
tp959
a(I426
F120610.6640625
I3
I0
I0
tp960
a(I427
F121410.46875
I3
I1
I0
tp961
a(I428
F122211.25
I4
I1
I0
tp962
a(I429
F123011.0546875
I1
I1
I0
tp963
a(I430
F123810.859375
I2
I1
I0
tp964
a(I431
F124610.6640625
I3
I1
I0
tp965
a(I432
F125410.46875
I2
I1
I0
tp966
a(I433
F126211.25
I2
I1
I0
tp967
a(I434
F127011.0546875
I1
I1
I0
tp968
a(I435
F127810.859375
I2
I0
I0
tp969
a(I436
F128610.6640625
I1
I0
I0
tp970
a(I437
F129410.46875
I3
I0
I0
tp971
a(I438
F129410.46875
I4
I0
I0
tp972
a(I439
F130211.25
I3
I1
I0
tp973
a(I440
F130211.25
I4
I1
I0
tp974
aa.