(lp1
(lp2
(I0
F3582.6484375
I3
I0
I0
tp3
a(I1
F3919.5625
I1
I1
I0
tp4
a(I2
F4354.1328125
I2
I1
I0
tp5
a(I3
F4788.703125
I3
I1
I0
tp6
a(I4
F4788.703125
I4
I1
I0
tp7
a(I5
F6527.9609375
I3
I0
I0
tp8
a(I6
F6963.5078125
I2
I0
I0
tp9
a(I7
F7398.078125
I1
I0
I0
tp10
a(I8
F7832.6484375
I4
I0
I0
tp11
a(I9
F8484.9921875
I3
I0
I0
tp12
a(I10
F8701.7890625
I1
I0
I0
tp13
a(I11
F8701.7890625
I2
I0
I0
tp14
a(I12
F10441.046875
I3
I0
I0
tp15
a(I13
F10876.59375
I1
I1
I0
tp16
a(I14
F11311.1640625
I2
I1
I0
tp17
a(I15
F11745.734375
I3
I1
I0
tp18
a(I16
F11745.734375
I4
I1
I0
tp19
a(I17
F13484.9921875
I3
I0
I0
tp20
a(I18
F13919.5625
I2
I0
I0
tp21
a(I19
F14354.1328125
I1
I0
I0
tp22
a(I20
F14788.703125
I1
I0
I0
tp23
a(I21
F14788.703125
I3
I0
I0
tp24
a(I22
F17398.078125
I2
I1
I0
tp25
a(I23
F17832.6484375
I3
I0
I0
tp26
a(I24
F18267.21875
I4
I0
I0
tp27
a(I25
F18593.390625
I3
I1
I0
tp28
a(I26
F18919.5625
I1
I0
I0
tp29
a(I27
F19571.90625
I3
I1
I0
tp30
a(I28
F20006.4765625
I1
I0
I0
tp31
a(I29
F20006.4765625
I2
I0
I0
tp32
a(I30
F20332.6484375
I3
I0
I0
tp33
a(I31
F20658.8203125
I2
I1
I0
tp34
a(I32
F21311.1640625
I3
I1
I0
tp35
a(I33
F21745.734375
I1
I0
I0
tp36
a(I34
F21745.734375
I2
I0
I0
tp37
a(I35
F22071.90625
I3
I1
I0
tp38
a(I36
F22398.078125
I1
I1
I0
tp39
a(I37
F23050.421875
I3
I1
I0
tp40
a(I38
F23484.9921875
I1
I0
I0
tp41
a(I39
F23484.9921875
I2
I0
I0
tp42
a(I40
F24354.1328125
I3
I0
I0
tp43
a(I41
F24788.703125
I1
I1
I0
tp44
a(I42
F25224.25
I2
I1
I0
tp45
a(I43
F25658.8203125
I3
I1
I0
tp46
a(I44
F25658.8203125
I4
I1
I0
tp47
a(I45
F27398.078125
I3
I0
I0
tp48
a(I46
F27832.6484375
I2
I0
I0
tp49
a(I47
F28267.21875
I1
I0
I0
tp50
a(I48
F28701.7890625
I4
I0
I0
tp51
a(I49
F29354.1328125
I3
I0
I0
tp52
a(I50
F29571.90625
I1
I0
I0
tp53
a(I51
F29571.90625
I2
I0
I0
tp54
a(I52
F31311.1640625
I3
I1
I0
tp55
a(I53
F31745.734375
I1
I1
I0
tp56
a(I54
F32180.3046875
I2
I1
I0
tp57
a(I55
F32614.875
I3
I1
I0
tp58
a(I56
F32614.875
I4
I1
I0
tp59
a(I57
F34571.90625
I3
I0
I0
tp60
a(I58
F34788.703125
I2
I0
I0
tp61
a(I59
F35224.25
I1
I0
I0
tp62
a(I60
F35658.8203125
I1
I0
I0
tp63
a(I61
F35658.8203125
I3
I0
I0
tp64
a(I62
F38701.7890625
I3
I0
I0
tp65
a(I63
F39137.3359375
I4
I0
I0
tp66
a(I64
F39463.5078125
I3
I1
I0
tp67
a(I65
F39788.703125
I1
I0
I0
tp68
a(I66
F40441.046875
I3
I1
I0
tp69
a(I67
F40876.59375
I1
I0
I0
tp70
a(I68
F40876.59375
I2
I0
I0
tp71
a(I69
F41201.7890625
I3
I0
I0
tp72
a(I70
F41527.9609375
I2
I1
I0
tp73
a(I71
F42180.3046875
I3
I1
I0
tp74
a(I72
F42614.875
I1
I0
I0
tp75
a(I73
F42614.875
I2
I0
I0
tp76
a(I74
F42941.046875
I3
I1
I0
tp77
a(I75
F43267.21875
I1
I1
I0
tp78
a(I76
F45224.25
I3
I1
I0
tp79
a(I77
F46093.390625
I2
I0
I0
tp80
a(I78
F46093.390625
I4
I0
I0
tp81
a(I79
F46963.5078125
I1
I0
I0
tp82
a(I80
F46963.5078125
I3
I0
I0
tp83
a(I81
F47832.6484375
I1
I1
I0
tp84
a(I82
F47832.6484375
I4
I1
I0
tp85
a(I83
F48701.7890625
I3
I0
I0
tp86
a(I84
F49571.90625
I4
I1
I0
tp87
a(I85
F50441.046875
I2
I1
I0
tp88
a(I86
F50441.046875
I3
I1
I0
tp89
a(I87
F51311.1640625
I1
I1
I0
tp90
a(I88
F51311.1640625
I4
I1
I0
tp91
a(I89
F52180.3046875
I3
I0
I0
tp92
a(I90
F53050.421875
I2
I0
I0
tp93
a(I91
F53050.421875
I4
I0
I0
tp94
a(I92
F53919.5625
I1
I1
I0
tp95
a(I93
F53919.5625
I3
I1
I0
tp96
a(I94
F54788.703125
I1
I0
I0
tp97
a(I95
F54788.703125
I4
I0
I0
tp98
a(I96
F55658.8203125
I3
I1
I0
tp99
a(I97
F56527.9609375
I1
I1
I0
tp100
a(I98
F57398.078125
I2
I1
I0
tp101
a(I99
F57398.078125
I3
I1
I0
tp102
a(I100
F58267.21875
I1
I1
I0
tp103
a(I101
F58267.21875
I4
I1
I0
tp104
a(I102
F59137.3359375
I3
I0
I0
tp105
a(I103
F60006.4765625
I2
I0
I0
tp106
a(I104
F60006.4765625
I4
I0
I0
tp107
a(I105
F60876.59375
I1
I0
I0
tp108
a(I106
F60876.59375
I3
I0
I0
tp109
a(I107
F61745.734375
I1
I0
I0
tp110
a(I108
F61745.734375
I4
I0
I0
tp111
a(I109
F62614.875
I3
I1
I0
tp112
a(I110
F63484.9921875
I4
I1
I0
tp113
a(I111
F64354.1328125
I2
I1
I0
tp114
a(I112
F64354.1328125
I3
I1
I0
tp115
a(I113
F65224.25
I1
I1
I0
tp116
a(I114
F65224.25
I4
I1
I0
tp117
a(I115
F66093.390625
I3
I1
I0
tp118
a(I116
F66963.5078125
I2
I0
I0
tp119
a(I117
F66963.5078125
I4
I0
I0
tp120
a(I118
F67832.6484375
I1
I0
I0
tp121
a(I119
F67832.6484375
I3
I0
I0
tp122
a(I120
F68701.7890625
I1
I0
I0
tp123
a(I121
F68701.7890625
I4
I0
I0
tp124
a(I122
F69571.90625
I3
I1
I0
tp125
a(I123
F70441.046875
I4
I1
I0
tp126
a(I124
F71311.1640625
I2
I1
I0
tp127
a(I125
F71311.1640625
I3
I1
I0
tp128
a(I126
F72180.3046875
I1
I1
I0
tp129
a(I127
F72180.3046875
I4
I1
I0
tp130
a(I128
F73050.421875
I3
I0
I0
tp131
a(I129
F73484.9921875
I3
I1
I0
tp132
a(I130
F73919.5625
I2
I1
I0
tp133
a(I131
F74788.703125
I1
I1
I0
tp134
a(I132
F75224.25
I1
I0
I0
tp135
a(I133
F75658.8203125
I3
I0
I0
tp136
a(I134
F76527.9609375
I3
I0
I0
tp137
aa(lp138
(I0
F3582.6484375
I3
I0
I0
tp139
a(I1
F3811.1640625
I1
I1
I0
tp140
a(I2
F4245.734375
I2
I1
I0
tp141
a(I3
F4788.703125
I3
I1
I0
tp142
a(I4
F4788.703125
I4
I1
I0
tp143
a(I5
F6745.734375
I3
I0
I0
tp144
a(I6
F6963.5078125
I2
I0
I0
tp145
a(I7
F7288.703125
I1
I0
I0
tp146
a(I8
F7724.25
I4
I0
I0
tp147
a(I9
F8484.9921875
I3
I0
I0
tp148
a(I10
F8701.7890625
I1
I0
I0
tp149
a(I11
F8701.7890625
I2
I0
I0
tp150
a(I12
F10441.046875
I3
I0
I0
tp151
a(I13
F10767.21875
I1
I1
I0
tp152
a(I14
F11201.7890625
I2
I1
I0
tp153
a(I15
F11745.734375
I3
I1
I0
tp154
a(I16
F11745.734375
I4
I1
I0
tp155
a(I17
F13701.7890625
I3
I0
I0
tp156
a(I18
F13919.5625
I2
I0
I0
tp157
a(I19
F14245.734375
I1
I0
I0
tp158
a(I20
F14680.3046875
I1
I0
I0
tp159
a(I21
F14680.3046875
I3
I0
I0
tp160
a(I22
F17398.078125
I2
I1
I0
tp161
a(I23
F17832.6484375
I3
I0
I0
tp162
a(I24
F18267.21875
I4
I0
I0
tp163
a(I25
F18593.390625
I3
I1
I0
tp164
a(I26
F18919.5625
I1
I0
I0
tp165
a(I27
F19571.90625
I3
I1
I0
tp166
a(I28
F20006.4765625
I1
I0
I0
tp167
a(I29
F20006.4765625
I2
I0
I0
tp168
a(I30
F20332.6484375
I3
I0
I0
tp169
a(I31
F20658.8203125
I2
I1
I0
tp170
a(I32
F21311.1640625
I3
I1
I0
tp171
a(I33
F21745.734375
I1
I0
I0
tp172
a(I34
F21745.734375
I2
I0
I0
tp173
a(I35
F22071.90625
I3
I1
I0
tp174
a(I36
F22398.078125
I1
I1
I0
tp175
a(I37
F23050.421875
I3
I1
I0
tp176
a(I38
F23484.9921875
I1
I0
I0
tp177
a(I39
F23484.9921875
I2
I0
I0
tp178
a(I40
F23811.1640625
I3
I1
I0
tp179
a(I41
F24137.3359375
I2
I1
I0
tp180
a(I42
F24354.1328125
I3
I0
I0
tp181
a(I43
F24680.3046875
I1
I1
I0
tp182
a(I44
F25114.875
I2
I1
I0
tp183
a(I45
F25658.8203125
I3
I1
I0
tp184
a(I46
F25658.8203125
I4
I1
I0
tp185
a(I47
F27614.875
I3
I0
I0
tp186
a(I48
F27832.6484375
I2
I0
I0
tp187
a(I49
F28158.8203125
I1
I0
I0
tp188
a(I50
F28593.390625
I4
I0
I0
tp189
a(I51
F29354.1328125
I3
I0
I0
tp190
a(I52
F29571.90625
I1
I0
I0
tp191
a(I53
F29571.90625
I2
I0
I0
tp192
a(I54
F31311.1640625
I3
I1
I0
tp193
a(I55
F31637.3359375
I1
I1
I0
tp194
a(I56
F32071.90625
I2
I1
I0
tp195
a(I57
F32614.875
I3
I1
I0
tp196
a(I58
F32614.875
I4
I1
I0
tp197
a(I59
F34571.90625
I3
I0
I0
tp198
a(I60
F34788.703125
I2
I0
I0
tp199
a(I61
F35114.875
I1
I0
I0
tp200
a(I62
F35550.421875
I1
I0
I0
tp201
a(I63
F35550.421875
I3
I0
I0
tp202
a(I64
F36963.5078125
I3
I0
I0
tp203
a(I65
F37398.078125
I4
I1
I0
tp204
a(I66
F37724.25
I3
I1
I0
tp205
a(I67
F38050.421875
I2
I1
I0
tp206
a(I68
F38701.7890625
I3
I0
I0
tp207
a(I69
F39137.3359375
I4
I0
I0
tp208
a(I70
F39463.5078125
I3
I1
I0
tp209
a(I71
F39788.703125
I1
I0
I0
tp210
a(I72
F40441.046875
I3
I1
I0
tp211
a(I73
F40876.59375
I1
I0
I0
tp212
a(I74
F40876.59375
I2
I0
I0
tp213
a(I75
F41201.7890625
I3
I0
I0
tp214
a(I76
F41527.9609375
I2
I1
I0
tp215
a(I77
F42180.3046875
I3
I1
I0
tp216
a(I78
F42614.875
I1
I0
I0
tp217
a(I79
F42614.875
I2
I0
I0
tp218
a(I80
F42941.046875
I3
I1
I0
tp219
a(I81
F43267.21875
I1
I1
I0
tp220
a(I82
F43919.5625
I3
I1
I0
tp221
a(I83
F44354.1328125
I1
I0
I0
tp222
a(I84
F44354.1328125
I2
I0
I0
tp223
a(I85
F44680.3046875
I3
I1
I0
tp224
a(I86
F45224.25
I3
I1
I0
tp225
a(I87
F45658.8203125
I1
I1
I0
tp226
a(I88
F46093.390625
I2
I0
I0
tp227
a(I89
F46093.390625
I4
I0
I0
tp228
a(I90
F46527.9609375
I1
I0
I0
tp229
a(I91
F46527.9609375
I3
I0
I0
tp230
a(I92
F46963.5078125
I3
I1
I0
tp231
a(I93
F47398.078125
I2
I1
I0
tp232
a(I94
F47832.6484375
I1
I0
I0
tp233
a(I95
F47832.6484375
I4
I0
I0
tp234
a(I96
F48267.21875
I2
I0
I0
tp235
a(I97
F48267.21875
I3
I0
I0
tp236
a(I98
F48701.7890625
I3
I1
I0
tp237
a(I99
F49571.90625
I2
I1
I0
tp238
a(I100
F50441.046875
I2
I0
I0
tp239
a(I101
F50441.046875
I3
I0
I0
tp240
a(I102
F51311.1640625
I4
I1
I0
tp241
a(I103
F52180.3046875
I3
I1
I0
tp242
a(I104
F52614.875
I1
I1
I0
tp243
a(I105
F53050.421875
I2
I0
I0
tp244
a(I106
F53050.421875
I4
I0
I0
tp245
a(I107
F53484.9921875
I1
I0
I0
tp246
a(I108
F53484.9921875
I3
I0
I0
tp247
a(I109
F53919.5625
I3
I1
I0
tp248
a(I110
F54354.1328125
I2
I1
I0
tp249
a(I111
F54788.703125
I1
I0
I0
tp250
a(I112
F54788.703125
I4
I0
I0
tp251
a(I113
F55224.25
I2
I0
I0
tp252
a(I114
F55224.25
I3
I0
I0
tp253
a(I115
F55658.8203125
I3
I1
I0
tp254
a(I116
F56527.9609375
I1
I0
I0
tp255
a(I117
F56527.9609375
I2
I0
I0
tp256
a(I118
F57398.078125
I3
I0
I0
tp257
a(I119
F57398.078125
I4
I0
I0
tp258
a(I120
F58267.21875
I1
I1
I0
tp259
a(I121
F58267.21875
I2
I1
I0
tp260
a(I122
F59137.3359375
I3
I1
I0
tp261
a(I123
F59571.90625
I1
I1
I0
tp262
a(I124
F60006.4765625
I2
I0
I0
tp263
a(I125
F60006.4765625
I4
I0
I0
tp264
a(I126
F60441.046875
I1
I0
I0
tp265
a(I127
F60441.046875
I3
I0
I0
tp266
a(I128
F60876.59375
I3
I1
I0
tp267
a(I129
F61311.1640625
I2
I1
I0
tp268
a(I130
F61745.734375
I1
I0
I0
tp269
a(I131
F61745.734375
I4
I0
I0
tp270
a(I132
F62180.3046875
I2
I0
I0
tp271
a(I133
F62180.3046875
I3
I0
I0
tp272
a(I134
F62614.875
I3
I1
I0
tp273
a(I135
F63484.9921875
I3
I1
I0
tp274
a(I136
F64354.1328125
I2
I1
I0
tp275
a(I137
F65224.25
I2
I0
I0
tp276
a(I138
F65224.25
I3
I0
I0
tp277
a(I139
F66093.390625
I3
I1
I0
tp278
a(I140
F66527.9609375
I1
I1
I0
tp279
a(I141
F66963.5078125
I2
I0
I0
tp280
a(I142
F66963.5078125
I4
I0
I0
tp281
a(I143
F67398.078125
I1
I0
I0
tp282
a(I144
F67398.078125
I3
I0
I0
tp283
a(I145
F67832.6484375
I3
I1
I0
tp284
a(I146
F68267.21875
I2
I1
I0
tp285
a(I147
F68701.7890625
I1
I0
I0
tp286
a(I148
F68701.7890625
I4
I0
I0
tp287
a(I149
F69137.3359375
I2
I0
I0
tp288
a(I150
F69137.3359375
I3
I0
I0
tp289
a(I151
F69571.90625
I3
I1
I0
tp290
a(I152
F70441.046875
I1
I0
I0
tp291
a(I153
F70441.046875
I2
I0
I0
tp292
a(I154
F71311.1640625
I3
I0
I0
tp293
a(I155
F71311.1640625
I4
I0
I0
tp294
a(I156
F72180.3046875
I1
I1
I0
tp295
a(I157
F72180.3046875
I2
I1
I0
tp296
a(I158
F73050.421875
I3
I0
I0
tp297
a(I159
F73484.9921875
I3
I1
I0
tp298
a(I160
F73919.5625
I2
I1
I0
tp299
a(I161
F74354.1328125
I3
I1
I0
tp300
a(I162
F74788.703125
I1
I1
I0
tp301
a(I163
F75224.25
I1
I0
I0
tp302
a(I164
F75658.8203125
I3
I0
I0
tp303
a(I165
F76093.390625
I4
I1
I0
tp304
a(I166
F76527.9609375
I3
I0
I0
tp305
a(I167
F76656.8671875
I1
I1
I0
tp306
aa(lp307
g139
ag140
ag141
ag142
ag143
ag144
ag145
ag146
ag147
ag148
ag149
ag150
ag151
ag152
ag153
ag154
ag155
ag156
ag157
ag158
ag159
ag160
ag161
ag162
ag163
ag164
ag165
ag166
ag167
ag168
ag169
ag170
ag171
ag172
ag173
ag174
ag175
ag176
ag177
ag178
ag179
ag180
ag181
ag182
ag183
ag184
ag185
ag186
ag187
ag188
ag189
ag190
ag191
ag192
ag193
ag194
ag195
ag196
ag197
ag198
ag199
ag200
ag201
ag202
ag203
ag204
ag205
ag206
ag207
ag208
ag209
ag210
ag211
ag212
ag213
ag214
ag215
ag216
ag217
ag218
ag219
ag220
ag221
ag222
ag223
ag224
ag225
ag226
ag227
ag228
ag229
ag230
ag231
ag232
ag233
ag234
ag235
ag236
ag237
ag238
ag239
ag240
ag241
ag242
ag243
ag244
ag245
ag246
ag247
ag248
ag249
ag250
ag251
ag252
ag253
ag254
ag255
ag256
ag257
ag258
ag259
ag260
ag261
ag262
ag263
ag264
ag265
ag266
ag267
ag268
ag269
ag270
ag271
ag272
ag273
ag274
ag275
ag276
ag277
ag278
ag279
ag280
ag281
ag282
ag283
ag284
ag285
ag286
ag287
ag288
ag289
ag290
ag291
ag292
ag293
ag294
ag295
ag296
ag297
ag298
ag299
ag300
ag301
ag302
ag303
ag304
aa.