(lp1
(lp2
(I0
F211
I1
I1
I0
tp3
a(I1
F650.453125
I3
I0
I0
tp4
a(I2
F1206.1171875
I4
I1
I0
tp5
a(I3
F1483.4609375
I4
I0
I0
tp6
a(I4
F1761.78125
I4
I1
I0
tp7
a(I5
F2317.4453125
I2
I1
I0
tp8
a(I6
F2872.1328125
I4
I0
I0
tp9
a(I7
F3427.796875
I1
I1
I0
tp10
a(I8
F3706.1171875
I1
I0
I0
tp11
a(I9
F3983.4609375
I1
I1
I0
tp12
a(I10
F4539.125
I3
I1
I0
tp13
a(I11
F5094.7890625
I1
I0
I0
tp14
a(I12
F5650.453125
I2
I1
I0
tp15
a(I13
F5927.796875
I2
I0
I0
tp16
a(I14
F6206.1171875
I2
I1
I0
tp17
a(I15
F6761.78125
I1
I1
I0
tp18
a(I16
F7317.4453125
I2
I0
I0
tp19
a(I17
F7872.1328125
I3
I1
I0
tp20
a(I18
F8150.453125
I3
I0
I0
tp21
a(I19
F8427.796875
I3
I1
I0
tp22
a(I20
F8983.4609375
I3
I1
I0
tp23
a(I21
F9539.125
I4
I1
I0
tp24
a(I22
F10094.7890625
I3
I0
I0
tp25
a(I23
F10094.7890625
I4
I0
I0
tp26
a(I24
F11483.4609375
I1
I1
I0
tp27
a(I25
F11761.78125
I2
I1
I0
tp28
a(I26
F12039.125
I1
I0
I0
tp29
a(I27
F12594.7890625
I1
I1
I0
tp30
a(I28
F12594.7890625
I2
I1
I0
tp31
a(I29
F12872.1328125
I2
I0
I0
tp32
a(I30
F13150.453125
I1
I0
I0
tp33
a(I31
F13427.796875
I4
I1
I0
tp34
a(I32
F13983.4609375
I3
I1
I0
tp35
a(I33
F14539.125
I3
I0
I0
tp36
a(I34
F14539.125
I4
I0
I0
tp37
a(I35
F17317.4453125
I3
I0
I0
tp38
a(I36
F17872.1328125
I1
I1
I0
tp39
a(I37
F18427.796875
I2
I1
I0
tp40
a(I38
F18983.4609375
I1
I0
I0
tp41
a(I39
F19539.125
I2
I0
I0
tp42
a(I40
F20372.1328125
I4
I0
I0
tp43
a(I41
F20650.453125
I3
I0
I0
tp44
a(I42
F21206.1171875
I4
I1
I0
tp45
a(I43
F21761.78125
I3
I1
I0
tp46
a(I44
F22317.4453125
I4
I1
I0
tp47
a(I45
F22872.1328125
I3
I0
I0
tp48
a(I46
F23427.796875
I4
I0
I0
tp49
a(I47
F24539.125
I2
I1
I0
tp50
a(I48
F25650.453125
I3
I1
I0
tp51
a(I49
F26761.78125
I3
I1
I0
tp52
a(I50
F27317.4453125
I4
I1
I0
tp53
a(I51
F27872.1328125
I3
I0
I0
tp54
a(I52
F27872.1328125
I4
I0
I0
tp55
a(I53
F29261.78125
I1
I1
I0
tp56
a(I54
F29539.125
I2
I1
I0
tp57
a(I55
F29817.4453125
I1
I0
I0
tp58
a(I56
F30372.1328125
I1
I1
I0
tp59
a(I57
F30372.1328125
I2
I1
I0
tp60
a(I58
F30650.453125
I2
I0
I0
tp61
a(I59
F30927.796875
I1
I0
I0
tp62
a(I60
F31206.1171875
I4
I1
I0
tp63
a(I61
F31761.78125
I3
I1
I0
tp64
a(I62
F32317.4453125
I3
I0
I0
tp65
a(I63
F32317.4453125
I4
I0
I0
tp66
a(I64
F35094.7890625
I3
I0
I0
tp67
a(I65
F35650.453125
I1
I1
I0
tp68
a(I66
F36206.1171875
I2
I1
I0
tp69
a(I67
F36761.78125
I1
I0
I0
tp70
a(I68
F37317.4453125
I2
I0
I0
tp71
a(I69
F38150.453125
I4
I0
I0
tp72
a(I70
F38427.796875
I3
I0
I0
tp73
a(I71
F38983.4609375
I4
I1
I0
tp74
a(I72
F39539.125
I3
I1
I0
tp75
a(I73
F40094.7890625
I4
I1
I0
tp76
a(I74
F40650.453125
I3
I0
I0
tp77
a(I75
F41206.1171875
I4
I0
I0
tp78
a(I76
F42317.4453125
I2
I1
I0
tp79
a(I77
F43427.796875
I3
I1
I0
tp80
a(I78
F46761.78125
I3
I1
I0
tp81
a(I79
F47733.4609375
I4
I1
I0
tp82
a(I80
F48983.4609375
I1
I1
I0
tp83
a(I81
F49956.1171875
I2
I1
I0
tp84
a(I82
F51206.1171875
I3
I0
I0
tp85
a(I83
F52177.796875
I4
I0
I0
tp86
a(I84
F53427.796875
I1
I0
I0
tp87
a(I85
F54400.453125
I2
I0
I0
tp88
a(I86
F55650.453125
I3
I1
I0
tp89
a(I87
F56622.1328125
I4
I1
I0
tp90
a(I88
F57872.1328125
I1
I1
I0
tp91
a(I89
F58844.7890625
I2
I1
I0
tp92
a(I90
F60094.7890625
I3
I0
I0
tp93
a(I91
F61067.4453125
I4
I0
I0
tp94
a(I92
F62317.4453125
I1
I0
I0
tp95
a(I93
F63289.125
I2
I0
I0
tp96
aa(lp97
(I0
F211
I1
I1
I0
tp98
a(I1
F650.453125
I3
I0
I0
tp99
a(I2
F1206.1171875
I4
I1
I0
tp100
a(I3
F1483.4609375
I4
I0
I0
tp101
a(I4
F1761.78125
I4
I1
I0
tp102
a(I5
F2317.4453125
I2
I1
I0
tp103
a(I6
F2872.1328125
I4
I0
I0
tp104
a(I7
F3427.796875
I1
I1
I0
tp105
a(I8
F3706.1171875
I1
I0
I0
tp106
a(I9
F3983.4609375
I1
I1
I0
tp107
a(I10
F4539.125
I3
I1
I0
tp108
a(I11
F5094.7890625
I1
I0
I0
tp109
a(I12
F5650.453125
I2
I1
I0
tp110
a(I13
F5927.796875
I2
I0
I0
tp111
a(I14
F6206.1171875
I2
I1
I0
tp112
a(I15
F6761.78125
I1
I1
I0
tp113
a(I16
F7317.4453125
I2
I0
I0
tp114
a(I17
F7872.1328125
I3
I1
I0
tp115
a(I18
F8150.453125
I3
I0
I0
tp116
a(I19
F8427.796875
I3
I1
I0
tp117
a(I20
F8983.4609375
I3
I1
I0
tp118
a(I21
F9539.125
I1
I0
I0
tp119
a(I22
F9539.125
I2
I0
I0
tp120
a(I23
F10094.7890625
I4
I1
I0
tp121
a(I24
F11483.4609375
I1
I1
I0
tp122
a(I25
F11761.78125
I2
I1
I0
tp123
a(I26
F12039.125
I1
I0
I0
tp124
a(I27
F12317.4453125
I3
I1
I0
tp125
a(I28
F12872.1328125
I1
I1
I0
tp126
a(I29
F13150.453125
I4
I1
I0
tp127
a(I30
F13427.796875
I3
I1
I0
tp128
a(I31
F13983.4609375
I4
I1
I0
tp129
a(I32
F14539.125
I3
I0
I0
tp130
a(I33
F14539.125
I4
I0
I0
tp131
a(I34
F17317.4453125
I3
I0
I0
tp132
a(I35
F17872.1328125
I1
I1
I0
tp133
a(I36
F18150.453125
I2
I1
I0
tp134
a(I37
F18427.796875
I1
I0
I0
tp135
a(I38
F18706.1171875
I2
I0
I0
tp136
a(I39
F18983.4609375
I1
I1
I0
tp137
a(I40
F19539.125
I3
I0
I0
tp138
a(I41
F19539.125
I4
I0
I0
tp139
a(I42
F20094.7890625
I3
I1
I0
tp140
a(I43
F20372.1328125
I4
I1
I0
tp141
a(I44
F20650.453125
I3
I0
I0
tp142
a(I45
F20927.796875
I4
I0
I0
tp143
a(I46
F21206.1171875
I3
I1
I0
tp144
a(I47
F21761.78125
I1
I0
I0
tp145
a(I48
F21761.78125
I2
I0
I0
tp146
a(I49
F22317.4453125
I1
I1
I0
tp147
a(I50
F22594.7890625
I2
I1
I0
tp148
a(I51
F22872.1328125
I1
I0
I0
tp149
a(I52
F23150.453125
I2
I0
I0
tp150
a(I53
F23427.796875
I1
I1
I0
tp151
a(I54
F23983.4609375
I3
I0
I0
tp152
a(I55
F23983.4609375
I4
I0
I0
tp153
a(I56
F24539.125
I3
I1
I0
tp154
a(I57
F24817.4453125
I4
I1
I0
tp155
a(I58
F25094.7890625
I3
I0
I0
tp156
a(I59
F25372.1328125
I4
I0
I0
tp157
a(I60
F25650.453125
I3
I1
I0
tp158
a(I61
F26206.1171875
I1
I0
I0
tp159
a(I62
F26206.1171875
I2
I0
I0
tp160
a(I63
F26761.78125
I3
I1
I0
tp161
a(I64
F27317.4453125
I1
I0
I0
tp162
a(I65
F27317.4453125
I2
I0
I0
tp163
a(I66
F27872.1328125
I4
I1
I0
tp164
a(I67
F29261.78125
I1
I1
I0
tp165
a(I68
F29539.125
I2
I1
I0
tp166
a(I69
F29817.4453125
I1
I0
I0
tp167
a(I70
F30094.7890625
I3
I1
I0
tp168
a(I71
F30650.453125
I1
I1
I0
tp169
a(I72
F30927.796875
I4
I1
I0
tp170
a(I73
F31206.1171875
I3
I1
I0
tp171
a(I74
F31761.78125
I4
I1
I0
tp172
a(I75
F32317.4453125
I3
I0
I0
tp173
a(I76
F32317.4453125
I4
I0
I0
tp174
a(I77
F35094.7890625
I3
I0
I0
tp175
a(I78
F35650.453125
I1
I1
I0
tp176
a(I79
F35927.796875
I2
I1
I0
tp177
a(I80
F36206.1171875
I1
I0
I0
tp178
a(I81
F36483.4609375
I2
I0
I0
tp179
a(I82
F36761.78125
I1
I1
I0
tp180
a(I83
F37317.4453125
I3
I0
I0
tp181
a(I84
F37317.4453125
I4
I0
I0
tp182
a(I85
F37872.1328125
I3
I1
I0
tp183
a(I86
F38150.453125
I4
I1
I0
tp184
a(I87
F38427.796875
I3
I0
I0
tp185
a(I88
F38706.1171875
I4
I0
I0
tp186
a(I89
F38983.4609375
I3
I1
I0
tp187
a(I90
F39539.125
I1
I0
I0
tp188
a(I91
F39539.125
I2
I0
I0
tp189
a(I92
F40094.7890625
I1
I1
I0
tp190
a(I93
F40372.1328125
I2
I1
I0
tp191
a(I94
F40650.453125
I1
I0
I0
tp192
a(I95
F40927.796875
I2
I0
I0
tp193
a(I96
F41206.1171875
I1
I1
I0
tp194
a(I97
F41761.78125
I3
I0
I0
tp195
a(I98
F41761.78125
I4
I0
I0
tp196
a(I99
F42317.4453125
I3
I1
I0
tp197
a(I100
F42594.7890625
I4
I1
I0
tp198
a(I101
F42872.1328125
I3
I0
I0
tp199
a(I102
F43150.453125
I4
I0
I0
tp200
a(I103
F43427.796875
I3
I1
I0
tp201
a(I104
F43983.4609375
I1
I0
I0
tp202
a(I105
F43983.4609375
I2
I0
I0
tp203
a(I106
F46761.78125
I3
I0
I0
tp204
a(I107
F47177.796875
I2
I0
I0
tp205
a(I108
F47733.4609375
I4
I0
I0
tp206
a(I109
F48427.796875
I1
I0
I0
tp207
a(I110
F48983.4609375
I3
I1
I0
tp208
a(I111
F49400.453125
I2
I1
I0
tp209
a(I112
F49956.1171875
I4
I1
I0
tp210
a(I113
F50650.453125
I1
I1
I0
tp211
a(I114
F51206.1171875
I4
I0
I0
tp212
a(I115
F51622.1328125
I2
I0
I0
tp213
a(I116
F52177.796875
I3
I0
I0
tp214
a(I117
F52872.1328125
I1
I0
I0
tp215
a(I118
F53427.796875
I4
I1
I0
tp216
a(I119
F53844.7890625
I2
I1
I0
tp217
a(I120
F54400.453125
I3
I1
I0
tp218
a(I121
F55094.7890625
I1
I1
I0
tp219
a(I122
F55650.453125
I3
I0
I0
tp220
a(I123
F56067.4453125
I2
I0
I0
tp221
a(I124
F56622.1328125
I4
I0
I0
tp222
a(I125
F57317.4453125
I1
I0
I0
tp223
a(I126
F57872.1328125
I3
I1
I0
tp224
a(I127
F58289.125
I2
I1
I0
tp225
a(I128
F58844.7890625
I4
I1
I0
tp226
a(I129
F59539.125
I1
I1
I0
tp227
a(I130
F60094.7890625
I4
I0
I0
tp228
a(I131
F60511.78125
I2
I0
I0
tp229
a(I132
F61067.4453125
I3
I0
I0
tp230
a(I133
F61761.78125
I1
I0
I0
tp231
a(I134
F62317.4453125
I4
I1
I0
tp232
a(I135
F62733.4609375
I2
I1
I0
tp233
a(I136
F63289.125
I3
I1
I0
tp234
a(I137
F63983.4609375
I1
I1
I0
tp235
aa(lp236
(I0
F211
I1
I1
I0
tp237
a(I1
F650.453125
I3
I0
I0
tp238
a(I2
F1206.1171875
I4
I1
I0
tp239
a(I3
F1483.4609375
I4
I0
I0
tp240
a(I4
F1761.78125
I4
I1
I0
tp241
a(I5
F2317.4453125
I2
I1
I0
tp242
a(I6
F2872.1328125
I4
I0
I0
tp243
a(I7
F3427.796875
I1
I1
I0
tp244
a(I8
F3706.1171875
I2
I0
I0
tp245
a(I9
F3706.1171875
I3
I0
I0
tp246
a(I10
F3983.4609375
I1
I1
I0
tp247
a(I11
F4539.125
I3
I1
I0
tp248
a(I12
F5094.7890625
I1
I0
I0
tp249
a(I13
F5650.453125
I2
I1
I0
tp250
a(I14
F5927.796875
I2
I0
I0
tp251
a(I15
F5927.796875
I4
I0
I0
tp252
a(I16
F6206.1171875
I2
I1
I0
tp253
a(I17
F6761.78125
I1
I1
I0
tp254
a(I18
F7317.4453125
I2
I0
I0
tp255
a(I19
F7872.1328125
I3
I1
I0
tp256
a(I20
F8150.453125
I1
I0
I0
tp257
a(I21
F8150.453125
I2
I0
I0
tp258
a(I22
F8427.796875
I3
I1
I0
tp259
a(I23
F8983.4609375
I3
I1
I0
tp260
a(I24
F9539.125
I1
I0
I0
tp261
a(I25
F9539.125
I2
I0
I0
tp262
a(I26
F10094.7890625
I4
I1
I0
tp263
a(I27
F10650.453125
I1
I1
I0
tp264
a(I28
F10650.453125
I4
I1
I0
tp265
a(I29
F11483.4609375
I1
I1
I0
tp266
a(I30
F11761.78125
I2
I1
I0
tp267
a(I31
F12039.125
I1
I0
I0
tp268
a(I32
F12317.4453125
I3
I1
I0
tp269
a(I33
F12594.7890625
I2
I1
I0
tp270
a(I34
F12872.1328125
I1
I1
I0
tp271
a(I35
F13150.453125
I4
I1
I0
tp272
a(I36
F13427.796875
I3
I1
I0
tp273
a(I37
F13983.4609375
I4
I1
I0
tp274
a(I38
F14539.125
I1
I0
I0
tp275
a(I39
F14539.125
I4
I0
I0
tp276
a(I40
F15094.7890625
I3
I1
I0
tp277
a(I41
F15650.453125
I2
I0
I0
tp278
a(I42
F16206.1171875
I1
I0
I0
tp279
a(I43
F16761.78125
I4
I1
I0
tp280
a(I44
F17317.4453125
I3
I0
I0
tp281
a(I45
F17594.7890625
I4
I0
I0
tp282
a(I46
F17872.1328125
I1
I1
I0
tp283
a(I47
F18150.453125
I2
I1
I0
tp284
a(I48
F18427.796875
I3
I0
I0
tp285
a(I49
F18706.1171875
I4
I0
I0
tp286
a(I50
F18983.4609375
I1
I1
I0
tp287
a(I51
F19539.125
I2
I1
I0
tp288
a(I52
F19539.125
I3
I1
I0
tp289
a(I53
F20094.7890625
I3
I1
I0
tp290
a(I54
F20372.1328125
I4
I1
I0
tp291
a(I55
F20650.453125
I1
I0
I0
tp292
a(I56
F20927.796875
I2
I0
I0
tp293
a(I57
F21206.1171875
I3
I1
I0
tp294
a(I58
F21761.78125
I2
I1
I0
tp295
a(I59
F21900.453125
I1
I1
I0
tp296
a(I60
F22039.125
I3
I1
I0
tp297
a(I61
F22317.4453125
I1
I1
I0
tp298
a(I62
F22594.7890625
I2
I1
I0
tp299
a(I63
F22872.1328125
I3
I0
I0
tp300
a(I64
F23150.453125
I4
I0
I0
tp301
a(I65
F23427.796875
I1
I1
I0
tp302
a(I66
F23983.4609375
I2
I1
I0
tp303
a(I67
F23983.4609375
I4
I1
I0
tp304
a(I68
F24539.125
I3
I1
I0
tp305
a(I69
F24817.4453125
I4
I1
I0
tp306
a(I70
F25094.7890625
I1
I0
I0
tp307
a(I71
F25372.1328125
I2
I0
I0
tp308
a(I72
F25650.453125
I3
I1
I0
tp309
a(I73
F26206.1171875
I1
I1
I0
tp310
a(I74
F26206.1171875
I3
I1
I0
tp311
a(I75
F26761.78125
I3
I1
I0
tp312
a(I76
F27317.4453125
I1
I0
I0
tp313
a(I77
F27317.4453125
I2
I0
I0
tp314
a(I78
F27872.1328125
I4
I1
I0
tp315
a(I79
F28427.796875
I1
I1
I0
tp316
a(I80
F28427.796875
I4
I1
I0
tp317
a(I81
F29261.78125
I1
I1
I0
tp318
a(I82
F29539.125
I2
I1
I0
tp319
a(I83
F29817.4453125
I1
I0
I0
tp320
a(I84
F30094.7890625
I3
I1
I0
tp321
a(I85
F30372.1328125
I2
I1
I0
tp322
a(I86
F30650.453125
I1
I1
I0
tp323
a(I87
F30927.796875
I4
I1
I0
tp324
a(I88
F31206.1171875
I3
I1
I0
tp325
a(I89
F31761.78125
I4
I1
I0
tp326
a(I90
F32317.4453125
I1
I0
I0
tp327
a(I91
F32317.4453125
I4
I0
I0
tp328
a(I92
F32872.1328125
I3
I1
I0
tp329
a(I93
F33427.796875
I2
I0
I0
tp330
a(I94
F33983.4609375
I1
I0
I0
tp331
a(I95
F34539.125
I4
I1
I0
tp332
a(I96
F35094.7890625
I3
I0
I0
tp333
a(I97
F35372.1328125
I4
I0
I0
tp334
a(I98
F35650.453125
I1
I1
I0
tp335
a(I99
F35927.796875
I2
I1
I0
tp336
a(I100
F36206.1171875
I3
I0
I0
tp337
a(I101
F36483.4609375
I4
I0
I0
tp338
a(I102
F36761.78125
I1
I1
I0
tp339
a(I103
F37317.4453125
I2
I1
I0
tp340
a(I104
F37317.4453125
I3
I1
I0
tp341
a(I105
F37872.1328125
I3
I1
I0
tp342
a(I106
F38150.453125
I4
I1
I0
tp343
a(I107
F38427.796875
I1
I0
I0
tp344
a(I108
F38706.1171875
I2
I0
I0
tp345
a(I109
F38983.4609375
I3
I1
I0
tp346
a(I110
F39539.125
I2
I1
I0
tp347
a(I111
F39677.796875
I1
I1
I0
tp348
a(I112
F39817.4453125
I3
I1
I0
tp349
a(I113
F40094.7890625
I1
I1
I0
tp350
a(I114
F40372.1328125
I2
I1
I0
tp351
a(I115
F40650.453125
I3
I0
I0
tp352
a(I116
F40927.796875
I4
I0
I0
tp353
a(I117
F41206.1171875
I1
I1
I0
tp354
a(I118
F41761.78125
I2
I1
I0
tp355
a(I119
F41761.78125
I4
I1
I0
tp356
a(I120
F42317.4453125
I3
I1
I0
tp357
a(I121
F42594.7890625
I4
I1
I0
tp358
a(I122
F42872.1328125
I1
I0
I0
tp359
a(I123
F43150.453125
I2
I0
I0
tp360
a(I124
F43427.796875
I3
I1
I0
tp361
a(I125
F43983.4609375
I1
I1
I0
tp362
a(I126
F43983.4609375
I3
I1
I0
tp363
a(I127
F46761.78125
I3
I0
I0
tp364
a(I128
F47177.796875
I2
I0
I0
tp365
a(I129
F47733.4609375
I4
I0
I0
tp366
a(I130
F48427.796875
I1
I0
I0
tp367
a(I131
F48983.4609375
I3
I1
I0
tp368
a(I132
F49400.453125
I2
I1
I0
tp369
a(I133
F49956.1171875
I4
I1
I0
tp370
a(I134
F50650.453125
I1
I1
I0
tp371
a(I135
F51206.1171875
I4
I0
I0
tp372
a(I136
F51622.1328125
I2
I0
I0
tp373
a(I137
F52177.796875
I3
I0
I0
tp374
a(I138
F52872.1328125
I1
I0
I0
tp375
a(I139
F53427.796875
I4
I1
I0
tp376
a(I140
F53844.7890625
I2
I1
I0
tp377
a(I141
F54400.453125
I3
I1
I0
tp378
a(I142
F55094.7890625
I1
I1
I0
tp379
a(I143
F55650.453125
I3
I0
I0
tp380
a(I144
F56067.4453125
I2
I0
I0
tp381
a(I145
F56622.1328125
I4
I0
I0
tp382
a(I146
F57317.4453125
I1
I0
I0
tp383
a(I147
F57872.1328125
I3
I1
I0
tp384
a(I148
F58289.125
I2
I1
I0
tp385
a(I149
F58844.7890625
I4
I1
I0
tp386
a(I150
F59539.125
I1
I1
I0
tp387
a(I151
F60094.7890625
I4
I0
I0
tp388
a(I152
F60511.78125
I2
I0
I0
tp389
a(I153
F61067.4453125
I3
I0
I0
tp390
a(I154
F61761.78125
I1
I0
I0
tp391
a(I155
F62317.4453125
I4
I1
I0
tp392
a(I156
F62733.4609375
I2
I1
I0
tp393
a(I157
F63289.125
I3
I1
I0
tp394
a(I158
F63983.4609375
I1
I1
I0
tp395
aa.