(lp1
(lp2
(I0
F144.00144
I3
I1
I0
tp3
a(I1
F451.62170367187503
I1
I0
I0
tp4
a(I2
F1374.4824946875001
I4
I1
I0
tp5
a(I3
F1951.6367036718752
I2
I1
I0
tp6
a(I4
F2874.4974946875
I1
I0
I0
tp7
a(I5
F2874.4974946875
I2
I0
I0
tp8
a(I6
F3797.3582857031251
I3
I0
I0
tp9
a(I7
F4144.04144
I1
I1
I0
tp10
a(I8
F5066.9022310156251
I4
I0
I0
tp11
a(I9
F5644.0564400000003
I2
I1
I0
tp12
a(I10
F6566.9172310156255
I1
I0
I0
tp13
a(I11
F6566.9172310156255
I2
I0
I0
tp14
a(I12
F7489.7780220312507
I1
I1
I0
tp15
a(I13
F8412.6388130468749
I3
I1
I0
tp16
a(I14
F9335.499604062501
I2
I1
I0
tp17
a(I15
F9797.4182857031265
I4
I1
I0
tp18
a(I16
F10259.33696734375
I1
I1
I0
tp19
a(I17
F11182.197758359376
I1
I0
I0
tp20
a(I18
F12105.058549375
I3
I0
I0
tp21
a(I19
F13027.919340390627
I2
I0
I0
tp22
a(I20
F13489.83802203125
I4
I0
I0
tp23
a(I21
F13951.756703671876
I1
I0
I0
tp24
a(I22
F14874.617494687502
I1
I1
I0
tp25
a(I23
F14874.617494687502
I2
I1
I0
tp26
a(I24
F15797.478285703126
I3
I0
I0
tp27
a(I25
F15797.478285703126
I4
I0
I0
tp28
a(I26
F16720.339076718752
I1
I0
I0
tp29
a(I27
F16720.339076718752
I2
I0
I0
tp30
a(I28
F17644.176440000003
I3
I1
I0
tp31
a(I29
F17644.176440000003
I4
I1
I0
tp32
a(I30
F17989.883022031252
I3
I0
I0
tp33
a(I31
F18567.037231015627
I1
I1
I0
tp34
a(I32
F18567.037231015627
I2
I1
I0
tp35
a(I33
F19489.898022031251
I3
I0
I0
tp36
a(I34
F19489.898022031251
I4
I0
I0
tp37
a(I35
F20412.758813046876
I1
I0
I0
tp38
a(I36
F20412.758813046876
I2
I0
I0
tp39
a(I37
F21335.6196040625
I3
I1
I0
tp40
a(I38
F21335.6196040625
I4
I1
I0
tp41
a(I39
F21682.302758359376
I3
I0
I0
tp42
a(I40
F22259.456967343751
I1
I1
I0
tp43
a(I41
F22605.163549375
I2
I1
I0
tp44
a(I42
F24105.178549375003
I3
I1
I0
tp45
a(I43
F24567.097231015625
I3
I0
I0
tp46
a(I44
F25028.039340390627
I4
I1
I0
tp47
a(I45
F25489.958022031253
I4
I0
I0
tp48
a(I46
F25951.876703671878
I1
I1
I0
tp49
a(I47
F26297.583285703127
I2
I1
I0
tp50
a(I48
F27797.598285703127
I3
I1
I0
tp51
a(I49
F28259.516967343752
I3
I0
I0
tp52
a(I50
F28720.459076718751
I4
I1
I0
tp53
a(I51
F29182.377758359376
I4
I0
I0
tp54
a(I52
F29644.296440000002
I3
I1
I0
tp55
aa(lp56
(I0
F144.00144
I3
I0
I0
tp57
a(I1
F451.62170367187503
I2
I1
I0
tp58
a(I2
F682.09275835937501
I1
I1
I0
tp59
a(I3
F1374.4824946875001
I4
I0
I0
tp60
a(I4
F1720.1890767187501
I3
I1
I0
tp61
a(I5
F1951.6367036718752
I1
I0
I0
tp62
a(I6
F2297.3432857031253
I2
I0
I0
tp63
a(I7
F2644.0264400000001
I3
I0
I0
tp64
a(I8
F2874.4974946875
I1
I1
I0
tp65
a(I9
F2874.4974946875
I2
I1
I0
tp66
a(I10
F3797.3582857031251
I3
I1
I0
tp67
a(I11
F4144.04144
I2
I0
I0
tp68
a(I12
F4374.5124946875003
I1
I0
I0
tp69
a(I13
F5066.9022310156251
I4
I1
I0
tp70
a(I14
F5412.6088130468752
I3
I0
I0
tp71
a(I15
F5644.0564400000003
I1
I1
I0
tp72
a(I16
F5989.7630220312503
I2
I1
I0
tp73
a(I17
F6335.4696040625004
I3
I1
I0
tp74
a(I18
F6566.9172310156255
I1
I0
I0
tp75
a(I19
F6566.9172310156255
I2
I0
I0
tp76
a(I20
F7489.7780220312507
I1
I1
I0
tp77
a(I21
F7951.6967036718752
I3
I1
I0
tp78
a(I22
F8412.6388130468749
I2
I1
I0
tp79
a(I23
F8874.5574946875004
I4
I1
I0
tp80
a(I24
F9335.499604062501
I1
I0
I0
tp81
a(I25
F9797.4182857031265
I3
I0
I0
tp82
a(I26
F10259.33696734375
I2
I0
I0
tp83
a(I27
F10720.279076718751
I4
I0
I0
tp84
a(I28
F11182.197758359376
I1
I1
I0
tp85
a(I29
F11644.116440000002
I3
I1
I0
tp86
a(I30
F12105.058549375
I2
I1
I0
tp87
a(I31
F12566.977231015626
I4
I1
I0
tp88
a(I32
F13027.919340390627
I1
I0
I0
tp89
a(I33
F13489.83802203125
I3
I0
I0
tp90
a(I34
F13951.756703671876
I2
I0
I0
tp91
a(I35
F14412.698813046876
I4
I0
I0
tp92
a(I36
F14874.617494687502
I2
I1
I0
tp93
a(I37
F15220.324076718751
I4
I1
I0
tp94
a(I38
F15567.007231015627
I1
I1
I0
tp95
a(I39
F15797.478285703126
I3
I0
I0
tp96
a(I40
F16144.161440000002
I1
I0
I0
tp97
a(I41
F16489.868022031253
I4
I0
I0
tp98
a(I42
F16720.339076718752
I2
I0
I0
tp99
a(I43
F17067.022231015628
I4
I1
I0
tp100
a(I44
F17412.728813046877
I1
I1
I0
tp101
a(I45
F17644.176440000003
I3
I0
I0
tp102
a(I46
F17989.883022031252
I2
I0
I0
tp103
a(I47
F18567.037231015627
I2
I1
I0
tp104
a(I48
F18912.743813046876
I4
I1
I0
tp105
a(I49
F19259.426967343752
I1
I1
I0
tp106
a(I50
F19489.898022031251
I3
I0
I0
tp107
a(I51
F19835.604604062501
I1
I0
I0
tp108
a(I52
F20182.287758359376
I4
I0
I0
tp109
a(I53
F20412.758813046876
I2
I0
I0
tp110
a(I54
F20759.441967343751
I4
I1
I0
tp111
a(I55
F21105.148549375001
I1
I1
I0
tp112
a(I56
F21335.6196040625
I3
I0
I0
tp113
a(I57
F21682.302758359376
I2
I0
I0
tp114
a(I58
F22028.009340390625
I4
I1
I0
tp115
a(I59
F22259.456967343751
I1
I0
I0
tp116
a(I60
F22605.163549375
I2
I0
I0
tp117
a(I61
F24105.178549375003
I3
I1
I0
tp118
a(I62
F24567.097231015625
I3
I0
I0
tp119
a(I63
F24682.332758359378
I4
I1
I0
tp120
a(I64
F25028.039340390627
I1
I1
I0
tp121
a(I65
F25489.958022031253
I1
I0
I0
tp122
a(I66
F25605.193549375002
I2
I1
I0
tp123
a(I67
F25951.876703671878
I1
I0
I0
tp124
a(I68
F26297.583285703127
I2
I0
I0
tp125
a(I69
F27797.598285703127
I3
I1
I0
tp126
a(I70
F28259.516967343752
I3
I0
I0
tp127
a(I71
F28374.752494687502
I4
I1
I0
tp128
a(I72
F28720.459076718751
I1
I1
I0
tp129
a(I73
F29182.377758359376
I1
I0
I0
tp130
a(I74
F29297.613285703126
I2
I1
I0
tp131
aa(lp132
(I0
F144.00144
I3
I0
I0
tp133
a(I1
F220.17407671875
I3
I1
I0
tp134
a(I2
F451.62170367187503
I2
I1
I0
tp135
a(I3
F682.09275835937501
I1
I1
I0
tp136
a(I4
F1374.4824946875001
I4
I0
I0
tp137
a(I5
F1604.9535493750002
I2
I0
I0
tp138
a(I6
F1720.1890767187501
I3
I1
I0
tp139
a(I7
F1951.6367036718752
I1
I0
I0
tp140
a(I8
F2297.3432857031253
I2
I0
I0
tp141
a(I9
F2644.0264400000001
I3
I0
I0
tp142
a(I10
F2874.4974946875
I1
I1
I0
tp143
a(I11
F2989.7330220312501
I2
I1
I0
tp144
a(I12
F3797.3582857031251
I3
I1
I0
tp145
a(I13
F3912.5938130468753
I3
I0
I0
tp146
a(I14
F4144.04144
I2
I0
I0
tp147
a(I15
F4374.5124946875003
I1
I0
I0
tp148
a(I16
F5066.9022310156251
I4
I1
I0
tp149
a(I17
F5297.3732857031255
I2
I1
I0
tp150
a(I18
F5412.6088130468752
I3
I0
I0
tp151
a(I19
F5644.0564400000003
I1
I1
I0
tp152
a(I20
F5989.7630220312503
I2
I1
I0
tp153
a(I21
F6335.4696040625004
I3
I1
I0
tp154
a(I22
F6566.9172310156255
I1
I0
I0
tp155
a(I23
F6682.1527583593752
I2
I0
I0
tp156
a(I24
F7720.2490767187501
I3
I0
I0
tp157
a(I25
F8066.9322310156258
I1
I1
I0
tp158
a(I26
F8412.6388130468749
I2
I0
I0
tp159
a(I27
F8759.3219673437507
I4
I1
I0
tp160
a(I28
F9335.499604062501
I1
I1
I0
tp161
a(I29
F9682.1827583593749
I3
I1
I0
tp162
a(I30
F10027.889340390626
I2
I1
I0
tp163
a(I31
F10259.33696734375
I4
I0
I0
tp164
a(I32
F10605.043549375001
I1
I0
I0
tp165
a(I33
F10951.726703671875
I3
I0
I0
tp166
a(I34
F11412.668813046876
I3
I0
I0
tp167
a(I35
F11759.351967343751
I1
I1
I0
tp168
a(I36
F12105.058549375
I2
I0
I0
tp169
a(I37
F12451.741703671876
I4
I1
I0
tp170
a(I38
F13027.919340390627
I1
I1
I0
tp171
a(I39
F13374.6024946875
I3
I1
I0
tp172
a(I40
F13720.309076718751
I2
I1
I0
tp173
a(I41
F13951.756703671876
I4
I0
I0
tp174
a(I42
F14297.463285703127
I1
I0
I0
tp175
a(I43
F14644.14644
I3
I0
I0
tp176
a(I44
F14874.617494687502
I3
I0
I0
tp177
a(I45
F14874.617494687502
I4
I0
I0
tp178
a(I46
F15220.324076718751
I4
I1
I0
tp179
a(I47
F15567.007231015627
I1
I1
I0
tp180
a(I48
F15797.478285703126
I1
I0
I0
tp181
a(I49
F15797.478285703126
I3
I0
I0
tp182
a(I50
F16144.161440000002
I1
I0
I0
tp183
a(I51
F16489.868022031253
I4
I0
I0
tp184
a(I52
F16720.339076718752
I2
I0
I0
tp185
a(I53
F16720.339076718752
I3
I0
I0
tp186
a(I54
F17067.022231015628
I4
I1
I0
tp187
a(I55
F17412.728813046877
I1
I1
I0
tp188
a(I56
F17644.176440000003
I1
I0
I0
tp189
a(I57
F17644.176440000003
I4
I0
I0
tp190
a(I58
F17989.883022031252
I2
I0
I0
tp191
a(I59
F18567.037231015627
I2
I0
I0
tp192
a(I60
F18567.037231015627
I4
I0
I0
tp193
a(I61
F18912.743813046876
I4
I1
I0
tp194
a(I62
F19259.426967343752
I1
I1
I0
tp195
a(I63
F19489.898022031251
I1
I0
I0
tp196
a(I64
F19489.898022031251
I2
I0
I0
tp197
a(I65
F19835.604604062501
I1
I0
I0
tp198
a(I66
F20182.287758359376
I4
I0
I0
tp199
a(I67
F20412.758813046876
I1
I0
I0
tp200
a(I68
F20412.758813046876
I4
I0
I0
tp201
a(I69
F20759.441967343751
I4
I1
I0
tp202
a(I70
F21105.148549375001
I1
I1
I0
tp203
a(I71
F21335.6196040625
I1
I0
I0
tp204
a(I72
F21335.6196040625
I3
I0
I0
tp205
a(I73
F21682.302758359376
I2
I0
I0
tp206
a(I74
F22028.009340390625
I3
I1
I0
tp207
a(I75
F22259.456967343751
I1
I0
I0
tp208
a(I76
F22605.163549375
I2
I0
I0
tp209
a(I77
F24105.178549375003
I3
I1
I0
tp210
a(I78
F24335.649604062502
I4
I0
I0
tp211
a(I79
F24567.097231015625
I3
I0
I0
tp212
a(I80
F24682.332758359378
I4
I1
I0
tp213
a(I81
F25028.039340390627
I1
I1
I0
tp214
a(I82
F25259.486967343753
I2
I0
I0
tp215
a(I83
F25489.958022031253
I1
I0
I0
tp216
a(I84
F25605.193549375002
I2
I1
I0
tp217
a(I85
F25951.876703671878
I1
I0
I0
tp218
a(I86
F26297.583285703127
I2
I0
I0
tp219
a(I87
F27797.598285703127
I3
I1
I0
tp220
a(I88
F28028.069340390626
I4
I0
I0
tp221
a(I89
F28259.516967343752
I3
I0
I0
tp222
a(I90
F28374.752494687502
I4
I1
I0
tp223
a(I91
F28720.459076718751
I1
I1
I0
tp224
a(I92
F28951.906703671877
I2
I0
I0
tp225
a(I93
F29182.377758359376
I1
I0
I0
tp226
a(I94
F29297.613285703126
I2
I1
I0
tp227
a(I95
F29644.296440000002
I3
I0
I0
tp228
a(I96
F29759.531967343752
I3
I1
I0
tp229
aa.