(lp1
(lp2
(I0
F149.00293001440002
I3
I1
I0
tp3
a(I1
F456.62626988891179
I1
I0
I0
tp4
a(I2
F1379.496289512447
I4
I1
I0
tp5
a(I3
F1956.656270038912
I2
I1
I0
tp6
a(I4
F2879.5262896624472
I1
I0
I0
tp7
a(I5
F2879.5262896624472
I2
I0
I0
tp8
a(I6
F3802.3963092859826
I3
I0
I0
tp9
a(I7
F4149.0829304143999
I1
I1
I0
tp10
a(I8
F5071.9529500379358
I4
I0
I0
tp11
a(I9
F5649.1129305644008
I2
I1
I0
tp12
a(I10
F6571.9829501879358
I1
I0
I0
tp13
a(I11
F6571.9829501879358
I2
I0
I0
tp14
a(I12
F7494.8529698114717
I1
I1
I0
tp15
a(I13
F8417.7229894350057
I3
I1
I0
tp16
a(I14
F9340.5930090585425
I2
I1
I0
tp17
a(I15
F9802.5163098859848
I4
I1
I0
tp18
a(I16
F10264.439610713423
I1
I1
I0
tp19
a(I17
F11187.30963033696
I1
I0
I0
tp20
a(I18
F12110.179649960495
I3
I0
I0
tp21
a(I19
F13033.049669584032
I2
I0
I0
tp22
a(I20
F13494.972970411471
I4
I0
I0
tp23
a(I21
F13956.896271238913
I1
I0
I0
tp24
a(I22
F14879.76629086245
I1
I1
I0
tp25
a(I23
F14879.76629086245
I2
I1
I0
tp26
a(I24
F15802.636310485985
I3
I0
I0
tp27
a(I25
F15802.636310485985
I4
I0
I0
tp28
a(I26
F16725.506330109522
I1
I0
I0
tp29
a(I27
F16725.506330109522
I2
I0
I0
tp30
a(I28
F17649.352931764402
I3
I1
I0
tp31
a(I29
F17649.352931764402
I4
I1
I0
tp32
a(I30
F17995.062970861472
I3
I0
I0
tp33
a(I31
F18572.222951387939
I1
I1
I0
tp34
a(I32
F18572.222951387939
I2
I1
I0
tp35
a(I33
F19495.092971011472
I3
I0
I0
tp36
a(I34
F19495.092971011472
I4
I0
I0
tp37
a(I35
F20417.962990635009
I1
I0
I0
tp38
a(I36
F20417.962990635009
I2
I0
I0
tp39
a(I37
F21340.833010258542
I3
I1
I0
tp40
a(I38
F21340.833010258542
I4
I1
I0
tp41
a(I39
F21687.51963138696
I3
I0
I0
tp42
a(I40
F22264.679611913427
I1
I1
I0
tp43
a(I41
F22610.389651010497
I2
I1
I0
tp44
a(I42
F24110.419651160497
I3
I1
I0
tp45
a(I43
F24572.342951987936
I3
I0
I0
tp46
a(I44
F25033.289670784034
I4
I1
I0
tp47
a(I45
F25495.212971611476
I4
I0
I0
tp48
a(I46
F25957.136272438918
I1
I1
I0
tp49
a(I47
F26302.846311535985
I2
I1
I0
tp50
a(I48
F27802.876311685985
I3
I1
I0
tp51
a(I49
F28264.799612513427
I3
I0
I0
tp52
a(I50
F28725.746331309521
I4
I1
I0
tp53
a(I51
F29187.669632136964
I4
I0
I0
tp54
a(I52
F29649.592932964402
I3
I1
I0
tp55
aa(lp56
(I0
F149.00293001440002
I3
I0
I0
tp57
a(I1
F456.62626988891179
I2
I1
I0
tp58
a(I2
F687.0996292869587
I1
I1
I0
tp59
a(I3
F1379.496289512447
I4
I0
I0
tp60
a(I4
F1725.2063286095174
I3
I1
I0
tp61
a(I5
F1956.656270038912
I1
I0
I0
tp62
a(I6
F2302.3663091359826
I2
I0
I0
tp63
a(I7
F2649.0529302644004
I3
I0
I0
tp64
a(I8
F2879.5262896624472
I1
I1
I0
tp65
a(I9
F2879.5262896624472
I2
I1
I0
tp66
a(I10
F3802.3963092859826
I3
I1
I0
tp67
a(I11
F4149.0829304143999
I2
I0
I0
tp68
a(I12
F4379.5562898124472
I1
I0
I0
tp69
a(I13
F5071.9529500379358
I4
I1
I0
tp70
a(I14
F5417.6629891350058
I3
I0
I0
tp71
a(I15
F5649.1129305644008
I1
I1
I0
tp72
a(I16
F5994.8229696614708
I2
I1
I0
tp73
a(I17
F6340.5330087585417
I3
I1
I0
tp74
a(I18
F6571.9829501879358
I1
I0
I0
tp75
a(I19
F6571.9829501879358
I2
I0
I0
tp76
a(I20
F7494.8529698114717
I1
I1
I0
tp77
a(I21
F7956.7762706389121
I3
I1
I0
tp78
a(I22
F8417.7229894350057
I2
I1
I0
tp79
a(I23
F8879.646290262448
I4
I1
I0
tp80
a(I24
F9340.5930090585425
I1
I0
I0
tp81
a(I25
F9802.5163098859848
I3
I0
I0
tp82
a(I26
F10264.439610713423
I2
I0
I0
tp83
a(I27
F10725.386329509518
I4
I0
I0
tp84
a(I28
F11187.30963033696
I1
I1
I0
tp85
a(I29
F11649.232931164403
I3
I1
I0
tp86
a(I30
F12110.179649960495
I2
I1
I0
tp87
a(I31
F12572.102950787938
I4
I1
I0
tp88
a(I32
F13033.049669584032
I1
I0
I0
tp89
a(I33
F13494.972970411471
I3
I0
I0
tp90
a(I34
F13956.896271238913
I2
I0
I0
tp91
a(I35
F14417.842990035007
I4
I0
I0
tp92
a(I36
F14879.76629086245
I2
I1
I0
tp93
a(I37
F15225.47632995952
I4
I1
I0
tp94
a(I38
F15572.162951087937
I1
I1
I0
tp95
a(I39
F15802.636310485985
I3
I0
I0
tp96
a(I40
F16149.322931614402
I1
I0
I0
tp97
a(I41
F16495.032970711472
I4
I0
I0
tp98
a(I42
F16725.506330109522
I2
I0
I0
tp99
a(I43
F17072.192951237939
I4
I1
I0
tp100
a(I44
F17417.902990335009
I1
I1
I0
tp101
a(I45
F17649.352931764402
I3
I0
I0
tp102
a(I46
F17995.062970861472
I2
I0
I0
tp103
a(I47
F18572.222951387939
I2
I1
I0
tp104
a(I48
F18917.932990485009
I4
I1
I0
tp105
a(I49
F19264.619611613427
I1
I1
I0
tp106
a(I50
F19495.092971011472
I3
I0
I0
tp107
a(I51
F19840.803010108542
I1
I0
I0
tp108
a(I52
F20187.48963123696
I4
I0
I0
tp109
a(I53
F20417.962990635009
I2
I0
I0
tp110
a(I54
F20764.649611763427
I4
I1
I0
tp111
a(I55
F21110.359650860497
I1
I1
I0
tp112
a(I56
F21340.833010258542
I3
I0
I0
tp113
a(I57
F21687.51963138696
I2
I0
I0
tp114
a(I58
F22033.22967048403
I4
I1
I0
tp115
a(I59
F22264.679611913427
I1
I0
I0
tp116
a(I60
F22610.389651010497
I2
I0
I0
tp117
a(I61
F24110.419651160497
I3
I1
I0
tp118
a(I62
F24572.342951987936
I3
I0
I0
tp119
a(I63
F24687.579631686964
I4
I1
I0
tp120
a(I64
F25033.289670784034
I1
I1
I0
tp121
a(I65
F25495.212971611476
I1
I0
I0
tp122
a(I66
F25610.449651310497
I2
I1
I0
tp123
a(I67
F25957.136272438918
I1
I0
I0
tp124
a(I68
F26302.846311535985
I2
I0
I0
tp125
a(I69
F27802.876311685985
I3
I1
I0
tp126
a(I70
F28264.799612513427
I3
I0
I0
tp127
a(I71
F28380.036292212451
I4
I1
I0
tp128
a(I72
F28725.746331309521
I1
I1
I0
tp129
a(I73
F29187.669632136964
I1
I0
I0
tp130
a(I74
F29302.906311835985
I2
I1
I0
tp131
aa(lp132
(I0
F149.00293001440002
I3
I0
I0
tp133
a(I1
F225.17632845951721
I3
I1
I0
tp134
a(I2
F456.62626988891179
I2
I1
I0
tp135
a(I3
F687.0996292869587
I1
I1
I0
tp136
a(I4
F1379.496289512447
I4
I0
I0
tp137
a(I5
F1609.969648910494
I2
I0
I0
tp138
a(I6
F1725.2063286095174
I3
I1
I0
tp139
a(I7
F1956.656270038912
I1
I0
I0
tp140
a(I8
F2302.3663091359826
I2
I0
I0
tp141
a(I9
F2649.0529302644004
I3
I0
I0
tp142
a(I10
F2879.5262896624472
I1
I1
I0
tp143
a(I11
F2994.7629693614708
I2
I1
I0
tp144
a(I12
F3802.3963092859826
I3
I1
I0
tp145
a(I13
F3917.6329889850063
I3
I0
I0
tp146
a(I14
F4149.0829304143999
I2
I0
I0
tp147
a(I15
F4379.5562898124472
I1
I0
I0
tp148
a(I16
F5071.9529500379358
I4
I1
I0
tp149
a(I17
F5302.4263094359831
I2
I1
I0
tp150
a(I18
F5417.6629891350058
I3
I0
I0
tp151
a(I19
F5649.1129305644008
I1
I1
I0
tp152
a(I20
F5994.8229696614708
I2
I1
I0
tp153
a(I21
F6340.5330087585417
I3
I1
I0
tp154
a(I22
F6571.9829501879358
I1
I0
I0
tp155
a(I23
F6687.2196298869594
I2
I0
I0
tp156
a(I24
F7725.326329209518
I3
I0
I0
tp157
a(I25
F8072.0129503379367
I1
I1
I0
tp158
a(I26
F8417.7229894350057
I2
I0
I0
tp159
a(I27
F8764.4096105634253
I4
I1
I0
tp160
a(I28
F9340.5930090585425
I1
I1
I0
tp161
a(I29
F9687.2796301869585
I3
I1
I0
tp162
a(I30
F10032.98966928403
I2
I1
I0
tp163
a(I31
F10264.439610713423
I4
I0
I0
tp164
a(I32
F10610.149649810495
I1
I0
I0
tp165
a(I33
F10956.836270938913
I3
I0
I0
tp166
a(I34
F11417.782989735008
I3
I0
I0
tp167
a(I35
F11764.469610863425
I1
I1
I0
tp168
a(I36
F12110.179649960495
I2
I0
I0
tp169
a(I37
F12456.866271088913
I4
I1
I0
tp170
a(I38
F13033.049669584032
I1
I1
I0
tp171
a(I39
F13379.736290712448
I3
I1
I0
tp172
a(I40
F13725.44632980952
I2
I1
I0
tp173
a(I41
F13956.896271238913
I4
I0
I0
tp174
a(I42
F14302.606310335985
I1
I0
I0
tp175
a(I43
F14649.292931464401
I3
I0
I0
tp176
a(I44
F14879.76629086245
I3
I0
I0
tp177
a(I45
F14879.76629086245
I4
I0
I0
tp178
a(I46
F15225.47632995952
I4
I1
I0
tp179
a(I47
F15572.162951087937
I1
I1
I0
tp180
a(I48
F15802.636310485985
I1
I0
I0
tp181
a(I49
F15802.636310485985
I3
I0
I0
tp182
a(I50
F16149.322931614402
I1
I0
I0
tp183
a(I51
F16495.032970711472
I4
I0
I0
tp184
a(I52
F16725.506330109522
I2
I0
I0
tp185
a(I53
F16725.506330109522
I3
I0
I0
tp186
a(I54
F17072.192951237939
I4
I1
I0
tp187
a(I55
F17417.902990335009
I1
I1
I0
tp188
a(I56
F17649.352931764402
I1
I0
I0
tp189
a(I57
F17649.352931764402
I4
I0
I0
tp190
a(I58
F17995.062970861472
I2
I0
I0
tp191
a(I59
F18572.222951387939
I2
I0
I0
tp192
a(I60
F18572.222951387939
I4
I0
I0
tp193
a(I61
F18917.932990485009
I4
I1
I0
tp194
a(I62
F19264.619611613427
I1
I1
I0
tp195
a(I63
F19495.092971011472
I1
I0
I0
tp196
a(I64
F19495.092971011472
I2
I0
I0
tp197
a(I65
F19840.803010108542
I1
I0
I0
tp198
a(I66
F20187.48963123696
I4
I0
I0
tp199
a(I67
F20417.962990635009
I1
I0
I0
tp200
a(I68
F20417.962990635009
I4
I0
I0
tp201
a(I69
F20764.649611763427
I4
I1
I0
tp202
a(I70
F21110.359650860497
I1
I1
I0
tp203
a(I71
F21340.833010258542
I1
I0
I0
tp204
a(I72
F21340.833010258542
I3
I0
I0
tp205
a(I73
F21687.51963138696
I2
I0
I0
tp206
a(I74
F22033.22967048403
I3
I1
I0
tp207
a(I75
F22264.679611913427
I1
I0
I0
tp208
a(I76
F22610.389651010497
I2
I0
I0
tp209
a(I77
F24110.419651160497
I3
I1
I0
tp210
a(I78
F24340.893010558546
I4
I0
I0
tp211
a(I79
F24572.342951987936
I3
I0
I0
tp212
a(I80
F24687.579631686964
I4
I1
I0
tp213
a(I81
F25033.289670784034
I1
I1
I0
tp214
a(I82
F25264.739612213427
I2
I0
I0
tp215
a(I83
F25495.212971611476
I1
I0
I0
tp216
a(I84
F25610.449651310497
I2
I1
I0
tp217
a(I85
F25957.136272438918
I1
I0
I0
tp218
a(I86
F26302.846311535985
I2
I0
I0
tp219
a(I87
F27802.876311685985
I3
I1
I0
tp220
a(I88
F28033.349671084034
I4
I0
I0
tp221
a(I89
F28264.799612513427
I3
I0
I0
tp222
a(I90
F28380.036292212451
I4
I1
I0
tp223
a(I91
F28725.746331309521
I1
I1
I0
tp224
a(I92
F28957.196272738915
I2
I0
I0
tp225
a(I93
F29187.669632136964
I1
I0
I0
tp226
a(I94
F29302.906311835985
I2
I1
I0
tp227
a(I95
F29649.592932964402
I3
I0
I0
tp228
a(I96
F29764.829612663427
I3
I1
I0
tp229
aa.