(lp1
(lp2
(I0
F119.84424853048017
I3
I0
I0
tp3
a(I1
F1227.9654142448751
I4
I0
I0
tp4
a(I2
F2337.0611808086232
I1
I0
I0
tp5
a(I3
F3446.1569473723712
I2
I0
I0
tp6
a(I4
F4555.2527139361191
I3
I1
I0
tp7
a(I5
F5663.3738796505131
I4
I1
I0
tp8
a(I6
F6772.469646214262
I1
I1
I0
tp9
a(I7
F7881.5654127780099
I2
I1
I0
tp10
a(I8
F8990.6611793417596
I1
I1
I0
tp11
a(I9
F8990.6611793417596
I2
I1
I0
tp12
a(I10
F9960.3890244480226
I3
I1
I0
tp13
a(I11
F9960.3890244480226
I4
I1
I0
tp14
a(I12
F11207.878111619901
I3
I0
I0
tp15
a(I13
F11762.425994901776
I2
I1
I0
tp16
a(I14
F12178.580557575518
I4
I0
I0
tp17
a(I15
F12871.521761465525
I2
I0
I0
tp18
a(I16
F13426.069644747398
I1
I1
I0
tp19
a(I17
F13426.069644747398
I2
I1
I0
tp20
a(I18
F14535.165411311145
I4
I1
I0
tp21
a(I19
F14950.345373135537
I1
I0
I0
tp22
a(I20
F15504.893256417412
I3
I1
I0
tp23
a(I21
F16197.834460307415
I1
I0
I0
tp24
a(I22
F16613.989022981157
I3
I0
I0
tp25
a(I23
F17306.930226871162
I2
I0
I0
tp26
a(I24
F17861.478110153039
I3
I1
I0
tp27
a(I25
F18416.025993434912
I1
I1
I0
tp28
a(I26
F18970.573876716786
I4
I1
I0
tp29
a(I27
F19525.121759998656
I2
I1
I0
tp30
a(I28
F20079.669643280533
I3
I0
I0
tp31
a(I29
F20633.242925713053
I2
I1
I0
tp32
a(I30
F21049.397488386796
I4
I0
I0
tp33
a(I31
F21742.338692276804
I2
I0
I0
tp34
a(I32
F22296.886575558678
I1
I1
I0
tp35
a(I33
F22296.886575558678
I2
I1
I0
tp36
a(I34
F23405.982342122421
I4
I1
I0
tp37
a(I35
F23822.136904796167
I1
I0
I0
tp38
a(I36
F24375.710187228691
I3
I1
I0
tp39
a(I37
F26732.295040964313
I3
I0
I0
tp40
a(I38
F27148.449603638062
I4
I1
I0
tp41
a(I39
F27841.390807528063
I1
I0
I0
tp42
a(I40
F28395.938690809937
I3
I0
I0
tp43
a(I41
F28950.48657409181
I3
I0
I0
tp44
a(I42
F29505.034457373684
I2
I1
I0
tp45
a(I43
F29920.214419198077
I4
I0
I0
tp46
a(I44
F30613.155623088078
I2
I0
I0
tp47
a(I45
F31167.703506369951
I1
I1
I0
tp48
a(I46
F31167.703506369951
I2
I1
I0
tp49
a(I47
F32276.799272933702
I4
I1
I0
tp50
a(I48
F32692.953835607448
I1
I0
I0
tp51
a(I49
F33247.501718889325
I3
I1
I0
tp52
a(I50
F33940.442922779323
I1
I0
I0
tp53
a(I51
F34355.622884603712
I3
I0
I0
tp54
a(I52
F35049.53868934307
I2
I0
I0
tp55
a(I53
F35603.111971775594
I3
I1
I0
tp56
a(I54
F36157.659855057471
I1
I1
I0
tp57
a(I55
F36712.207738339341
I4
I1
I0
tp58
a(I56
F37266.755621621218
I2
I1
I0
tp59
a(I57
F37821.303504903095
I3
I0
I0
tp60
a(I58
F38375.851388184965
I2
I1
I0
tp61
a(I59
F38792.0059508587
I4
I0
I0
tp62
a(I60
F39484.947154748719
I2
I0
I0
tp63
a(I61
F40039.495038030589
I1
I1
I0
tp64
a(I62
F40039.495038030589
I2
I1
I0
tp65
a(I63
F41147.616203744983
I4
I1
I0
tp66
a(I64
F41563.770766418726
I1
I0
I0
tp67
a(I65
F42118.318649700595
I3
I1
I0
tp68
a(I66
F44474.903503436224
I3
I0
I0
tp69
a(I67
F44890.083465260614
I4
I1
I0
tp70
a(I68
F45583.024669150625
I1
I0
I0
tp71
a(I69
F46137.572552432495
I3
I0
I0
tp72
a(I70
F46692.120435714372
I3
I0
I0
tp73
a(I71
F47801.216202278119
I4
I0
I0
tp74
a(I72
F48910.311968841859
I1
I0
I0
tp75
a(I73
F50019.407735405613
I2
I0
I0
tp76
a(I74
F51127.528901120008
I3
I1
I0
tp77
a(I75
F52236.624667683747
I4
I1
I0
tp78
a(I76
F53345.720434247494
I1
I1
I0
tp79
a(I77
F54454.816200811249
I2
I1
I0
tp80
a(I78
F55562.937366525643
I1
I1
I0
tp81
a(I79
F55562.937366525643
I2
I1
I0
tp82
a(I80
F56533.639812481269
I3
I1
I0
tp83
a(I81
F56533.639812481269
I4
I1
I0
tp84
a(I82
F57781.128899653144
I3
I0
I0
tp85
a(I83
F58335.676782935014
I2
I1
I0
tp86
a(I84
F58751.831345608764
I4
I0
I0
tp87
a(I85
F59444.772549498761
I2
I0
I0
tp88
a(I86
F59999.320432780638
I1
I1
I0
tp89
a(I87
F59999.320432780638
I2
I1
I0
tp90
a(I88
F61107.441598495032
I4
I1
I0
tp91
a(I89
F61523.596161168774
I1
I0
I0
tp92
a(I90
F62078.144044450652
I3
I1
I0
tp93
a(I91
F62771.085248340656
I1
I0
I0
tp94
a(I92
F63187.239811014399
I3
I0
I0
tp95
a(I93
F63880.18101490441
I2
I0
I0
tp96
a(I94
F64434.72889818628
I3
I1
I0
tp97
a(I95
F64989.276781468157
I1
I1
I0
tp98
a(I96
F65542.850063900696
I4
I1
I0
tp99
a(I97
F66097.397947182559
I2
I1
I0
tp100
a(I98
F66651.945830464436
I3
I0
I0
tp101
a(I99
F67206.493713746298
I2
I1
I0
tp102
a(I100
F67622.648276420048
I4
I0
I0
tp103
a(I101
F68315.589480310053
I2
I0
I0
tp104
a(I102
F68870.13736359193
I1
I1
I0
tp105
a(I103
F68870.13736359193
I2
I1
I0
tp106
a(I104
F69979.23313015567
I4
I1
I0
tp107
a(I105
F70394.413091980052
I1
I0
I0
tp108
a(I106
F70948.960975261944
I3
I1
I0
tp109
a(I107
F73305.545828997565
I3
I0
I0
tp110
a(I108
F73721.7003916713
I4
I1
I0
tp111
a(I109
F74414.641595561305
I1
I0
I0
tp112
a(I110
F74969.189478843182
I3
I0
I0
tp113
a(I111
F75522.762761275691
I3
I0
I0
tp114
a(I112
F76077.310644557583
I2
I1
I0
tp115
a(I113
F76493.465207231333
I4
I0
I0
tp116
a(I114
F77186.406411121337
I2
I0
I0
tp117
a(I115
F77740.9542944032
I1
I1
I0
tp118
a(I116
F77740.9542944032
I2
I1
I0
tp119
a(I117
F78850.05006096694
I4
I1
I0
tp120
a(I118
F79265.230022791337
I1
I0
I0
tp121
a(I119
F79819.777906073214
I3
I1
I0
tp122
a(I120
F80512.719109963218
I1
I0
I0
tp123
a(I121
F80928.873672636968
I3
I0
I0
tp124
a(I122
F81621.814876526973
I2
I0
I0
tp125
a(I123
F82176.362759808835
I3
I1
I0
tp126
a(I124
F82730.910643090727
I1
I1
I0
tp127
a(I125
F83285.458526372575
I4
I1
I0
tp128
a(I126
F83840.006409654467
I2
I1
I0
tp129
a(I127
F84394.554292936329
I3
I0
I0
tp130
a(I128
F84949.102176218221
I2
I1
I0
tp131
a(I129
F85364.282138042618
I4
I0
I0
tp132
a(I130
F86057.223341932608
I2
I0
I0
tp133
a(I131
F86611.771225214485
I1
I1
I0
tp134
a(I132
F86611.771225214485
I2
I1
I0
tp135
a(I133
F87720.866991778224
I4
I1
I0
tp136
a(I134
F88137.021554451974
I1
I0
I0
tp137
a(I135
F88691.569437733851
I3
I1
I0
tp138
a(I136
F91047.17969062012
I3
I0
I0
tp139
a(I137
F91463.334253293855
I4
I1
I0
tp140
a(I138
F92156.27545718386
I1
I0
I0
tp141
a(I139
F92710.823340465737
I3
I0
I0
tp142
a(I140
F93265.371223747614
I3
I0
I0
tp143
aa(lp144
(I0
F119.84424853048017
I3
I0
I0
tp145
a(I1
F812.78545242048449
I2
I0
I0
tp146
a(I2
F1089.5720936367447
I4
I0
I0
tp147
a(I3
F1782.5132975267491
I1
I0
I0
tp148
a(I4
F2614.822422874237
I3
I0
I0
tp149
a(I5
F2891.6090640904972
I2
I0
I0
tp150
a(I6
F3722.9435885886319
I1
I0
I0
tp151
a(I7
F4000.7048306542456
I4
I0
I0
tp152
a(I8
F4555.2527139361191
I3
I1
I0
tp153
a(I9
F5248.1939178261237
I2
I1
I0
tp154
a(I10
F5524.9805590423839
I3
I1
I0
tp155
a(I11
F6217.9217629323875
I1
I1
I0
tp156
a(I12
F7050.2308882798752
I3
I1
I0
tp157
a(I13
F7327.0175294961355
I2
I1
I0
tp158
a(I14
F8158.352053994271
I1
I1
I0
tp159
a(I15
F8436.1132960598843
I4
I1
I0
tp160
a(I16
F8990.6611793417596
I1
I1
I0
tp161
a(I17
F8990.6611793417596
I2
I1
I0
tp162
a(I18
F9960.3890244480226
I3
I1
I0
tp163
a(I19
F9960.3890244480226
I4
I1
I0
tp164
a(I20
F10931.091470403642
I4
I0
I0
tp165
a(I21
F11207.878111619901
I3
I0
I0
tp166
a(I22
F11485.639353685516
I2
I1
I0
tp167
a(I23
F11762.425994901776
I4
I1
I0
tp168
a(I24
F12178.580557575518
I2
I1
I0
tp169
a(I25
F12455.367198791779
I4
I0
I0
tp170
a(I26
F13426.069644747398
I1
I0
I0
tp171
a(I27
F13426.069644747398
I2
I0
I0
tp172
a(I28
F14535.165411311145
I1
I1
I0
tp173
a(I29
F14811.952052527406
I4
I1
I0
tp174
a(I30
F14950.345373135537
I1
I0
I0
tp175
a(I31
F15228.106615201148
I3
I1
I0
tp176
a(I32
F15504.893256417412
I1
I1
I0
tp177
a(I33
F15782.654498483023
I3
I1
I0
tp178
a(I34
F15921.047819091154
I2
I1
I0
tp179
a(I35
F16197.834460307415
I3
I1
I0
tp180
a(I36
F16475.595702373026
I2
I1
I0
tp181
a(I37
F16613.989022981157
I4
I1
I0
tp182
a(I38
F16890.775664197419
I2
I1
I0
tp183
a(I39
F17168.536906263031
I4
I1
I0
tp184
a(I40
F17306.930226871162
I1
I1
I0
tp185
a(I41
F17584.691468936773
I4
I0
I0
tp186
a(I42
F17861.478110153039
I1
I1
I0
tp187
a(I43
F18138.264751369297
I3
I1
I0
tp188
a(I44
F18416.025993434912
I1
I0
I0
tp189
a(I45
F18692.812634651174
I3
I0
I0
tp190
a(I46
F18970.573876716786
I2
I1
I0
tp191
a(I47
F19247.360517933048
I3
I1
I0
tp192
a(I48
F19385.753838541172
I4
I0
I0
tp193
a(I49
F19525.121759998656
I2
I0
I0
tp194
a(I50
F19801.908401214921
I4
I0
I0
tp195
a(I51
F20079.669643280533
I3
I0
I0
tp196
a(I52
F20356.456284496795
I2
I1
I0
tp197
a(I53
F20633.242925713053
I4
I1
I0
tp198
a(I54
F21049.397488386796
I2
I1
I0
tp199
a(I55
F21327.158730452415
I4
I0
I0
tp200
a(I56
F22296.886575558678
I1
I0
I0
tp201
a(I57
F22296.886575558678
I2
I0
I0
tp202
a(I58
F23405.982342122421
I1
I1
I0
tp203
a(I59
F23682.768983338687
I4
I1
I0
tp204
a(I60
F23822.136904796167
I1
I0
I0
tp205
a(I61
F24098.923546012429
I3
I1
I0
tp206
a(I62
F24375.710187228691
I1
I1
I0
tp207
a(I63
F26732.295040964313
I3
I0
I0
tp208
a(I64
F27148.449603638062
I4
I1
I0
tp209
a(I65
F27841.390807528063
I1
I0
I0
tp210
a(I66
F28395.938690809937
I3
I0
I0
tp211
a(I67
F28950.48657409181
I3
I0
I0
tp212
a(I68
F29227.273215308072
I2
I1
I0
tp213
a(I69
F29505.034457373684
I4
I1
I0
tp214
a(I70
F29920.214419198077
I2
I1
I0
tp215
a(I71
F30197.975661263688
I4
I0
I0
tp216
a(I72
F31167.703506369951
I1
I0
I0
tp217
a(I73
F31167.703506369951
I2
I0
I0
tp218
a(I74
F32276.799272933702
I1
I1
I0
tp219
a(I75
F32554.560514999317
I4
I1
I0
tp220
a(I76
F32692.953835607448
I1
I0
I0
tp221
a(I77
F32969.74047682371
I3
I1
I0
tp222
a(I78
F33247.501718889325
I1
I1
I0
tp223
a(I79
F33524.28836010558
I3
I1
I0
tp224
a(I80
F33662.681680713715
I2
I1
I0
tp225
a(I81
F33940.442922779323
I3
I1
I0
tp226
a(I82
F34217.229563995585
I2
I1
I0
tp227
a(I83
F34355.622884603712
I4
I1
I0
tp228
a(I84
F34633.384126669334
I2
I1
I0
tp229
a(I85
F34910.170767885589
I4
I1
I0
tp230
a(I86
F35049.53868934307
I1
I1
I0
tp231
a(I87
F35326.325330559332
I4
I0
I0
tp232
a(I88
F35603.111971775594
I1
I1
I0
tp233
a(I89
F35880.873213841202
I3
I1
I0
tp234
a(I90
F36157.659855057471
I1
I0
I0
tp235
a(I91
F36435.421097123079
I3
I0
I0
tp236
a(I92
F36712.207738339341
I2
I1
I0
tp237
a(I93
F36989.968980404956
I3
I1
I0
tp238
a(I94
F37128.362301013083
I4
I0
I0
tp239
a(I95
F37266.755621621218
I2
I0
I0
tp240
a(I96
F37544.516863686826
I4
I0
I0
tp241
a(I97
F37821.303504903095
I3
I0
I0
tp242
a(I98
F38098.09014611935
I2
I1
I0
tp243
a(I99
F38375.851388184965
I4
I1
I0
tp244
a(I100
F38792.0059508587
I2
I1
I0
tp245
a(I101
F39068.792592074969
I4
I0
I0
tp246
a(I102
F40039.495038030589
I1
I0
I0
tp247
a(I103
F40039.495038030589
I2
I0
I0
tp248
a(I104
F41147.616203744983
I1
I1
I0
tp249
a(I105
F41425.377445810598
I4
I1
I0
tp250
a(I106
F41563.770766418726
I1
I0
I0
tp251
a(I107
F41840.557407634988
I3
I1
I0
tp252
a(I108
F42118.318649700595
I1
I1
I0
tp253
a(I109
F44474.903503436224
I3
I0
I0
tp254
a(I110
F44890.083465260614
I4
I1
I0
tp255
a(I111
F45583.024669150625
I1
I0
I0
tp256
a(I112
F46137.572552432495
I3
I0
I0
tp257
a(I113
F46692.120435714372
I3
I0
I0
tp258
a(I114
F47385.06163960437
I2
I0
I0
tp259
a(I115
F47662.822881669978
I4
I0
I0
tp260
a(I116
F48355.764085559997
I1
I0
I0
tp261
a(I117
F49187.098610058129
I3
I0
I0
tp262
a(I118
F49464.859852123736
I2
I0
I0
tp263
a(I119
F50296.194376621876
I1
I0
I0
tp264
a(I120
F50572.98101783813
I4
I0
I0
tp265
a(I121
F51127.528901120008
I3
I1
I0
tp266
a(I122
F51820.470105010012
I2
I1
I0
tp267
a(I123
F52098.231347075627
I3
I1
I0
tp268
a(I124
F52791.172550965624
I1
I1
I0
tp269
a(I125
F53622.507075463764
I3
I1
I0
tp270
a(I126
F53900.268317529371
I2
I1
I0
tp271
a(I127
F54731.602842027511
I1
I1
I0
tp272
a(I128
F55009.364084093118
I4
I1
I0
tp273
a(I129
F55562.937366525643
I1
I1
I0
tp274
a(I130
F55562.937366525643
I2
I1
I0
tp275
a(I131
F56533.639812481269
I3
I1
I0
tp276
a(I132
F56533.639812481269
I4
I1
I0
tp277
a(I133
F57504.342258436882
I4
I0
I0
tp278
a(I134
F57781.128899653144
I3
I0
I0
tp279
a(I135
F58057.915540869406
I2
I1
I0
tp280
a(I136
F58335.676782935014
I4
I1
I0
tp281
a(I137
F58751.831345608764
I2
I1
I0
tp282
a(I138
F59028.617986825018
I4
I0
I0
tp283
a(I139
F59999.320432780638
I1
I0
I0
tp284
a(I140
F59999.320432780638
I2
I0
I0
tp285
a(I141
F61107.441598495032
I1
I1
I0
tp286
a(I142
F61385.202840560654
I4
I1
I0
tp287
a(I143
F61523.596161168774
I1
I0
I0
tp288
a(I144
F61800.382802385044
I3
I1
I0
tp289
a(I145
F62078.144044450652
I1
I1
I0
tp290
a(I146
F62354.930685666906
I3
I1
I0
tp291
a(I147
F62494.298607124401
I2
I1
I0
tp292
a(I148
F62771.085248340656
I3
I1
I0
tp293
a(I149
F63047.871889556918
I2
I1
I0
tp294
a(I150
F63187.239811014399
I4
I1
I0
tp295
a(I151
F63464.026452230661
I2
I1
I0
tp296
a(I152
F63741.787694296276
I4
I1
I0
tp297
a(I153
F63880.18101490441
I1
I1
I0
tp298
a(I154
F64156.967656120665
I4
I0
I0
tp299
a(I155
F64434.72889818628
I1
I1
I0
tp300
a(I156
F64711.515539402542
I3
I1
I0
tp301
a(I157
F64989.276781468157
I1
I0
I0
tp302
a(I158
F65266.063422684412
I3
I0
I0
tp303
a(I159
F65542.850063900696
I2
I1
I0
tp304
a(I160
F65820.611305966304
I3
I1
I0
tp305
a(I161
F65959.004626574417
I4
I0
I0
tp306
a(I162
F66097.397947182559
I2
I0
I0
tp307
a(I163
F66375.159189248167
I4
I0
I0
tp308
a(I164
F66651.945830464436
I3
I0
I0
tp309
a(I165
F66929.707072530058
I2
I1
I0
tp310
a(I166
F67206.493713746298
I4
I1
I0
tp311
a(I167
F67622.648276420048
I2
I1
I0
tp312
a(I168
F67899.434917636303
I4
I0
I0
tp313
a(I169
F68870.13736359193
I1
I0
I0
tp314
a(I170
F68870.13736359193
I2
I0
I0
tp315
a(I171
F69979.23313015567
I1
I1
I0
tp316
a(I172
F70256.019771371939
I4
I1
I0
tp317
a(I173
F70394.413091980052
I1
I0
I0
tp318
a(I174
F70672.174334045674
I3
I1
I0
tp319
a(I175
F70948.960975261944
I1
I1
I0
tp320
a(I176
F73305.545828997565
I3
I0
I0
tp321
a(I177
F73721.7003916713
I4
I1
I0
tp322
a(I178
F74414.641595561305
I1
I0
I0
tp323
a(I179
F74969.189478843182
I3
I0
I0
tp324
a(I180
F75522.762761275691
I3
I0
I0
tp325
a(I181
F75800.524003341328
I2
I1
I0
tp326
a(I182
F76077.310644557583
I4
I1
I0
tp327
a(I183
F76493.465207231333
I2
I1
I0
tp328
a(I184
F76770.251848447573
I4
I0
I0
tp329
a(I185
F77740.9542944032
I1
I0
I0
tp330
a(I186
F77740.9542944032
I2
I0
I0
tp331
a(I187
F78850.05006096694
I1
I1
I0
tp332
a(I188
F79126.836702183224
I4
I1
I0
tp333
a(I189
F79265.230022791337
I1
I0
I0
tp334
a(I190
F79542.991264856959
I3
I1
I0
tp335
a(I191
F79819.777906073214
I1
I1
I0
tp336
a(I192
F80097.539148138821
I3
I1
I0
tp337
a(I193
F80235.932468746978
I2
I1
I0
tp338
a(I194
F80512.719109963218
I3
I1
I0
tp339
a(I195
F80790.480352028826
I2
I1
I0
tp340
a(I196
F80928.873672636968
I4
I1
I0
tp341
a(I197
F81206.634914702576
I2
I1
I0
tp342
a(I198
F81483.421555918845
I4
I1
I0
tp343
a(I199
F81621.814876526973
I1
I1
I0
tp344
a(I200
F81899.57611859258
I4
I0
I0
tp345
a(I201
F82176.362759808835
I1
I1
I0
tp346
a(I202
F82454.124001874472
I3
I1
I0
tp347
a(I203
F82730.910643090727
I1
I0
I0
tp348
a(I204
F83007.697284306967
I3
I0
I0
tp349
a(I205
F83285.458526372575
I2
I1
I0
tp350
a(I206
F83562.245167588859
I3
I1
I0
tp351
a(I207
F83701.613089046339
I4
I0
I0
tp352
a(I208
F83840.006409654467
I2
I0
I0
tp353
a(I209
F84116.793050870721
I4
I0
I0
tp354
a(I210
F84394.554292936329
I3
I0
I0
tp355
a(I211
F84671.340934152613
I2
I1
I0
tp356
a(I212
F84949.102176218221
I4
I1
I0
tp357
a(I213
F85364.282138042618
I2
I1
I0
tp358
a(I214
F85642.043380108225
I4
I0
I0
tp359
a(I215
F86611.771225214485
I1
I0
I0
tp360
a(I216
F86611.771225214485
I2
I0
I0
tp361
a(I217
F87720.866991778224
I1
I1
I0
tp362
a(I218
F87997.653632994494
I4
I1
I0
tp363
a(I219
F88137.021554451974
I1
I0
I0
tp364
a(I220
F88413.808195668229
I3
I1
I0
tp365
a(I221
F88691.569437733851
I1
I1
I0
tp366
a(I222
F91047.17969062012
I3
I0
I0
tp367
a(I223
F91463.334253293855
I4
I1
I0
tp368
a(I224
F92156.27545718386
I1
I0
I0
tp369
a(I225
F92710.823340465737
I3
I0
I0
tp370
aa(lp371
(I0
F119.84424853048017
I3
I0
I0
tp372
a(I1
F812.78545242048449
I2
I0
I0
tp373
a(I2
F1089.5720936367447
I4
I0
I0
tp374
a(I3
F1505.7266563104888
I3
I1
I0
tp375
a(I4
F1782.5132975267491
I1
I0
I0
tp376
a(I5
F2060.274539592363
I3
I0
I0
tp377
a(I6
F2614.822422874237
I3
I0
I0
tp378
a(I7
F2891.6090640904972
I2
I0
I0
tp379
a(I8
F3722.9435885886319
I1
I0
I0
tp380
a(I9
F4000.7048306542456
I4
I0
I0
tp381
a(I10
F4555.2527139361191
I3
I1
I0
tp382
a(I11
F5248.1939178261237
I2
I1
I0
tp383
a(I12
F5524.9805590423839
I3
I1
I0
tp384
a(I13
F5941.1351217161273
I4
I0
I0
tp385
a(I14
F6217.9217629323875
I1
I1
I0
tp386
a(I15
F6495.6830049980017
I3
I1
I0
tp387
a(I16
F7050.2308882798752
I3
I1
I0
tp388
a(I17
F7327.0175294961355
I2
I1
I0
tp389
a(I18
F8158.352053994271
I1
I1
I0
tp390
a(I19
F8436.1132960598843
I4
I1
I0
tp391
a(I20
F8990.6611793417596
I1
I1
I0
tp392
a(I21
F8990.6611793417596
I2
I1
I0
tp393
a(I22
F9960.3890244480226
I3
I1
I0
tp394
a(I23
F9960.3890244480226
I4
I1
I0
tp395
a(I24
F10931.091470403642
I4
I0
I0
tp396
a(I25
F11207.878111619901
I3
I0
I0
tp397
a(I26
F11485.639353685516
I2
I1
I0
tp398
a(I27
F11762.425994901776
I4
I1
I0
tp399
a(I28
F11900.819315509905
I2
I1
I0
tp400
a(I29
F12178.580557575518
I4
I0
I0
tp401
a(I30
F12455.367198791779
I1
I1
I0
tp402
a(I31
F13426.069644747398
I1
I0
I0
tp403
a(I32
F13426.069644747398
I2
I0
I0
tp404
a(I33
F14535.165411311145
I1
I1
I0
tp405
a(I34
F14811.952052527406
I4
I1
I0
tp406
a(I35
F14950.345373135537
I1
I0
I0
tp407
a(I36
F15228.106615201148
I3
I1
I0
tp408
a(I37
F15504.893256417412
I1
I1
I0
tp409
a(I38
F15782.654498483023
I3
I1
I0
tp410
a(I39
F15921.047819091154
I2
I1
I0
tp411
a(I40
F16197.834460307415
I3
I1
I0
tp412
a(I41
F16475.595702373026
I2
I1
I0
tp413
a(I42
F16613.989022981157
I4
I1
I0
tp414
a(I43
F16890.775664197419
I2
I1
I0
tp415
a(I44
F17168.536906263031
I4
I1
I0
tp416
a(I45
F17306.930226871162
I1
I1
I0
tp417
a(I46
F17584.691468936773
I4
I0
I0
tp418
a(I47
F17861.478110153039
I1
I1
I0
tp419
a(I48
F18138.264751369297
I3
I1
I0
tp420
a(I49
F18277.632672826781
I1
I0
I0
tp421
a(I50
F18416.025993434912
I3
I0
I0
tp422
a(I51
F18692.812634651174
I2
I1
I0
tp423
a(I52
F18970.573876716786
I3
I1
I0
tp424
a(I53
F19247.360517933048
I2
I0
I0
tp425
a(I54
F19525.121759998656
I2
I1
I0
tp426
a(I55
F19801.908401214921
I4
I1
I0
tp427
a(I56
F20079.669643280533
I3
I0
I0
tp428
a(I57
F20356.456284496795
I2
I1
I0
tp429
a(I58
F20633.242925713053
I4
I1
I0
tp430
a(I59
F20772.610847170537
I2
I1
I0
tp431
a(I60
F21049.397488386796
I4
I0
I0
tp432
a(I61
F21327.158730452415
I1
I1
I0
tp433
a(I62
F22296.886575558678
I1
I0
I0
tp434
a(I63
F22296.886575558678
I2
I0
I0
tp435
a(I64
F23405.982342122421
I1
I1
I0
tp436
a(I65
F23682.768983338687
I4
I1
I0
tp437
a(I66
F23822.136904796167
I1
I0
I0
tp438
a(I67
F24098.923546012429
I3
I1
I0
tp439
a(I68
F24375.710187228691
I1
I1
I0
tp440
a(I69
F26732.295040964313
I3
I0
I0
tp441
a(I70
F26870.688361572444
I4
I0
I0
tp442
a(I71
F27148.449603638062
I2
I1
I0
tp443
a(I72
F27425.236244854321
I1
I1
I0
tp444
a(I73
F27702.997486919932
I2
I0
I0
tp445
a(I74
F27841.390807528063
I1
I0
I0
tp446
a(I75
F27979.784128136194
I4
I1
I0
tp447
a(I76
F28118.177448744322
I3
I1
I0
tp448
a(I77
F28395.938690809937
I3
I0
I0
tp449
a(I78
F28950.48657409181
I3
I0
I0
tp450
a(I79
F29227.273215308072
I2
I1
I0
tp451
a(I80
F29505.034457373684
I4
I1
I0
tp452
a(I81
F29643.427777981819
I2
I1
I0
tp453
a(I82
F29920.214419198077
I4
I0
I0
tp454
a(I83
F30197.975661263688
I1
I1
I0
tp455
a(I84
F31167.703506369951
I1
I0
I0
tp456
a(I85
F31167.703506369951
I2
I0
I0
tp457
a(I86
F32276.799272933702
I1
I1
I0
tp458
a(I87
F32554.560514999317
I4
I1
I0
tp459
a(I88
F32692.953835607448
I1
I0
I0
tp460
a(I89
F32969.74047682371
I3
I1
I0
tp461
a(I90
F33247.501718889325
I1
I1
I0
tp462
a(I91
F33524.28836010558
I3
I1
I0
tp463
a(I92
F33662.681680713715
I2
I1
I0
tp464
a(I93
F33940.442922779323
I3
I1
I0
tp465
a(I94
F34217.229563995585
I2
I1
I0
tp466
a(I95
F34355.622884603712
I4
I1
I0
tp467
a(I96
F34633.384126669334
I2
I1
I0
tp468
a(I97
F34910.170767885589
I4
I1
I0
tp469
a(I98
F35049.53868934307
I1
I1
I0
tp470
a(I99
F35326.325330559332
I4
I0
I0
tp471
a(I100
F35603.111971775594
I1
I1
I0
tp472
a(I101
F35880.873213841202
I3
I1
I0
tp473
a(I102
F36019.266534449336
I1
I0
I0
tp474
a(I103
F36157.659855057471
I3
I0
I0
tp475
a(I104
F36435.421097123079
I2
I1
I0
tp476
a(I105
F36712.207738339341
I3
I1
I0
tp477
a(I106
F36989.968980404956
I2
I0
I0
tp478
a(I107
F37266.755621621218
I2
I1
I0
tp479
a(I108
F37544.516863686826
I4
I1
I0
tp480
a(I109
F37821.303504903095
I3
I0
I0
tp481
a(I110
F38098.09014611935
I2
I1
I0
tp482
a(I111
F38375.851388184965
I4
I1
I0
tp483
a(I112
F38514.244708793092
I2
I1
I0
tp484
a(I113
F38792.0059508587
I4
I0
I0
tp485
a(I114
F39068.792592074969
I1
I1
I0
tp486
a(I115
F40039.495038030589
I1
I0
I0
tp487
a(I116
F40039.495038030589
I2
I0
I0
tp488
a(I117
F41147.616203744983
I1
I1
I0
tp489
a(I118
F41425.377445810598
I4
I1
I0
tp490
a(I119
F41563.770766418726
I1
I0
I0
tp491
a(I120
F41840.557407634988
I3
I1
I0
tp492
a(I121
F42118.318649700595
I1
I1
I0
tp493
a(I122
F44474.903503436224
I3
I0
I0
tp494
a(I123
F44613.296824044359
I4
I0
I0
tp495
a(I124
F44890.083465260614
I2
I1
I0
tp496
a(I125
F45167.844707326236
I1
I1
I0
tp497
a(I126
F45444.631348542491
I2
I0
I0
tp498
a(I127
F45583.024669150625
I1
I0
I0
tp499
a(I128
F45722.392590608106
I4
I1
I0
tp500
a(I129
F45860.785911216233
I3
I1
I0
tp501
a(I130
F46137.572552432495
I3
I0
I0
tp502
a(I131
F46692.120435714372
I3
I0
I0
tp503
a(I132
F47385.06163960437
I2
I0
I0
tp504
a(I133
F47662.822881669978
I4
I0
I0
tp505
a(I134
F48078.002843494382
I3
I1
I0
tp506
a(I135
F48355.764085559997
I1
I0
I0
tp507
a(I136
F48632.550726776251
I3
I0
I0
tp508
a(I137
F49187.098610058129
I3
I0
I0
tp509
a(I138
F49464.859852123736
I2
I0
I0
tp510
a(I139
F50296.194376621876
I1
I0
I0
tp511
a(I140
F50572.98101783813
I4
I0
I0
tp512
a(I141
F51127.528901120008
I3
I1
I0
tp513
a(I142
F51820.470105010012
I2
I1
I0
tp514
a(I143
F52098.231347075627
I3
I1
I0
tp515
a(I144
F52514.38590974937
I4
I0
I0
tp516
a(I145
F52791.172550965624
I1
I1
I0
tp517
a(I146
F53067.959192181886
I3
I1
I0
tp518
a(I147
F53622.507075463764
I3
I1
I0
tp519
a(I148
F53900.268317529371
I2
I1
I0
tp520
a(I149
F54731.602842027511
I1
I1
I0
tp521
a(I150
F55009.364084093118
I4
I1
I0
tp522
a(I151
F55562.937366525643
I1
I1
I0
tp523
a(I152
F55562.937366525643
I2
I1
I0
tp524
a(I153
F56533.639812481269
I3
I1
I0
tp525
a(I154
F56533.639812481269
I4
I1
I0
tp526
a(I155
F57504.342258436882
I4
I0
I0
tp527
a(I156
F57781.128899653144
I3
I0
I0
tp528
a(I157
F58057.915540869406
I2
I1
I0
tp529
a(I158
F58335.676782935014
I4
I1
I0
tp530
a(I159
F58474.070103543148
I2
I1
I0
tp531
a(I160
F58751.831345608764
I4
I0
I0
tp532
a(I161
F59028.617986825018
I1
I1
I0
tp533
a(I162
F59999.320432780638
I1
I0
I0
tp534
a(I163
F59999.320432780638
I2
I0
I0
tp535
a(I164
F61107.441598495032
I1
I1
I0
tp536
a(I165
F61385.202840560654
I4
I1
I0
tp537
a(I166
F61523.596161168774
I1
I0
I0
tp538
a(I167
F61800.382802385044
I3
I1
I0
tp539
a(I168
F62078.144044450652
I1
I1
I0
tp540
a(I169
F62354.930685666906
I3
I1
I0
tp541
a(I170
F62494.298607124401
I2
I1
I0
tp542
a(I171
F62771.085248340656
I3
I1
I0
tp543
a(I172
F63047.871889556918
I2
I1
I0
tp544
a(I173
F63187.239811014399
I4
I1
I0
tp545
a(I174
F63464.026452230661
I2
I1
I0
tp546
a(I175
F63741.787694296276
I4
I1
I0
tp547
a(I176
F63880.18101490441
I1
I1
I0
tp548
a(I177
F64156.967656120665
I4
I0
I0
tp549
a(I178
F64434.72889818628
I1
I1
I0
tp550
a(I179
F64711.515539402542
I3
I1
I0
tp551
a(I180
F64849.90886001067
I1
I0
I0
tp552
a(I181
F64989.276781468157
I3
I0
I0
tp553
a(I182
F65266.063422684412
I2
I1
I0
tp554
a(I183
F65542.850063900696
I3
I1
I0
tp555
a(I184
F65820.611305966304
I2
I0
I0
tp556
a(I185
F66097.397947182559
I2
I1
I0
tp557
a(I186
F66375.159189248167
I4
I1
I0
tp558
a(I187
F66651.945830464436
I3
I0
I0
tp559
a(I188
F66929.707072530058
I2
I1
I0
tp560
a(I189
F67206.493713746298
I4
I1
I0
tp561
a(I190
F67344.88703435444
I2
I1
I0
tp562
a(I191
F67622.648276420048
I4
I0
I0
tp563
a(I192
F67899.434917636303
I1
I1
I0
tp564
a(I193
F68870.13736359193
I1
I0
I0
tp565
a(I194
F68870.13736359193
I2
I0
I0
tp566
a(I195
F69979.23313015567
I1
I1
I0
tp567
a(I196
F70256.019771371939
I4
I1
I0
tp568
a(I197
F70394.413091980052
I1
I0
I0
tp569
a(I198
F70672.174334045674
I3
I1
I0
tp570
a(I199
F70948.960975261944
I1
I1
I0
tp571
a(I200
F73305.545828997565
I3
I0
I0
tp572
a(I201
F73443.939149605692
I4
I0
I0
tp573
a(I202
F73721.7003916713
I2
I1
I0
tp574
a(I203
F73998.487032887584
I1
I1
I0
tp575
a(I204
F74275.273674103839
I2
I0
I0
tp576
a(I205
F74414.641595561305
I1
I0
I0
tp577
a(I206
F74553.034916169447
I4
I1
I0
tp578
a(I207
F74691.428236777574
I3
I1
I0
tp579
a(I208
F74969.189478843182
I3
I0
I0
tp580
a(I209
F75522.762761275691
I3
I0
I0
tp581
a(I210
F75800.524003341328
I2
I1
I0
tp582
a(I211
F76077.310644557583
I4
I1
I0
tp583
a(I212
F76216.678566015064
I2
I1
I0
tp584
a(I213
F76493.465207231333
I4
I0
I0
tp585
a(I214
F76770.251848447573
I1
I1
I0
tp586
a(I215
F77740.9542944032
I1
I0
I0
tp587
a(I216
F77740.9542944032
I2
I0
I0
tp588
a(I217
F78850.05006096694
I1
I1
I0
tp589
a(I218
F79126.836702183224
I4
I1
I0
tp590
a(I219
F79265.230022791337
I1
I0
I0
tp591
a(I220
F79542.991264856959
I3
I1
I0
tp592
a(I221
F79819.777906073214
I1
I1
I0
tp593
a(I222
F80097.539148138821
I3
I1
I0
tp594
a(I223
F80235.932468746978
I2
I1
I0
tp595
a(I224
F80512.719109963218
I3
I1
I0
tp596
a(I225
F80790.480352028826
I2
I1
I0
tp597
a(I226
F80928.873672636968
I4
I1
I0
tp598
a(I227
F81206.634914702576
I2
I1
I0
tp599
a(I228
F81483.421555918845
I4
I1
I0
tp600
a(I229
F81621.814876526973
I1
I1
I0
tp601
a(I230
F81899.57611859258
I4
I0
I0
tp602
a(I231
F82176.362759808835
I1
I1
I0
tp603
a(I232
F82454.124001874472
I3
I1
I0
tp604
a(I233
F82592.517322482585
I1
I0
I0
tp605
a(I234
F82730.910643090727
I3
I0
I0
tp606
a(I235
F83007.697284306967
I2
I1
I0
tp607
a(I236
F83285.458526372575
I3
I1
I0
tp608
a(I237
F83562.245167588859
I2
I0
I0
tp609
a(I238
F83840.006409654467
I2
I1
I0
tp610
a(I239
F84116.793050870721
I4
I1
I0
tp611
a(I240
F84394.554292936329
I3
I0
I0
tp612
a(I241
F84671.340934152613
I2
I1
I0
tp613
a(I242
F84949.102176218221
I4
I1
I0
tp614
a(I243
F85087.495496826334
I2
I1
I0
tp615
a(I244
F85364.282138042618
I4
I0
I0
tp616
a(I245
F85642.043380108225
I1
I1
I0
tp617
a(I246
F86611.771225214485
I1
I0
I0
tp618
a(I247
F86611.771225214485
I2
I0
I0
tp619
a(I248
F87720.866991778224
I1
I1
I0
tp620
a(I249
F87997.653632994494
I4
I1
I0
tp621
a(I250
F88137.021554451974
I1
I0
I0
tp622
a(I251
F88413.808195668229
I3
I1
I0
tp623
a(I252
F88691.569437733851
I1
I1
I0
tp624
a(I253
F91047.17969062012
I3
I0
I0
tp625
a(I254
F91186.547612077615
I4
I0
I0
tp626
a(I255
F91463.334253293855
I2
I1
I0
tp627
a(I256
F91740.120894510124
I1
I1
I0
tp628
a(I257
F92017.882136575747
I2
I0
I0
tp629
a(I258
F92156.27545718386
I1
I0
I0
tp630
a(I259
F92294.668777792001
I4
I1
I0
tp631
a(I260
F92434.036699249482
I3
I1
I0
tp632
a(I261
F92710.823340465737
I3
I0
I0
tp633
a(I262
F93265.371223747614
I3
I0
I0
tp634
aa.