(lp1
(lp2
(I0
F156.99939836999999
I4
I0
I0
tp3
a(I1
F754.65564239343757
I3
I1
I0
tp4
a(I2
F1427.5071981649219
I2
I0
I0
tp5
a(I3
F2099.3821914461719
I3
I1
I0
tp6
a(I4
F2771.2571847274221
I2
I1
I0
tp7
a(I5
F3444.1087404989062
I3
I0
I0
tp8
a(I6
F4115.9837337801564
I3
I0
I0
tp9
a(I7
F4115.9837337801564
I4
I0
I0
tp10
a(I8
F4956.8040378719525
I1
I1
I0
tp11
a(I9
F5292.7415345125783
I2
I1
I0
tp12
a(I10
F5460.7102828328907
I4
I1
I0
tp13
a(I11
F6132.5852761141405
I3
I0
I0
tp14
a(I12
F6805.436831885625
I1
I1
I0
tp15
a(I13
F7477.3118251668748
I3
I0
I0
tp16
a(I14
F8150.1633809383593
I2
I1
I0
tp17
a(I15
F8822.03837421961
I1
I0
I0
tp18
a(I16
F9493.9133675008579
I1
I0
I0
tp19
a(I17
F9493.9133675008579
I2
I0
I0
tp20
a(I18
F10838.639916553593
I3
I0
I0
tp21
a(I19
F11342.546161514532
I1
I0
I0
tp22
a(I20
F11847.428968965702
I2
I0
I0
tp23
a(I21
F12183.366465606328
I3
I1
I0
tp24
a(I22
F12687.272710567266
I2
I1
I0
tp25
a(I23
F13192.155518018437
I1
I0
I0
tp26
a(I24
F13528.093014659062
I3
I1
I0
tp27
a(I25
F14031.999259619999
I4
I1
I0
tp28
a(I26
F14535.905504580938
I1
I1
I0
tp29
a(I27
F14872.819563711797
I1
I0
I0
tp30
a(I28
F14872.819563711797
I2
I0
I0
tp31
a(I29
F16216.569550274296
I3
I0
I0
tp32
a(I30
F16721.452357725469
I1
I1
I0
tp33
a(I31
F17225.358602686407
I2
I0
I0
tp34
a(I32
F17561.296099327032
I3
I1
I0
tp35
a(I33
F18065.202344287969
I2
I1
I0
tp36
a(I34
F18570.085151739142
I1
I0
I0
tp37
a(I35
F18906.022648379763
I3
I1
I0
tp38
a(I36
F19409.928893340704
I4
I0
I0
tp39
a(I37
F19914.811700791877
I1
I1
I0
tp40
a(I38
F20250.749197432498
I3
I0
I0
tp41
a(I39
F20250.749197432498
I4
I0
I0
tp42
a(I40
F21595.475746485234
I3
I0
I0
tp43
a(I41
F22099.381991446171
I1
I0
I0
tp44
a(I42
F22603.288236407108
I2
I0
I0
tp45
a(I43
F22939.225733047733
I3
I1
I0
tp46
a(I44
F23444.108540498906
I2
I1
I0
tp47
a(I45
F23948.014785459844
I1
I0
I0
tp48
a(I46
F24283.952282100468
I3
I1
I0
tp49
a(I47
F24788.835089551641
I4
I1
I0
tp50
a(I48
F25292.741334512575
I1
I1
I0
tp51
a(I49
F25628.678831153204
I1
I0
I0
tp52
a(I50
F25628.678831153204
I2
I0
I0
tp53
a(I51
F26973.405380205939
I3
I0
I0
tp54
a(I52
F27477.311625166873
I1
I1
I0
tp55
a(I53
F27981.217870127814
I2
I0
I0
tp56
a(I54
F28318.131929258674
I3
I1
I0
tp57
a(I55
F28822.038174219608
I2
I1
I0
tp58
a(I56
F29325.944419180549
I1
I0
I0
tp59
a(I57
F29661.88191582117
I3
I1
I0
tp60
a(I58
F30166.764723272343
I4
I0
I0
tp61
a(I59
F30670.67096823328
I1
I1
I0
tp62
a(I60
F31006.608464873905
I3
I0
I0
tp63
a(I61
F31006.608464873905
I4
I0
I0
tp64
a(I62
F32351.33501392664
I3
I0
I0
tp65
a(I63
F32687.272510567265
I1
I1
I0
tp66
a(I64
F32687.272510567265
I4
I1
I0
tp67
a(I65
F33696.061562979376
I3
I0
I0
tp68
a(I66
F34031.99905962
I2
I1
I0
tp69
a(I67
F34031.99905962
I4
I1
I0
tp70
a(I68
F35040.788112032111
I3
I1
I0
tp71
a(I69
F35376.725608672728
I1
I0
I0
tp72
a(I70
F35376.725608672728
I4
I0
I0
tp73
a(I71
F36384.53809859461
I3
I1
I0
tp74
a(I72
F36721.452157725471
I2
I0
I0
tp75
a(I73
F36721.452157725471
I4
I0
I0
tp76
a(I74
F37729.264647647338
I4
I0
I0
tp77
a(I75
F38065.20214428797
I1
I1
I0
tp78
a(I76
F38065.20214428797
I2
I1
I0
tp79
a(I77
F39073.991196700081
I1
I0
I0
tp80
a(I78
F39409.928693340698
I3
I1
I0
tp81
a(I79
F39409.928693340698
I4
I1
I0
tp82
a(I80
F40418.717745752809
I4
I1
I0
tp83
a(I81
F40754.655242393441
I1
I0
I0
tp84
a(I82
F40754.655242393441
I2
I0
I0
tp85
a(I83
F41763.444294805544
I2
I1
I0
tp86
a(I84
F42099.381791446169
I3
I0
I0
tp87
a(I85
F42099.381791446169
I4
I0
I0
tp88
a(I86
F43108.170843858279
I2
I1
I0
tp89
a(I87
F43780.045837139529
I4
I0
I0
tp90
a(I88
F44451.920830420779
I1
I1
I0
tp91
a(I89
F45124.772386192264
I3
I0
I0
tp92
a(I90
F45796.647379473514
I2
I1
I0
tp93
a(I91
F46469.498935244999
I4
I0
I0
tp94
a(I92
F46721.452057725466
I1
I1
I0
tp95
a(I93
F46973.405180205933
I3
I0
I0
tp96
a(I94
F47141.373928526249
I2
I1
I0
tp97
a(I95
F49157.975470860234
I3
I1
I0
tp98
a(I96
F49157.975470860234
I4
I1
I0
tp99
a(I97
F49493.912967500859
I3
I1
I0
tp100
a(I98
F49493.912967500859
I4
I1
I0
tp101
a(I99
F49830.827026631719
I4
I0
I0
tp102
aa(lp103
(I0
F156.99939836999999
I4
I0
I0
tp104
a(I1
F754.65564239343757
I3
I1
I0
tp105
a(I2
F1427.5071981649219
I1
I0
I0
tp106
a(I3
F1763.4446948055468
I2
I1
I0
tp107
a(I4
F1763.4446948055468
I4
I1
I0
tp108
a(I5
F2099.3821914461719
I3
I1
I0
tp109
a(I6
F2771.2571847274221
I2
I0
I0
tp110
a(I7
F3444.1087404989062
I3
I0
I0
tp111
a(I8
F4115.9837337801564
I3
I0
I0
tp112
a(I9
F4115.9837337801564
I4
I0
I0
tp113
a(I10
F4451.9212304207813
I1
I1
I0
tp114
a(I11
F4788.8352895516409
I2
I1
I0
tp115
a(I12
F5292.7415345125783
I2
I0
I0
tp116
a(I13
F5460.7102828328907
I4
I0
I0
tp117
a(I14
F6132.5852761141405
I3
I1
I0
tp118
a(I15
F6805.436831885625
I1
I0
I0
tp119
a(I16
F7141.3743285262508
I2
I1
I0
tp120
a(I17
F7141.3743285262508
I4
I1
I0
tp121
a(I18
F7477.3118251668748
I3
I1
I0
tp122
a(I19
F8150.1633809383593
I2
I0
I0
tp123
a(I20
F8822.03837421961
I3
I0
I0
tp124
a(I21
F9493.9133675008579
I3
I0
I0
tp125
a(I22
F9493.9133675008579
I4
I0
I0
tp126
a(I23
F9830.8274266317185
I1
I1
I0
tp127
a(I24
F10166.764923272345
I2
I1
I0
tp128
a(I25
F10670.671168233281
I2
I0
I0
tp129
a(I26
F10838.639916553593
I1
I1
I0
tp130
a(I27
F10838.639916553593
I3
I1
I0
tp131
a(I28
F11342.546161514532
I3
I0
I0
tp132
a(I29
F11847.428968965702
I2
I0
I0
tp133
a(I30
F12183.366465606328
I2
I1
I0
tp134
a(I31
F12183.366465606328
I4
I1
I0
tp135
a(I32
F12687.272710567266
I1
I0
I0
tp136
a(I33
F13192.155518018437
I3
I0
I0
tp137
a(I34
F13528.093014659062
I1
I0
I0
tp138
a(I35
F13528.093014659062
I2
I0
I0
tp139
a(I36
F14031.999259619999
I4
I0
I0
tp140
a(I37
F14535.905504580938
I3
I0
I0
tp141
a(I38
F14872.819563711797
I1
I1
I0
tp142
a(I39
F14872.819563711797
I2
I1
I0
tp143
a(I40
F16216.569550274296
I1
I1
I0
tp144
a(I41
F16216.569550274296
I3
I1
I0
tp145
a(I42
F16721.452357725469
I3
I0
I0
tp146
a(I43
F17225.358602686407
I2
I0
I0
tp147
a(I44
F17561.296099327032
I2
I1
I0
tp148
a(I45
F17561.296099327032
I4
I1
I0
tp149
a(I46
F18065.202344287969
I1
I0
I0
tp150
a(I47
F18570.085151739142
I3
I0
I0
tp151
a(I48
F18906.022648379763
I3
I1
I0
tp152
a(I49
F18906.022648379763
I4
I1
I0
tp153
a(I50
F19409.928893340704
I4
I0
I0
tp154
a(I51
F19914.811700791877
I3
I0
I0
tp155
a(I52
F20250.749197432498
I1
I1
I0
tp156
a(I53
F20250.749197432498
I2
I1
I0
tp157
a(I54
F21595.475746485234
I1
I1
I0
tp158
a(I55
F21595.475746485234
I3
I1
I0
tp159
a(I56
F22099.381991446171
I3
I0
I0
tp160
a(I57
F22603.288236407108
I2
I0
I0
tp161
a(I58
F22939.225733047733
I2
I1
I0
tp162
a(I59
F22939.225733047733
I4
I1
I0
tp163
a(I60
F23444.108540498906
I1
I0
I0
tp164
a(I61
F23948.014785459844
I3
I0
I0
tp165
a(I62
F24283.952282100468
I1
I0
I0
tp166
a(I63
F24283.952282100468
I2
I0
I0
tp167
a(I64
F24788.835089551641
I4
I0
I0
tp168
a(I65
F25292.741334512575
I3
I0
I0
tp169
a(I66
F25628.678831153204
I1
I1
I0
tp170
a(I67
F25628.678831153204
I2
I1
I0
tp171
a(I68
F26973.405380205939
I1
I1
I0
tp172
a(I69
F26973.405380205939
I3
I1
I0
tp173
a(I70
F27477.311625166873
I3
I0
I0
tp174
a(I71
F27981.217870127814
I2
I0
I0
tp175
a(I72
F28318.131929258674
I2
I1
I0
tp176
a(I73
F28318.131929258674
I4
I1
I0
tp177
a(I74
F28822.038174219608
I1
I0
I0
tp178
a(I75
F29325.944419180549
I3
I0
I0
tp179
a(I76
F29661.88191582117
I3
I1
I0
tp180
a(I77
F29661.88191582117
I4
I1
I0
tp181
a(I78
F30166.764723272343
I4
I0
I0
tp182
a(I79
F30670.67096823328
I3
I0
I0
tp183
a(I80
F31006.608464873905
I1
I1
I0
tp184
a(I81
F31006.608464873905
I2
I1
I0
tp185
a(I82
F32351.33501392664
I3
I1
I0
tp186
a(I83
F32687.272510567265
I4
I1
I0
tp187
a(I84
F32855.241258887581
I1
I0
I0
tp188
a(I85
F33360.124066338743
I2
I0
I0
tp189
a(I86
F33696.061562979376
I4
I1
I0
tp190
a(I87
F34031.99905962
I1
I1
I0
tp191
a(I88
F34199.967807940309
I2
I1
I0
tp192
a(I89
F34703.87405290125
I1
I1
I0
tp193
a(I90
F35040.788112032111
I3
I0
I0
tp194
a(I91
F35376.725608672728
I4
I1
I0
tp195
a(I92
F35544.694356993044
I1
I0
I0
tp196
a(I93
F36048.600601953985
I2
I0
I0
tp197
a(I94
F36384.53809859461
I4
I1
I0
tp198
a(I95
F36721.452157725471
I1
I1
I0
tp199
a(I96
F36889.42090604578
I2
I1
I0
tp200
a(I97
F37225.358402686405
I1
I1
I0
tp201
a(I98
F37729.264647647338
I3
I1
I0
tp202
a(I99
F38065.20214428797
I4
I1
I0
tp203
a(I100
F38234.147455098515
I1
I0
I0
tp204
a(I101
F38738.053700059456
I2
I0
I0
tp205
a(I102
F39073.991196700081
I4
I1
I0
tp206
a(I103
F39409.928693340698
I1
I1
I0
tp207
a(I104
F39577.897441661014
I2
I1
I0
tp208
a(I105
F40082.780249112184
I1
I1
I0
tp209
a(I106
F40418.717745752809
I3
I1
I0
tp210
a(I107
F40754.655242393441
I4
I1
I0
tp211
a(I108
F40922.62399071375
I1
I0
I0
tp212
a(I109
F41427.506798164926
I2
I0
I0
tp213
a(I110
F41763.444294805544
I4
I1
I0
tp214
a(I111
F42099.381791446169
I1
I1
I0
tp215
a(I112
F42267.350539766485
I2
I1
I0
tp216
a(I113
F43108.170843858279
I3
I1
I0
tp217
a(I114
F43780.045837139529
I1
I1
I0
tp218
a(I115
F43780.045837139529
I2
I1
I0
tp219
a(I116
F44451.920830420779
I1
I0
I0
tp220
a(I117
F44451.920830420779
I3
I0
I0
tp221
a(I118
F45124.772386192264
I2
I1
I0
tp222
a(I119
F45124.772386192264
I3
I1
I0
tp223
a(I120
F45796.647379473514
I1
I0
I0
tp224
a(I121
F45796.647379473514
I4
I0
I0
tp225
a(I122
F46469.498935244999
I1
I1
I0
tp226
a(I123
F46469.498935244999
I3
I1
I0
tp227
a(I124
F47141.373928526249
I2
I0
I0
tp228
a(I125
F47141.373928526249
I4
I0
I0
tp229
a(I126
F49157.975470860234
I1
I0
I0
tp230
a(I127
F49157.975470860234
I2
I0
I0
tp231
a(I128
F49493.912967500859
I1
I0
I0
tp232
a(I129
F49493.912967500859
I2
I0
I0
tp233
aa(lp234
(I0
F156.99939836999999
I3
I1
I0
tp235
a(I1
F754.65564239343757
I4
I1
I0
tp236
a(I2
F1427.5071981649219
I2
I1
I0
tp237
a(I3
F1763.4446948055468
I1
I1
I0
tp238
a(I4
F2099.3821914461719
I3
I1
I0
tp239
a(I5
F2099.3821914461719
I4
I1
I0
tp240
a(I6
F2771.2571847274221
I3
I1
I0
tp241
a(I7
F3444.1087404989062
I4
I1
I0
tp242
a(I8
F3780.0462371395315
I2
I1
I0
tp243
a(I9
F3948.014985459844
I1
I1
I0
tp244
a(I10
F4115.9837337801564
I2
I1
I0
tp245
a(I11
F4451.9212304207813
I1
I1
I0
tp246
a(I12
F4788.8352895516409
I3
I1
I0
tp247
a(I13
F4788.8352895516409
I4
I1
I0
tp248
a(I14
F5460.7102828328907
I2
I1
I0
tp249
a(I15
F5460.7102828328907
I3
I1
I0
tp250
a(I16
F6132.5852761141405
I1
I1
I0
tp251
a(I17
F6132.5852761141405
I4
I1
I0
tp252
a(I18
F6805.436831885625
I3
I1
I0
tp253
a(I19
F6805.436831885625
I4
I1
I0
tp254
a(I20
F7141.3743285262508
I1
I1
I0
tp255
a(I21
F7477.3118251668748
I2
I1
I0
tp256
a(I22
F7813.2493218074997
I3
I1
I0
tp257
a(I23
F7981.218070127813
I4
I1
I0
tp258
a(I24
F8150.1633809383593
I2
I1
I0
tp259
a(I25
F8150.1633809383593
I3
I1
I0
tp260
a(I26
F8822.03837421961
I1
I1
I0
tp261
a(I27
F8822.03837421961
I4
I1
I0
tp262
a(I28
F9493.9133675008579
I3
I1
I0
tp263
a(I29
F9493.9133675008579
I4
I1
I0
tp264
a(I30
F9830.8274266317185
I1
I1
I0
tp265
a(I31
F10166.764923272345
I2
I1
I0
tp266
a(I32
F10838.639916553593
I1
I1
I0
tp267
a(I33
F10838.639916553593
I3
I1
I0
tp268
a(I34
F11342.546161514532
I3
I0
I0
tp269
a(I35
F11847.428968965702
I2
I0
I0
tp270
a(I36
F12183.366465606328
I2
I1
I0
tp271
a(I37
F12183.366465606328
I4
I1
I0
tp272
a(I38
F12519.303962246953
I1
I0
I0
tp273
a(I39
F12855.241458887578
I3
I0
I0
tp274
a(I40
F13528.093014659062
I1
I0
I0
tp275
a(I41
F13528.093014659062
I2
I0
I0
tp276
a(I42
F13864.030511299688
I3
I1
I0
tp277
a(I43
F14199.968007940313
I4
I0
I0
tp278
a(I44
F14367.936756260624
I3
I0
I0
tp279
a(I45
F14535.905504580938
I1
I1
I0
tp280
a(I46
F14872.819563711797
I1
I1
I0
tp281
a(I47
F14872.819563711797
I2
I1
I0
tp282
a(I48
F15208.757060352422
I4
I1
I0
tp283
a(I49
F15544.694556993047
I3
I1
I0
tp284
a(I50
F16216.569550274296
I1
I1
I0
tp285
a(I51
F16216.569550274296
I3
I1
I0
tp286
a(I52
F16553.483609405157
I2
I1
I0
tp287
a(I53
F16889.421106045778
I3
I0
I0
tp288
a(I54
F17057.389854366094
I1
I1
I0
tp289
a(I55
F17225.358602686407
I2
I1
I0
tp290
a(I56
F17561.296099327032
I2
I0
I0
tp291
a(I57
F17561.296099327032
I3
I0
I0
tp292
a(I58
F17897.233595967657
I4
I0
I0
tp293
a(I59
F18234.147655098513
I3
I0
I0
tp294
a(I60
F18906.022648379763
I3
I0
I0
tp295
a(I61
F19241.960145020392
I1
I1
I0
tp296
a(I62
F19577.897641661017
I4
I0
I0
tp297
a(I63
F19746.842952471561
I2
I1
I0
tp298
a(I64
F19914.811700791877
I1
I1
I0
tp299
a(I65
F20250.749197432498
I3
I0
I0
tp300
a(I66
F20586.686694073127
I1
I0
I0
tp301
a(I67
F20586.686694073127
I4
I0
I0
tp302
a(I68
F20922.624190713748
I3
I0
I0
tp303
a(I69
F20922.624190713748
I4
I0
I0
tp304
a(I70
F21595.475746485234
I1
I1
I0
tp305
a(I71
F21595.475746485234
I3
I1
I0
tp306
a(I72
F22099.381991446171
I3
I0
I0
tp307
a(I73
F22603.288236407108
I2
I0
I0
tp308
a(I74
F22939.225733047733
I2
I1
I0
tp309
a(I75
F22939.225733047733
I4
I1
I0
tp310
a(I76
F23276.139792178594
I1
I0
I0
tp311
a(I77
F23612.077288819219
I3
I0
I0
tp312
a(I78
F24283.952282100468
I1
I0
I0
tp313
a(I79
F24283.952282100468
I2
I0
I0
tp314
a(I80
F24619.889778741093
I3
I1
I0
tp315
a(I81
F24956.803837871954
I4
I0
I0
tp316
a(I82
F25124.772586192266
I3
I0
I0
tp317
a(I83
F25292.741334512575
I1
I1
I0
tp318
a(I84
F25628.678831153204
I1
I1
I0
tp319
a(I85
F25628.678831153204
I2
I1
I0
tp320
a(I86
F25964.616327793829
I4
I1
I0
tp321
a(I87
F26300.553824434453
I3
I1
I0
tp322
a(I88
F26973.405380205939
I1
I1
I0
tp323
a(I89
F26973.405380205939
I3
I1
I0
tp324
a(I90
F27309.34287684656
I2
I1
I0
tp325
a(I91
F27645.280373487189
I3
I0
I0
tp326
a(I92
F27813.249121807501
I1
I1
I0
tp327
a(I93
F27981.217870127814
I2
I1
I0
tp328
a(I94
F28318.131929258674
I2
I0
I0
tp329
a(I95
F28318.131929258674
I3
I0
I0
tp330
a(I96
F28654.069425899295
I4
I0
I0
tp331
a(I97
F28990.006922539924
I3
I0
I0
tp332
a(I98
F29661.88191582117
I3
I0
I0
tp333
a(I99
F29998.795974952031
I1
I1
I0
tp334
a(I100
F30334.733471592659
I4
I0
I0
tp335
a(I101
F30502.702219912971
I2
I1
I0
tp336
a(I102
F30670.67096823328
I1
I1
I0
tp337
a(I103
F31006.608464873905
I3
I0
I0
tp338
a(I104
F31342.545961514534
I1
I0
I0
tp339
a(I105
F31342.545961514534
I4
I0
I0
tp340
a(I106
F31679.460020645391
I3
I0
I0
tp341
a(I107
F31679.460020645391
I4
I0
I0
tp342
a(I108
F32351.33501392664
I3
I1
I0
tp343
a(I109
F32855.241258887581
I1
I0
I0
tp344
a(I110
F33192.155318018435
I3
I1
I0
tp345
a(I111
F33360.124066338743
I1
I0
I0
tp346
a(I112
F33528.092814659067
I2
I0
I0
tp347
a(I113
F33696.061562979376
I4
I1
I0
tp348
a(I114
F34199.967807940309
I2
I1
I0
tp349
a(I115
F34535.905304580934
I4
I1
I0
tp350
a(I116
F34703.87405290125
I2
I1
I0
tp351
a(I117
F34872.819363711795
I1
I1
I0
tp352
a(I118
F35040.788112032111
I3
I1
I0
tp353
a(I119
F35544.694356993044
I1
I0
I0
tp354
a(I120
F35880.631853633677
I3
I1
I0
tp355
a(I121
F36048.600601953985
I1
I0
I0
tp356
a(I122
F36216.569350274294
I2
I0
I0
tp357
a(I123
F36384.53809859461
I4
I1
I0
tp358
a(I124
F36889.42090604578
I2
I1
I0
tp359
a(I125
F37225.358402686405
I4
I1
I0
tp360
a(I126
F37393.327151006713
I2
I1
I0
tp361
a(I127
F37561.295899327029
I1
I1
I0
tp362
a(I128
F37729.264647647338
I3
I1
I0
tp363
a(I129
F38234.147455098515
I1
I1
I0
tp364
a(I130
F39073.991196700081
I4
I1
I0
tp365
a(I131
F39914.811500791875
I3
I1
I0
tp366
a(I132
F40082.780249112184
I1
I0
I0
tp367
a(I133
F40250.7489974325
I2
I0
I0
tp368
a(I134
F40418.717745752809
I4
I1
I0
tp369
a(I135
F40922.62399071375
I2
I1
I0
tp370
a(I136
F41258.561487354375
I4
I1
I0
tp371
a(I137
F41427.506798164926
I2
I1
I0
tp372
a(I138
F41595.475546485235
I1
I1
I0
tp373
a(I139
F41763.444294805544
I3
I1
I0
tp374
a(I140
F43108.170843858279
I3
I1
I0
tp375
a(I141
F43360.123966338746
I1
I0
I0
tp376
a(I142
F43612.07708881922
I2
I0
I0
tp377
a(I143
F43780.045837139529
I3
I1
I0
tp378
a(I144
F44031.998959620003
I2
I0
I0
tp379
a(I145
F44283.95208210047
I1
I0
I0
tp380
a(I146
F44451.920830420779
I4
I0
I0
tp381
a(I147
F44703.873952901253
I1
I0
I0
tp382
a(I148
F44956.803637871948
I2
I0
I0
tp383
a(I149
F45124.772386192264
I4
I0
I0
tp384
a(I150
F45376.725508672731
I2
I0
I0
tp385
a(I151
F45628.678631153205
I1
I0
I0
tp386
a(I152
F45796.647379473514
I3
I1
I0
tp387
a(I153
F46048.600501953981
I1
I0
I0
tp388
a(I154
F46300.553624434455
I2
I0
I0
tp389
a(I155
F46469.498935244999
I3
I1
I0
tp390
a(I156
F46721.452057725466
I2
I0
I0
tp391
a(I157
F46973.405180205933
I1
I0
I0
tp392
a(I158
F47141.373928526249
I4
I0
I0
tp393
a(I159
F49157.975470860234
I1
I0
I0
tp394
a(I160
F49157.975470860234
I2
I0
I0
tp395
a(I161
F49493.912967500859
I1
I0
I0
tp396
a(I162
F49493.912967500859
I2
I0
I0
tp397
a(I163
F49830.827026631719
I3
I1
I0
tp398
aa.