(lp1
(lp2
(I0
F121.00003998750002
I1
I0
I0
tp3
a(I1
F904.2031649091798
I3
I0
I0
tp4
a(I2
F1704.0078523291995
I2
I0
I0
tp5
a(I3
F2103.4219147892582
I4
I0
I0
tp6
a(I4
F2503.812539749219
I1
I0
I0
tp7
a(I5
F3303.6172271692385
I1
I1
I0
tp8
a(I6
F4103.4219145892584
I4
I1
I0
tp9
a(I7
F4904.2031645091802
I2
I1
I0
tp10
a(I8
F5303.6172269692388
I3
I1
I0
tp11
a(I9
F5704.0078519292001
I1
I1
I0
tp12
a(I10
F6503.8125393492201
I1
I0
I0
tp13
a(I11
F6503.8125393492201
I2
I0
I0
tp14
a(I12
F7303.6172267692391
I3
I0
I0
tp15
a(I13
F7303.6172267692391
I4
I0
I0
tp16
a(I14
F8103.421914189259
I1
I1
I0
tp17
a(I15
F8103.421914189259
I2
I1
I0
tp18
a(I16
F8904.2031641091799
I3
I1
I0
tp19
a(I17
F8904.2031641091799
I4
I1
I0
tp20
a(I18
F9704.0078515292007
I3
I1
I0
tp21
a(I19
F10103.421913989258
I1
I1
I0
tp22
a(I20
F10503.812538949222
I3
I1
I0
tp23
a(I21
F10904.203163909182
I2
I1
I0
tp24
a(I22
F11303.617226369241
I4
I1
I0
tp25
a(I23
F11704.007851329201
I1
I1
I0
tp26
a(I24
F12103.42191378926
I3
I1
I0
tp27
a(I25
F12904.203163709182
I2
I1
I0
tp28
a(I26
F13687.40628863086
I3
I0
I0
tp29
a(I27
F14487.210976050879
I1
I1
I0
tp30
a(I28
F14887.601601010841
I2
I0
I0
tp31
a(I29
F15287.015663470902
I3
I1
I0
tp32
a(I30
F16086.820350890921
I2
I1
I0
tp33
a(I31
F16887.601600810842
I3
I0
I0
tp34
a(I32
F17687.406288230861
I1
I1
I0
tp35
a(I33
F18086.820350690919
I2
I0
I0
tp36
a(I34
F18487.21097565088
I3
I1
I0
tp37
a(I35
F19287.015663070903
I2
I0
I0
tp38
a(I36
F19704.007850529204
I3
I1
I0
tp39
a(I37
F20103.421912989263
I4
I0
I0
tp40
a(I38
F20503.812537949219
I1
I1
I0
tp41
a(I39
F20904.203162909183
I2
I1
I0
tp42
a(I40
F21303.617225369242
I3
I0
I0
tp43
a(I41
F21704.007850329202
I4
I1
I0
tp44
a(I42
F22103.421912789261
I2
I1
I0
tp45
a(I43
F22503.812537749222
I2
I0
I0
tp46
a(I44
F22904.203162709182
I3
I0
I0
tp47
a(I45
F23303.617225169241
I4
I1
I0
tp48
a(I46
F23704.007850129205
I1
I0
I0
tp49
a(I47
F24103.421912589263
I2
I1
I0
tp50
a(I48
F24503.81253754922
I3
I1
I0
tp51
a(I49
F24704.0078500292
I3
I0
I0
tp52
a(I50
F24904.203162509184
I3
I1
I0
tp53
a(I51
F25704.007849929199
I2
I0
I0
tp54
a(I52
F26103.421912389262
I3
I1
I0
tp55
a(I53
F26503.812537349222
I4
I0
I0
tp56
a(I54
F26904.203162309183
I1
I1
I0
tp57
a(I55
F27303.617224769241
I2
I1
I0
tp58
a(I56
F27704.007849729202
I3
I0
I0
tp59
a(I57
F28103.42191218926
I4
I1
I0
tp60
a(I58
F28503.812537149221
I2
I1
I0
tp61
a(I59
F28904.203162109185
I2
I1
I0
tp62
a(I60
F29303.617224569243
I3
I1
I0
tp63
a(I61
F29704.0078495292
I4
I1
I0
tp64
a(I62
F30103.421911989259
I1
I1
I0
tp65
a(I63
F30503.812536949223
I2
I1
I0
tp66
a(I64
F30904.203161909183
I3
I1
I0
tp67
a(I65
F31303.617224369242
I4
I1
I0
tp68
a(I66
F31704.007849329202
I2
I1
I0
tp69
a(I67
F32103.421911789261
I1
I0
I0
tp70
a(I68
F32904.203161709185
I3
I0
I0
tp71
a(I69
F33704.007849129201
I2
I0
I0
tp72
a(I70
F34103.421911589263
I4
I0
I0
tp73
a(I71
F34503.812536549223
I1
I0
I0
tp74
a(I72
F35303.617223969246
I1
I1
I0
tp75
a(I73
F36103.421911389261
I4
I1
I0
tp76
a(I74
F36904.203161309189
I2
I1
I0
tp77
a(I75
F37303.617223769244
I3
I1
I0
tp78
a(I76
F37704.007848729205
I1
I1
I0
tp79
a(I77
F38503.81253614922
I1
I0
I0
tp80
a(I78
F38503.81253614922
I2
I0
I0
tp81
a(I79
F39303.617223569243
I3
I0
I0
tp82
a(I80
F39303.617223569243
I4
I0
I0
tp83
a(I81
F40103.421910989266
I1
I1
I0
tp84
a(I82
F40103.421910989266
I2
I1
I0
tp85
a(I83
F40904.203160909186
I3
I1
I0
tp86
a(I84
F40904.203160909186
I4
I1
I0
tp87
a(I85
F41704.007848329202
I3
I1
I0
tp88
a(I86
F42103.421910789257
I1
I1
I0
tp89
a(I87
F42503.812535749224
I3
I1
I0
tp90
a(I88
F42904.203160709185
I2
I1
I0
tp91
a(I89
F43303.617223169247
I4
I1
I0
tp92
a(I90
F43704.0078481292
I1
I1
I0
tp93
a(I91
F44103.421910589263
I3
I1
I0
tp94
aa(lp95
(I0
F121.00003998750002
I4
I1
I0
tp96
a(I1
F904.2031649091798
I3
I0
I0
tp97
a(I2
F1303.6172273692384
I2
I0
I0
tp98
a(I3
F1704.0078523291995
I4
I1
I0
tp99
a(I4
F2103.4219147892582
I1
I0
I0
tp100
a(I5
F2503.812539749219
I3
I0
I0
tp101
a(I6
F3303.6172271692385
I1
I1
I0
tp102
a(I7
F4103.4219145892584
I4
I1
I0
tp103
a(I8
F4503.8125395492189
I2
I1
I0
tp104
a(I9
F4904.2031645091802
I3
I1
I0
tp105
a(I10
F5303.6172269692388
I1
I1
I0
tp106
a(I11
F5704.0078519292001
I4
I1
I0
tp107
a(I12
F6503.8125393492201
I1
I0
I0
tp108
a(I13
F6503.8125393492201
I3
I0
I0
tp109
a(I14
F7303.6172267692391
I1
I1
I0
tp110
a(I15
F7303.6172267692391
I4
I1
I0
tp111
a(I16
F8103.421914189259
I2
I1
I0
tp112
a(I17
F8103.421914189259
I3
I1
I0
tp113
a(I18
F8904.2031641091799
I2
I0
I0
tp114
a(I19
F8904.2031641091799
I4
I0
I0
tp115
a(I20
F9704.0078515292007
I1
I0
I0
tp116
a(I21
F9704.0078515292007
I4
I0
I0
tp117
a(I22
F10503.812538949222
I2
I1
I0
tp118
a(I23
F10503.812538949222
I3
I1
I0
tp119
a(I24
F11303.617226369241
I2
I0
I0
tp120
a(I25
F11303.617226369241
I4
I0
I0
tp121
a(I26
F12103.42191378926
I1
I1
I0
tp122
a(I27
F12103.42191378926
I3
I1
I0
tp123
a(I28
F12904.203163709182
I2
I1
I0
tp124
a(I29
F13287.0156636709
I1
I1
I0
tp125
a(I30
F13687.40628863086
I3
I0
I0
tp126
a(I31
F14086.820351090919
I1
I1
I0
tp127
a(I32
F14487.210976050879
I4
I1
I0
tp128
a(I33
F14887.601601010841
I2
I0
I0
tp129
a(I34
F15287.015663470902
I3
I0
I0
tp130
a(I35
F16086.820350890921
I2
I1
I0
tp131
a(I36
F16487.210975850881
I1
I1
I0
tp132
a(I37
F16887.601600810842
I3
I0
I0
tp133
a(I38
F17287.0156632709
I1
I1
I0
tp134
a(I39
F17687.406288230861
I4
I1
I0
tp135
a(I40
F18086.820350690919
I2
I0
I0
tp136
a(I41
F18487.21097565088
I3
I0
I0
tp137
a(I42
F19287.015663070903
I2
I0
I0
tp138
a(I43
F19704.007850529204
I3
I1
I0
tp139
a(I44
F20103.421912989263
I4
I0
I0
tp140
a(I45
F20503.812537949219
I1
I1
I0
tp141
a(I46
F20503.812537949219
I4
I1
I0
tp142
a(I47
F20904.203162909183
I2
I1
I0
tp143
a(I48
F21303.617225369242
I3
I0
I0
tp144
a(I49
F21704.007850329202
I4
I1
I0
tp145
a(I50
F22103.421912789261
I2
I1
I0
tp146
a(I51
F22103.421912789261
I3
I1
I0
tp147
a(I52
F22503.812537749222
I2
I0
I0
tp148
a(I53
F22904.203162709182
I3
I0
I0
tp149
a(I54
F23303.617225169241
I4
I1
I0
tp150
a(I55
F23704.007850129205
I1
I0
I0
tp151
a(I56
F23704.007850129205
I4
I0
I0
tp152
a(I57
F24103.421912589263
I1
I1
I0
tp153
a(I58
F24103.421912589263
I2
I1
I0
tp154
a(I59
F24503.81253754922
I3
I1
I0
tp155
a(I60
F24503.81253754922
I4
I1
I0
tp156
a(I61
F24904.203162509184
I1
I1
I0
tp157
a(I62
F24904.203162509184
I2
I1
I0
tp158
a(I63
F25704.007849929199
I2
I0
I0
tp159
a(I64
F26103.421912389262
I3
I1
I0
tp160
a(I65
F26503.812537349222
I4
I0
I0
tp161
a(I66
F26904.203162309183
I1
I1
I0
tp162
a(I67
F26904.203162309183
I4
I1
I0
tp163
a(I68
F27303.617224769241
I2
I1
I0
tp164
a(I69
F27704.007849729202
I3
I0
I0
tp165
a(I70
F28103.42191218926
I4
I1
I0
tp166
a(I71
F28503.812537149221
I2
I1
I0
tp167
a(I72
F28503.812537149221
I3
I1
I0
tp168
a(I73
F28904.203162109185
I2
I1
I0
tp169
a(I74
F29303.617224569243
I3
I1
I0
tp170
a(I75
F29704.0078495292
I4
I1
I0
tp171
a(I76
F30103.421911989259
I1
I1
I0
tp172
a(I77
F30103.421911989259
I4
I1
I0
tp173
a(I78
F30503.812536949223
I2
I1
I0
tp174
a(I79
F30904.203161909183
I3
I1
I0
tp175
a(I80
F31303.617224369242
I4
I1
I0
tp176
a(I81
F31704.007849329202
I2
I1
I0
tp177
a(I82
F31704.007849329202
I3
I1
I0
tp178
a(I83
F32103.421911789261
I4
I1
I0
tp179
a(I84
F32904.203161709185
I3
I0
I0
tp180
a(I85
F33303.61722416924
I2
I0
I0
tp181
a(I86
F33704.007849129201
I4
I1
I0
tp182
a(I87
F34103.421911589263
I1
I0
I0
tp183
a(I88
F34503.812536549223
I3
I0
I0
tp184
a(I89
F35303.617223969246
I1
I1
I0
tp185
a(I90
F36103.421911389261
I4
I1
I0
tp186
a(I91
F36503.812536349222
I2
I1
I0
tp187
a(I92
F36904.203161309189
I3
I1
I0
tp188
a(I93
F37303.617223769244
I1
I1
I0
tp189
a(I94
F37704.007848729205
I4
I1
I0
tp190
a(I95
F38503.81253614922
I1
I0
I0
tp191
a(I96
F38503.81253614922
I3
I0
I0
tp192
a(I97
F39303.617223569243
I1
I1
I0
tp193
a(I98
F39303.617223569243
I4
I1
I0
tp194
a(I99
F40103.421910989266
I2
I1
I0
tp195
a(I100
F40103.421910989266
I3
I1
I0
tp196
a(I101
F40904.203160909186
I2
I0
I0
tp197
a(I102
F40904.203160909186
I4
I0
I0
tp198
a(I103
F41704.007848329202
I1
I0
I0
tp199
a(I104
F41704.007848329202
I4
I0
I0
tp200
a(I105
F42503.812535749224
I2
I1
I0
tp201
a(I106
F42503.812535749224
I3
I1
I0
tp202
a(I107
F43303.617223169247
I2
I0
I0
tp203
a(I108
F43303.617223169247
I4
I0
I0
tp204
a(I109
F44103.421910589263
I1
I1
I0
tp205
a(I110
F44103.421910589263
I3
I1
I0
tp206
aa(lp207
(I0
F121.00003998750002
I1
I0
I0
tp208
a(I1
F503.81253994921877
I3
I0
I0
tp209
a(I2
F704.00785242919926
I2
I0
I0
tp210
a(I3
F904.2031649091798
I4
I0
I0
tp211
a(I4
F1303.6172273692384
I1
I0
I0
tp212
a(I5
F1704.0078523291995
I4
I0
I0
tp213
a(I6
F1904.2031648091797
I2
I0
I0
tp214
a(I7
F2103.4219147892582
I3
I0
I0
tp215
a(I8
F2303.6172272692388
I1
I0
I0
tp216
a(I9
F2503.812539749219
I3
I0
I0
tp217
a(I10
F3303.6172271692385
I1
I1
I0
tp218
a(I11
F3704.0078521291994
I4
I1
I0
tp219
a(I12
F3904.2031646091805
I2
I1
I0
tp220
a(I13
F4103.4219145892584
I3
I1
I0
tp221
a(I14
F4503.8125395492189
I1
I1
I0
tp222
a(I15
F4904.2031645091802
I3
I1
I0
tp223
a(I16
F5103.4219144892586
I2
I1
I0
tp224
a(I17
F5303.6172269692388
I4
I1
I0
tp225
a(I18
F5503.812539449219
I1
I1
I0
tp226
a(I19
F5704.0078519292001
I3
I1
I0
tp227
a(I20
F6503.8125393492201
I1
I0
I0
tp228
a(I21
F6503.8125393492201
I3
I0
I0
tp229
a(I22
F6904.2031643091805
I2
I0
I0
tp230
a(I23
F6904.2031643091805
I4
I0
I0
tp231
a(I24
F7303.6172267692391
I1
I1
I0
tp232
a(I25
F7303.6172267692391
I4
I1
I0
tp233
a(I26
F8103.421914189259
I2
I1
I0
tp234
a(I27
F8103.421914189259
I3
I1
I0
tp235
a(I28
F8503.8125391492194
I1
I1
I0
tp236
a(I29
F8503.8125391492194
I3
I1
I0
tp237
a(I30
F8904.2031641091799
I2
I0
I0
tp238
a(I31
F8904.2031641091799
I4
I0
I0
tp239
a(I32
F9704.0078515292007
I1
I0
I0
tp240
a(I33
F9704.0078515292007
I4
I0
I0
tp241
a(I34
F10103.421913989258
I3
I1
I0
tp242
a(I35
F10303.61722646924
I2
I1
I0
tp243
a(I36
F10503.812538949222
I3
I1
I0
tp244
a(I37
F11303.617226369241
I2
I0
I0
tp245
a(I38
F11303.617226369241
I3
I0
I0
tp246
a(I39
F11704.007851329201
I2
I1
I0
tp247
a(I40
F11904.203163809181
I4
I1
I0
tp248
a(I41
F12103.42191378926
I2
I1
I0
tp249
a(I42
F12904.203163709182
I2
I1
I0
tp250
a(I43
F13287.0156636709
I1
I1
I0
tp251
a(I44
F13487.21097615088
I3
I1
I0
tp252
a(I45
F13687.40628863086
I4
I1
I0
tp253
a(I46
F14086.820351090919
I1
I1
I0
tp254
a(I47
F14086.820351090919
I2
I1
I0
tp255
a(I48
F14487.210976050879
I4
I1
I0
tp256
a(I49
F14887.601601010841
I2
I0
I0
tp257
a(I50
F15086.82035099092
I1
I1
I0
tp258
a(I51
F15287.015663470902
I3
I1
I0
tp259
a(I52
F15687.406288430862
I3
I1
I0
tp260
a(I53
F15687.406288430862
I4
I1
I0
tp261
a(I54
F16086.820350890921
I2
I1
I0
tp262
a(I55
F16487.210975850881
I1
I1
I0
tp263
a(I56
F16687.406288330862
I3
I1
I0
tp264
a(I57
F16887.601600810842
I4
I1
I0
tp265
a(I58
F17287.0156632709
I1
I1
I0
tp266
a(I59
F17287.0156632709
I2
I1
I0
tp267
a(I60
F17687.406288230861
I4
I1
I0
tp268
a(I61
F18086.820350690919
I2
I0
I0
tp269
a(I62
F18287.0156631709
I1
I1
I0
tp270
a(I63
F18487.21097565088
I3
I1
I0
tp271
a(I64
F18887.601600610844
I3
I1
I0
tp272
a(I65
F18887.601600610844
I4
I1
I0
tp273
a(I66
F19287.015663070903
I2
I0
I0
tp274
a(I67
F19704.007850529204
I3
I1
I0
tp275
a(I68
F19904.203163009184
I1
I1
I0
tp276
a(I69
F20103.421912989263
I4
I0
I0
tp277
a(I70
F20503.812537949219
I1
I1
I0
tp278
a(I71
F20503.812537949219
I4
I1
I0
tp279
a(I72
F20904.203162909183
I2
I1
I0
tp280
a(I73
F21303.617225369242
I3
I0
I0
tp281
a(I74
F21503.812537849222
I1
I1
I0
tp282
a(I75
F21704.007850329202
I4
I1
I0
tp283
a(I76
F22103.421912789261
I2
I1
I0
tp284
a(I77
F22103.421912789261
I3
I1
I0
tp285
a(I78
F22503.812537749222
I2
I0
I0
tp286
a(I79
F22904.203162709182
I3
I0
I0
tp287
a(I80
F23103.42191268926
I1
I1
I0
tp288
a(I81
F23303.617225169241
I4
I1
I0
tp289
a(I82
F23704.007850129205
I1
I0
I0
tp290
a(I83
F23704.007850129205
I4
I0
I0
tp291
a(I84
F24103.421912589263
I2
I1
I0
tp292
a(I85
F24103.421912589263
I3
I1
I0
tp293
a(I86
F24503.81253754922
I2
I1
I0
tp294
a(I87
F24503.81253754922
I4
I1
I0
tp295
a(I88
F24904.203162509184
I1
I0
I0
tp296
a(I89
F24904.203162509184
I3
I0
I0
tp297
a(I90
F25704.007849929199
I2
I0
I0
tp298
a(I91
F26103.421912389262
I3
I1
I0
tp299
a(I92
F26303.617224869238
I1
I1
I0
tp300
a(I93
F26503.812537349222
I4
I0
I0
tp301
a(I94
F26904.203162309183
I1
I1
I0
tp302
a(I95
F26904.203162309183
I4
I1
I0
tp303
a(I96
F27303.617224769241
I2
I1
I0
tp304
a(I97
F27704.007849729202
I3
I0
I0
tp305
a(I98
F27904.203162209182
I1
I1
I0
tp306
a(I99
F28103.42191218926
I4
I1
I0
tp307
a(I100
F28503.812537149221
I2
I1
I0
tp308
a(I101
F28503.812537149221
I3
I1
I0
tp309
a(I102
F28904.203162109185
I2
I1
I0
tp310
a(I103
F29303.617224569243
I3
I1
I0
tp311
a(I104
F29503.81253704922
I1
I1
I0
tp312
a(I105
F29704.0078495292
I4
I1
I0
tp313
a(I106
F30103.421911989259
I1
I1
I0
tp314
a(I107
F30103.421911989259
I4
I1
I0
tp315
a(I108
F30503.812536949223
I2
I1
I0
tp316
a(I109
F30904.203161909183
I3
I1
I0
tp317
a(I110
F31103.421911889262
I1
I1
I0
tp318
a(I111
F31303.617224369242
I4
I1
I0
tp319
a(I112
F31704.007849329202
I2
I1
I0
tp320
a(I113
F31704.007849329202
I3
I1
I0
tp321
a(I114
F32103.421911789261
I1
I0
I0
tp322
a(I115
F32503.812536749221
I3
I0
I0
tp323
a(I116
F32704.007849229205
I2
I0
I0
tp324
a(I117
F32904.203161709185
I4
I0
I0
tp325
a(I118
F33303.61722416924
I1
I0
I0
tp326
a(I119
F33704.007849129201
I4
I0
I0
tp327
a(I120
F33904.203161609177
I2
I0
I0
tp328
a(I121
F34103.421911589263
I3
I0
I0
tp329
a(I122
F34303.617224069239
I1
I0
I0
tp330
a(I123
F34503.812536549223
I3
I0
I0
tp331
a(I124
F35303.617223969246
I1
I1
I0
tp332
a(I125
F35704.007848929206
I4
I1
I0
tp333
a(I126
F35904.203161409183
I2
I1
I0
tp334
a(I127
F36103.421911389261
I3
I1
I0
tp335
a(I128
F36503.812536349222
I1
I1
I0
tp336
a(I129
F36904.203161309189
I3
I1
I0
tp337
a(I130
F37103.421911289261
I2
I1
I0
tp338
a(I131
F37303.617223769244
I4
I1
I0
tp339
a(I132
F37503.812536249228
I1
I1
I0
tp340
a(I133
F37704.007848729205
I3
I1
I0
tp341
a(I134
F38503.81253614922
I1
I0
I0
tp342
a(I135
F38503.81253614922
I3
I0
I0
tp343
a(I136
F38904.203161109181
I2
I0
I0
tp344
a(I137
F38904.203161109181
I4
I0
I0
tp345
a(I138
F39303.617223569243
I1
I1
I0
tp346
a(I139
F39303.617223569243
I4
I1
I0
tp347
a(I140
F40103.421910989266
I2
I1
I0
tp348
a(I141
F40103.421910989266
I3
I1
I0
tp349
a(I142
F40503.812535949226
I1
I1
I0
tp350
a(I143
F40503.812535949226
I3
I1
I0
tp351
a(I144
F40904.203160909186
I2
I0
I0
tp352
a(I145
F40904.203160909186
I4
I0
I0
tp353
a(I146
F41704.007848329202
I1
I0
I0
tp354
a(I147
F41704.007848329202
I4
I0
I0
tp355
a(I148
F42103.421910789257
I3
I1
I0
tp356
a(I149
F42303.617223269248
I2
I1
I0
tp357
a(I150
F42503.812535749224
I3
I1
I0
tp358
a(I151
F43303.617223169247
I2
I0
I0
tp359
a(I152
F43303.617223169247
I3
I0
I0
tp360
a(I153
F43704.0078481292
I2
I1
I0
tp361
a(I154
F43904.203160609184
I4
I1
I0
tp362
a(I155
F44103.421910589263
I2
I1
I0
tp363
aa.