(lp1
(lp2
(I0
F125.00125000000001
I1
I0
I0
tp3
a(I1
F908.21220703125005
I3
I0
I0
tp4
a(I2
F1708.0248925781252
I2
I0
I0
tp5
a(I3
F2107.4429492187501
I4
I0
I0
tp6
a(I4
F2507.8375781250002
I1
I0
I0
tp7
a(I5
F3307.6502636718751
I1
I1
I0
tp8
a(I6
F4107.4629492187505
I4
I1
I0
tp9
a(I7
F4908.2522070312507
I2
I1
I0
tp10
a(I8
F5307.6702636718755
I3
I1
I0
tp11
a(I9
F5708.0648925781252
I1
I1
I0
tp12
a(I10
F6507.8775781250006
I1
I0
I0
tp13
a(I11
F6507.8775781250006
I2
I0
I0
tp14
a(I12
F7307.6902636718751
I3
I0
I0
tp15
a(I13
F7307.6902636718751
I4
I0
I0
tp16
a(I14
F8107.5029492187505
I1
I1
I0
tp17
a(I15
F8107.5029492187505
I2
I1
I0
tp18
a(I16
F8908.2922070312507
I3
I1
I0
tp19
a(I17
F8908.2922070312507
I4
I1
I0
tp20
a(I18
F9708.1048925781251
I3
I1
I0
tp21
a(I19
F10107.52294921875
I1
I1
I0
tp22
a(I20
F10507.917578125001
I3
I1
I0
tp23
a(I21
F10908.312207031251
I2
I1
I0
tp24
a(I22
F11307.730263671876
I4
I1
I0
tp25
a(I23
F11708.124892578126
I1
I1
I0
tp26
a(I24
F12107.54294921875
I3
I1
I0
tp27
a(I25
F12908.332207031252
I2
I1
I0
tp28
a(I26
F13691.543164062501
I3
I0
I0
tp29
a(I27
F14491.355849609376
I1
I1
I0
tp30
a(I28
F14891.750478515625
I2
I0
I0
tp31
a(I29
F15291.168535156252
I3
I1
I0
tp32
a(I30
F16090.981220703126
I2
I1
I0
tp33
a(I31
F16891.770478515627
I3
I0
I0
tp34
a(I32
F17691.5831640625
I1
I1
I0
tp35
a(I33
F18091.001220703125
I2
I0
I0
tp36
a(I34
F18491.395849609376
I3
I1
I0
tp37
a(I35
F19291.208535156253
I2
I0
I0
tp38
a(I36
F19708.204892578127
I3
I1
I0
tp39
a(I37
F20107.622949218752
I4
I0
I0
tp40
a(I38
F20508.017578125
I1
I1
I0
tp41
a(I39
F20908.412207031251
I2
I1
I0
tp42
a(I40
F21307.830263671876
I3
I0
I0
tp43
a(I41
F21708.224892578128
I4
I1
I0
tp44
a(I42
F22107.642949218753
I2
I1
I0
tp45
a(I43
F22508.037578125
I2
I0
I0
tp46
a(I44
F22908.432207031252
I3
I0
I0
tp47
a(I45
F23307.850263671877
I4
I1
I0
tp48
a(I46
F23708.244892578128
I1
I0
I0
tp49
a(I47
F24107.662949218753
I2
I1
I0
tp50
a(I48
F24508.057578125001
I3
I1
I0
tp51
a(I49
F24708.254892578127
I3
I0
I0
tp52
a(I50
F24908.452207031252
I3
I1
I0
tp53
a(I51
F25708.264892578125
I2
I0
I0
tp54
a(I52
F26107.682949218753
I3
I1
I0
tp55
a(I53
F26508.077578125001
I4
I0
I0
tp56
a(I54
F26908.472207031253
I1
I1
I0
tp57
a(I55
F27307.890263671878
I2
I1
I0
tp58
a(I56
F27708.284892578125
I3
I0
I0
tp59
a(I57
F28107.70294921875
I4
I1
I0
tp60
a(I58
F28508.097578125002
I2
I1
I0
tp61
a(I59
F28908.492207031253
I2
I1
I0
tp62
a(I60
F29307.910263671878
I3
I1
I0
tp63
a(I61
F29708.304892578126
I4
I1
I0
tp64
a(I62
F30107.722949218751
I1
I1
I0
tp65
a(I63
F30508.117578125002
I2
I1
I0
tp66
a(I64
F30908.512207031254
I3
I1
I0
tp67
a(I65
F31307.930263671878
I4
I1
I0
tp68
a(I66
F31708.324892578126
I2
I1
I0
tp69
a(I67
F32107.742949218751
I1
I0
I0
tp70
a(I68
F32908.532207031254
I3
I0
I0
tp71
a(I69
F33708.344892578127
I2
I0
I0
tp72
a(I70
F34107.762949218755
I4
I0
I0
tp73
a(I71
F34508.157578124999
I1
I0
I0
tp74
a(I72
F35307.970263671879
I1
I1
I0
tp75
a(I73
F36107.782949218752
I4
I1
I0
tp76
a(I74
F36908.572207031255
I2
I1
I0
tp77
a(I75
F37307.990263671876
I3
I1
I0
tp78
a(I76
F37708.384892578128
I1
I1
I0
tp79
a(I77
F38508.197578125
I1
I0
I0
tp80
a(I78
F38508.197578125
I2
I0
I0
tp81
a(I79
F39308.01026367188
I3
I0
I0
tp82
a(I80
F39308.01026367188
I4
I0
I0
tp83
a(I81
F40107.822949218753
I1
I1
I0
tp84
a(I82
F40107.822949218753
I2
I1
I0
tp85
a(I83
F40908.612207031256
I3
I1
I0
tp86
a(I84
F40908.612207031256
I4
I1
I0
tp87
a(I85
F41708.424892578128
I3
I1
I0
tp88
a(I86
F42107.84294921875
I1
I1
I0
tp89
a(I87
F42508.237578125001
I3
I1
I0
tp90
a(I88
F42908.632207031253
I2
I1
I0
tp91
a(I89
F43308.050263671881
I4
I1
I0
tp92
a(I90
F43708.444892578125
I1
I1
I0
tp93
a(I91
F44107.862949218754
I3
I1
I0
tp94
aa(lp95
(I0
F125.00125000000001
I4
I1
I0
tp96
a(I1
F908.21220703125005
I3
I0
I0
tp97
a(I2
F1307.6302636718751
I2
I0
I0
tp98
a(I3
F1708.0248925781252
I4
I1
I0
tp99
a(I4
F2107.4429492187501
I1
I0
I0
tp100
a(I5
F2507.8375781250002
I3
I0
I0
tp101
a(I6
F3307.6502636718751
I1
I1
I0
tp102
a(I7
F4107.4629492187505
I4
I1
I0
tp103
a(I8
F4507.8575781250001
I2
I1
I0
tp104
a(I9
F4908.2522070312507
I3
I1
I0
tp105
a(I10
F5307.6702636718755
I1
I1
I0
tp106
a(I11
F5708.0648925781252
I4
I1
I0
tp107
a(I12
F6507.8775781250006
I1
I0
I0
tp108
a(I13
F6507.8775781250006
I3
I0
I0
tp109
a(I14
F7307.6902636718751
I1
I1
I0
tp110
a(I15
F7307.6902636718751
I4
I1
I0
tp111
a(I16
F8107.5029492187505
I2
I1
I0
tp112
a(I17
F8107.5029492187505
I3
I1
I0
tp113
a(I18
F8908.2922070312507
I2
I0
I0
tp114
a(I19
F8908.2922070312507
I4
I0
I0
tp115
a(I20
F9708.1048925781251
I1
I0
I0
tp116
a(I21
F9708.1048925781251
I4
I0
I0
tp117
a(I22
F10507.917578125001
I2
I1
I0
tp118
a(I23
F10507.917578125001
I3
I1
I0
tp119
a(I24
F11307.730263671876
I2
I0
I0
tp120
a(I25
F11307.730263671876
I4
I0
I0
tp121
a(I26
F12107.54294921875
I1
I1
I0
tp122
a(I27
F12107.54294921875
I3
I1
I0
tp123
a(I28
F12908.332207031252
I2
I1
I0
tp124
a(I29
F13291.148535156251
I1
I1
I0
tp125
a(I30
F13691.543164062501
I3
I0
I0
tp126
a(I31
F14090.961220703126
I1
I1
I0
tp127
a(I32
F14491.355849609376
I4
I1
I0
tp128
a(I33
F14891.750478515625
I2
I0
I0
tp129
a(I34
F15291.168535156252
I3
I0
I0
tp130
a(I35
F16090.981220703126
I2
I1
I0
tp131
a(I36
F16491.375849609376
I1
I1
I0
tp132
a(I37
F16891.770478515627
I3
I0
I0
tp133
a(I38
F17291.188535156252
I1
I1
I0
tp134
a(I39
F17691.5831640625
I4
I1
I0
tp135
a(I40
F18091.001220703125
I2
I0
I0
tp136
a(I41
F18491.395849609376
I3
I0
I0
tp137
a(I42
F19291.208535156253
I2
I0
I0
tp138
a(I43
F19708.204892578127
I3
I1
I0
tp139
a(I44
F20107.622949218752
I4
I0
I0
tp140
a(I45
F20508.017578125
I1
I1
I0
tp141
a(I46
F20508.017578125
I4
I1
I0
tp142
a(I47
F20908.412207031251
I2
I1
I0
tp143
a(I48
F21307.830263671876
I3
I0
I0
tp144
a(I49
F21708.224892578128
I4
I1
I0
tp145
a(I50
F22107.642949218753
I2
I1
I0
tp146
a(I51
F22107.642949218753
I3
I1
I0
tp147
a(I52
F22508.037578125
I2
I0
I0
tp148
a(I53
F22908.432207031252
I3
I0
I0
tp149
a(I54
F23307.850263671877
I4
I1
I0
tp150
a(I55
F23708.244892578128
I1
I0
I0
tp151
a(I56
F23708.244892578128
I4
I0
I0
tp152
a(I57
F24107.662949218753
I1
I1
I0
tp153
a(I58
F24107.662949218753
I2
I1
I0
tp154
a(I59
F24508.057578125001
I3
I1
I0
tp155
a(I60
F24508.057578125001
I4
I1
I0
tp156
a(I61
F24908.452207031252
I1
I1
I0
tp157
a(I62
F24908.452207031252
I2
I1
I0
tp158
a(I63
F25708.264892578125
I2
I0
I0
tp159
a(I64
F26107.682949218753
I3
I1
I0
tp160
a(I65
F26508.077578125001
I4
I0
I0
tp161
a(I66
F26908.472207031253
I1
I1
I0
tp162
a(I67
F26908.472207031253
I4
I1
I0
tp163
a(I68
F27307.890263671878
I2
I1
I0
tp164
a(I69
F27708.284892578125
I3
I0
I0
tp165
a(I70
F28107.70294921875
I4
I1
I0
tp166
a(I71
F28508.097578125002
I2
I1
I0
tp167
a(I72
F28508.097578125002
I3
I1
I0
tp168
a(I73
F28908.492207031253
I2
I1
I0
tp169
a(I74
F29307.910263671878
I3
I1
I0
tp170
a(I75
F29708.304892578126
I4
I1
I0
tp171
a(I76
F30107.722949218751
I1
I1
I0
tp172
a(I77
F30107.722949218751
I4
I1
I0
tp173
a(I78
F30508.117578125002
I2
I1
I0
tp174
a(I79
F30908.512207031254
I3
I1
I0
tp175
a(I80
F31307.930263671878
I4
I1
I0
tp176
a(I81
F31708.324892578126
I2
I1
I0
tp177
a(I82
F31708.324892578126
I3
I1
I0
tp178
a(I83
F32107.742949218751
I4
I1
I0
tp179
a(I84
F32908.532207031254
I3
I0
I0
tp180
a(I85
F33307.950263671875
I2
I0
I0
tp181
a(I86
F33708.344892578127
I4
I1
I0
tp182
a(I87
F34107.762949218755
I1
I0
I0
tp183
a(I88
F34508.157578124999
I3
I0
I0
tp184
a(I89
F35307.970263671879
I1
I1
I0
tp185
a(I90
F36107.782949218752
I4
I1
I0
tp186
a(I91
F36508.177578125003
I2
I1
I0
tp187
a(I92
F36908.572207031255
I3
I1
I0
tp188
a(I93
F37307.990263671876
I1
I1
I0
tp189
a(I94
F37708.384892578128
I4
I1
I0
tp190
a(I95
F38508.197578125
I1
I0
I0
tp191
a(I96
F38508.197578125
I3
I0
I0
tp192
a(I97
F39308.01026367188
I1
I1
I0
tp193
a(I98
F39308.01026367188
I4
I1
I0
tp194
a(I99
F40107.822949218753
I2
I1
I0
tp195
a(I100
F40107.822949218753
I3
I1
I0
tp196
a(I101
F40908.612207031256
I2
I0
I0
tp197
a(I102
F40908.612207031256
I4
I0
I0
tp198
a(I103
F41708.424892578128
I1
I0
I0
tp199
a(I104
F41708.424892578128
I4
I0
I0
tp200
a(I105
F42508.237578125001
I2
I1
I0
tp201
a(I106
F42508.237578125001
I3
I1
I0
tp202
a(I107
F43308.050263671881
I2
I0
I0
tp203
a(I108
F43308.050263671881
I4
I0
I0
tp204
a(I109
F44107.862949218754
I1
I1
I0
tp205
a(I110
F44107.862949218754
I3
I1
I0
tp206
aa(lp207
(I0
F125.00125000000001
I1
I0
I0
tp208
a(I1
F507.81757812500001
I3
I0
I0
tp209
a(I2
F708.014892578125
I2
I0
I0
tp210
a(I3
F908.21220703125005
I4
I0
I0
tp211
a(I4
F1307.6302636718751
I1
I0
I0
tp212
a(I5
F1708.0248925781252
I4
I0
I0
tp213
a(I6
F1908.22220703125
I2
I0
I0
tp214
a(I7
F2107.4429492187501
I3
I0
I0
tp215
a(I8
F2307.6402636718753
I1
I0
I0
tp216
a(I9
F2507.8375781250002
I3
I0
I0
tp217
a(I10
F3307.6502636718751
I1
I1
I0
tp218
a(I11
F3708.0448925781252
I4
I1
I0
tp219
a(I12
F3908.2422070312505
I2
I1
I0
tp220
a(I13
F4107.4629492187505
I3
I1
I0
tp221
a(I14
F4507.8575781250001
I1
I1
I0
tp222
a(I15
F4908.2522070312507
I3
I1
I0
tp223
a(I16
F5107.4729492187507
I2
I1
I0
tp224
a(I17
F5307.6702636718755
I4
I1
I0
tp225
a(I18
F5507.8675781250004
I1
I1
I0
tp226
a(I19
F5708.0648925781252
I3
I1
I0
tp227
a(I20
F6507.8775781250006
I1
I0
I0
tp228
a(I21
F6507.8775781250006
I3
I0
I0
tp229
a(I22
F6908.2722070312502
I2
I0
I0
tp230
a(I23
F6908.2722070312502
I4
I0
I0
tp231
a(I24
F7307.6902636718751
I1
I1
I0
tp232
a(I25
F7307.6902636718751
I4
I1
I0
tp233
a(I26
F8107.5029492187505
I2
I1
I0
tp234
a(I27
F8107.5029492187505
I3
I1
I0
tp235
a(I28
F8507.897578125001
I1
I1
I0
tp236
a(I29
F8507.897578125001
I3
I1
I0
tp237
a(I30
F8908.2922070312507
I2
I0
I0
tp238
a(I31
F8908.2922070312507
I4
I0
I0
tp239
a(I32
F9708.1048925781251
I1
I0
I0
tp240
a(I33
F9708.1048925781251
I4
I0
I0
tp241
a(I34
F10107.52294921875
I3
I1
I0
tp242
a(I35
F10307.720263671876
I2
I1
I0
tp243
a(I36
F10507.917578125001
I3
I1
I0
tp244
a(I37
F11307.730263671876
I2
I0
I0
tp245
a(I38
F11307.730263671876
I3
I0
I0
tp246
a(I39
F11708.124892578126
I2
I1
I0
tp247
a(I40
F11908.322207031251
I4
I1
I0
tp248
a(I41
F12107.54294921875
I2
I1
I0
tp249
a(I42
F12908.332207031252
I2
I1
I0
tp250
a(I43
F13291.148535156251
I1
I1
I0
tp251
a(I44
F13491.345849609375
I3
I1
I0
tp252
a(I45
F13691.543164062501
I4
I1
I0
tp253
a(I46
F14090.961220703126
I1
I1
I0
tp254
a(I47
F14090.961220703126
I2
I1
I0
tp255
a(I48
F14491.355849609376
I4
I1
I0
tp256
a(I49
F14891.750478515625
I2
I0
I0
tp257
a(I50
F15090.971220703126
I1
I1
I0
tp258
a(I51
F15291.168535156252
I3
I1
I0
tp259
a(I52
F15691.563164062502
I3
I1
I0
tp260
a(I53
F15691.563164062502
I4
I1
I0
tp261
a(I54
F16090.981220703126
I2
I1
I0
tp262
a(I55
F16491.375849609376
I1
I1
I0
tp263
a(I56
F16691.573164062502
I3
I1
I0
tp264
a(I57
F16891.770478515627
I4
I1
I0
tp265
a(I58
F17291.188535156252
I1
I1
I0
tp266
a(I59
F17291.188535156252
I2
I1
I0
tp267
a(I60
F17691.5831640625
I4
I1
I0
tp268
a(I61
F18091.001220703125
I2
I0
I0
tp269
a(I62
F18291.198535156251
I1
I1
I0
tp270
a(I63
F18491.395849609376
I3
I1
I0
tp271
a(I64
F18891.790478515628
I3
I1
I0
tp272
a(I65
F18891.790478515628
I4
I1
I0
tp273
a(I66
F19291.208535156253
I2
I0
I0
tp274
a(I67
F19708.204892578127
I3
I1
I0
tp275
a(I68
F19908.402207031253
I1
I1
I0
tp276
a(I69
F20107.622949218752
I4
I0
I0
tp277
a(I70
F20508.017578125
I1
I1
I0
tp278
a(I71
F20508.017578125
I4
I1
I0
tp279
a(I72
F20908.412207031251
I2
I1
I0
tp280
a(I73
F21307.830263671876
I3
I0
I0
tp281
a(I74
F21508.027578125002
I1
I1
I0
tp282
a(I75
F21708.224892578128
I4
I1
I0
tp283
a(I76
F22107.642949218753
I2
I1
I0
tp284
a(I77
F22107.642949218753
I3
I1
I0
tp285
a(I78
F22508.037578125
I2
I0
I0
tp286
a(I79
F22908.432207031252
I3
I0
I0
tp287
a(I80
F23107.652949218751
I1
I1
I0
tp288
a(I81
F23307.850263671877
I4
I1
I0
tp289
a(I82
F23708.244892578128
I1
I0
I0
tp290
a(I83
F23708.244892578128
I4
I0
I0
tp291
a(I84
F24107.662949218753
I2
I1
I0
tp292
a(I85
F24107.662949218753
I3
I1
I0
tp293
a(I86
F24508.057578125001
I2
I1
I0
tp294
a(I87
F24508.057578125001
I4
I1
I0
tp295
a(I88
F24908.452207031252
I1
I0
I0
tp296
a(I89
F24908.452207031252
I3
I0
I0
tp297
a(I90
F25708.264892578125
I2
I0
I0
tp298
a(I91
F26107.682949218753
I3
I1
I0
tp299
a(I92
F26307.880263671876
I1
I1
I0
tp300
a(I93
F26508.077578125001
I4
I0
I0
tp301
a(I94
F26908.472207031253
I1
I1
I0
tp302
a(I95
F26908.472207031253
I4
I1
I0
tp303
a(I96
F27307.890263671878
I2
I1
I0
tp304
a(I97
F27708.284892578125
I3
I0
I0
tp305
a(I98
F27908.482207031251
I1
I1
I0
tp306
a(I99
F28107.70294921875
I4
I1
I0
tp307
a(I100
F28508.097578125002
I2
I1
I0
tp308
a(I101
F28508.097578125002
I3
I1
I0
tp309
a(I102
F28908.492207031253
I2
I1
I0
tp310
a(I103
F29307.910263671878
I3
I1
I0
tp311
a(I104
F29508.107578125
I1
I1
I0
tp312
a(I105
F29708.304892578126
I4
I1
I0
tp313
a(I106
F30107.722949218751
I1
I1
I0
tp314
a(I107
F30107.722949218751
I4
I1
I0
tp315
a(I108
F30508.117578125002
I2
I1
I0
tp316
a(I109
F30908.512207031254
I3
I1
I0
tp317
a(I110
F31107.732949218753
I1
I1
I0
tp318
a(I111
F31307.930263671878
I4
I1
I0
tp319
a(I112
F31708.324892578126
I2
I1
I0
tp320
a(I113
F31708.324892578126
I3
I1
I0
tp321
a(I114
F32107.742949218751
I1
I0
I0
tp322
a(I115
F32508.137578125003
I3
I0
I0
tp323
a(I116
F32708.334892578128
I2
I0
I0
tp324
a(I117
F32908.532207031254
I4
I0
I0
tp325
a(I118
F33307.950263671875
I1
I0
I0
tp326
a(I119
F33708.344892578127
I4
I0
I0
tp327
a(I120
F33908.542207031249
I2
I0
I0
tp328
a(I121
F34107.762949218755
I3
I0
I0
tp329
a(I122
F34307.960263671877
I1
I0
I0
tp330
a(I123
F34508.157578124999
I3
I0
I0
tp331
a(I124
F35307.970263671879
I1
I1
I0
tp332
a(I125
F35708.364892578131
I4
I1
I0
tp333
a(I126
F35908.562207031253
I2
I1
I0
tp334
a(I127
F36107.782949218752
I3
I1
I0
tp335
a(I128
F36508.177578125003
I1
I1
I0
tp336
a(I129
F36908.572207031255
I3
I1
I0
tp337
a(I130
F37107.792949218754
I2
I1
I0
tp338
a(I131
F37307.990263671876
I4
I1
I0
tp339
a(I132
F37508.187578125006
I1
I1
I0
tp340
a(I133
F37708.384892578128
I3
I1
I0
tp341
a(I134
F38508.197578125
I1
I0
I0
tp342
a(I135
F38508.197578125
I3
I0
I0
tp343
a(I136
F38908.592207031252
I2
I0
I0
tp344
a(I137
F38908.592207031252
I4
I0
I0
tp345
a(I138
F39308.01026367188
I1
I1
I0
tp346
a(I139
F39308.01026367188
I4
I1
I0
tp347
a(I140
F40107.822949218753
I2
I1
I0
tp348
a(I141
F40107.822949218753
I3
I1
I0
tp349
a(I142
F40508.217578125004
I1
I1
I0
tp350
a(I143
F40508.217578125004
I3
I1
I0
tp351
a(I144
F40908.612207031256
I2
I0
I0
tp352
a(I145
F40908.612207031256
I4
I0
I0
tp353
a(I146
F41708.424892578128
I1
I0
I0
tp354
a(I147
F41708.424892578128
I4
I0
I0
tp355
a(I148
F42107.84294921875
I3
I1
I0
tp356
a(I149
F42308.040263671879
I2
I1
I0
tp357
a(I150
F42508.237578125001
I3
I1
I0
tp358
a(I151
F43308.050263671881
I2
I0
I0
tp359
a(I152
F43308.050263671881
I3
I0
I0
tp360
a(I153
F43708.444892578125
I2
I1
I0
tp361
a(I154
F43908.642207031255
I4
I1
I0
tp362
a(I155
F44107.862949218754
I2
I1
I0
tp363
aa.