(lp1
(lp2
(I0
F205.0145
I3
I0
I0
tp3
a(I1
F1544.992234375
I4
I0
I0
tp4
a(I2
F2024.53237109375
I2
I0
I0
tp5
a(I3
F3465.1061015625
I1
I1
I0
tp6
a(I4
F3944.6462382812501
I3
I1
I0
tp7
a(I5
F5385.2199687499997
I2
I1
I0
tp8
a(I6
F5864.7601054687502
I3
I0
I0
tp9
a(I7
F7305.3338359375002
I1
I0
I0
tp10
a(I8
F7784.8739726562499
I3
I0
I0
tp11
a(I9
F9225.4477031250008
I4
I0
I0
tp12
a(I10
F9705.9645
I2
I0
I0
tp13
a(I11
F11145.5615703125
I1
I1
I0
tp14
a(I12
F11626.0783671875
I3
I1
I0
tp15
a(I13
F13065.6754375
I2
I1
I0
tp16
a(I14
F13546.192234374999
I3
I0
I0
tp17
a(I15
F14985.7893046875
I1
I0
I0
tp18
a(I16
F15466.306101562499
I4
I1
I0
tp19
a(I17
F16426.36303515625
I2
I0
I0
tp20
a(I18
F17386.41996875
I3
I1
I0
tp21
a(I19
F18346.476902343751
I1
I0
I0
tp22
a(I20
F19306.533835937498
I4
I0
I0
tp23
a(I21
F20266.590769531249
I2
I1
I0
tp24
a(I22
F21226.647703125
I3
I0
I0
tp25
a(I23
F22186.70463671875
I1
I1
I0
tp26
a(I24
F23146.761570312501
I2
I1
I0
tp27
a(I25
F24587.335300781251
I1
I1
I0
tp28
a(I26
F25066.875437499999
I3
I1
I0
tp29
a(I27
F25427.263035156251
I4
I0
I0
tp30
a(I28
F26507.449167968749
I2
I1
I0
tp31
a(I29
F26986.9893046875
I3
I1
I0
tp32
a(I30
F27347.376902343749
I1
I0
I0
tp33
a(I31
F28427.56303515625
I3
I1
I0
tp34
a(I32
F28907.103171874998
I2
I1
I0
tp35
a(I33
F29627.878367187499
I4
I1
I0
tp36
a(I34
F30347.676902343748
I2
I1
I0
tp37
a(I35
F30827.2170390625
I3
I1
I0
tp38
a(I36
F31247.18090625
I4
I1
I0
tp39
a(I37
F31847.82690234375
I1
I0
I0
tp40
a(I38
F31847.82690234375
I2
I0
I0
tp41
a(I39
F32807.8838359375
I1
I1
I0
tp42
a(I40
F33168.271433593749
I2
I1
I0
tp43
a(I41
F33767.940769531247
I3
I0
I0
tp44
a(I42
F33767.940769531247
I4
I0
I0
tp45
a(I43
F34727.997703125002
I3
I1
I0
tp46
a(I44
F35088.38530078125
I4
I1
I0
tp47
a(I45
F35688.054636718749
I1
I0
I0
tp48
a(I46
F35688.054636718749
I2
I0
I0
tp49
a(I47
F36648.111570312496
I3
I1
I0
tp50
a(I48
F37608.16850390625
I4
I1
I0
tp51
a(I49
F38568.225437499997
I3
I1
I0
tp52
a(I50
F38928.613035156246
I4
I1
I0
tp53
a(I51
F39528.282371093752
I1
I0
I0
tp54
a(I52
F39528.282371093752
I2
I0
I0
tp55
a(I53
F40488.339304687499
I1
I1
I0
tp56
a(I54
F40848.726902343747
I2
I1
I0
tp57
a(I55
F41448.396238281246
I3
I0
I0
tp58
a(I56
F41448.396238281246
I4
I0
I0
tp59
a(I57
F42408.453171875
I3
I1
I0
tp60
a(I58
F42768.840769531249
I4
I1
I0
tp61
a(I59
F43368.510105468747
I1
I0
I0
tp62
a(I60
F43368.510105468747
I2
I0
I0
tp63
a(I61
F44328.567039062502
I3
I1
I0
tp64
a(I62
F46248.680906249996
I1
I0
I0
tp65
a(I63
F47629.678367187502
I2
I1
I0
tp66
a(I64
F48109.218503906246
I3
I0
I0
tp67
a(I65
F49549.792234374996
I4
I1
I0
tp68
a(I66
F50029.332371093747
I2
I0
I0
tp69
a(I67
F50029.332371093747
I3
I1
I0
tp70
a(I68
F51469.906101562497
I1
I1
I0
tp71
a(I69
F51949.446238281249
I4
I0
I0
tp72
a(I70
F53390.019968749999
I3
I1
I0
tp73
a(I71
F53869.56010546875
I1
I0
I0
tp74
a(I72
F55310.1338359375
I2
I1
I0
tp75
a(I73
F55789.673972656252
I3
I0
I0
tp76
a(I74
F57230.247703125002
I4
I1
I0
tp77
a(I75
F57710.764499999997
I2
I0
I0
tp78
a(I76
F57710.764499999997
I3
I1
I0
tp79
a(I77
F59150.361570312496
I1
I1
I0
tp80
a(I78
F59630.878367187499
I4
I0
I0
tp81
a(I79
F61070.475437499997
I3
I1
I0
tp82
a(I80
F61550.992234375
I3
I0
I0
tp83
a(I81
F62511.049167968747
I2
I0
I0
tp84
a(I82
F63471.106101562502
I4
I0
I0
tp85
a(I83
F64431.163035156249
I1
I0
I0
tp86
a(I84
F65391.219968749996
I3
I1
I0
tp87
a(I85
F66351.276902343743
I2
I1
I0
tp88
a(I86
F67311.333835937505
I4
I1
I0
tp89
a(I87
F68271.390769531252
I1
I1
I0
tp90
a(I88
F68750.930906249996
I2
I1
I0
tp91
a(I89
F69231.447703124999
I3
I0
I0
tp92
a(I90
F70191.504636718746
I2
I0
I0
tp93
a(I91
F71151.561570312493
I4
I0
I0
tp94
a(I92
F72111.618503906255
I1
I0
I0
tp95
a(I93
F73071.675437500002
I3
I1
I0
tp96
a(I94
F74031.732371093749
I2
I1
I0
tp97
a(I95
F74991.789304687496
I4
I1
I0
tp98
a(I96
F75951.846238281243
I1
I1
I0
tp99
a(I97
F76432.363035156246
I2
I1
I0
tp100
a(I98
F76911.903171875005
I3
I0
I0
tp101
a(I99
F76911.903171875005
I4
I0
I0
tp102
a(I100
F77871.960105468752
I3
I1
I0
tp103
a(I101
F78832.017039062499
I1
I0
I0
tp104
a(I102
F78832.017039062499
I2
I0
I0
tp105
a(I103
F79792.073972656246
I2
I1
I0
tp106
a(I104
F80752.130906249993
I2
I0
I0
tp107
a(I105
F81713.164499999999
I1
I1
I0
tp108
a(I106
F82673.221433593746
I3
I0
I0
tp109
a(I107
F83633.278367187493
I1
I1
I0
tp110
a(I108
F83633.278367187493
I2
I1
I0
tp111
a(I109
F84593.335300781255
I3
I0
I0
tp112
a(I110
F84593.335300781255
I4
I0
I0
tp113
a(I111
F85553.392234375002
I3
I1
I0
tp114
a(I112
F86513.449167968749
I1
I0
I0
tp115
a(I113
F86513.449167968749
I2
I0
I0
tp116
a(I114
F87473.506101562496
I2
I1
I0
tp117
a(I115
F88433.563035156243
I2
I0
I0
tp118
a(I116
F89393.619968750005
I1
I1
I0
tp119
a(I117
F90353.676902343752
I3
I0
I0
tp120
a(I118
F91313.733835937499
I1
I1
I0
tp121
a(I119
F91313.733835937499
I2
I1
I0
tp122
a(I120
F92273.790769531246
I3
I0
I0
tp123
a(I121
F92273.790769531246
I4
I0
I0
tp124
a(I122
F93233.847703124993
I3
I1
I0
tp125
a(I123
F94193.904636718755
I1
I0
I0
tp126
a(I124
F94193.904636718755
I2
I0
I0
tp127
a(I125
F95153.961570312502
I2
I1
I0
tp128
a(I126
F96114.018503906249
I2
I0
I0
tp129
a(I127
F97074.075437499996
I1
I1
I0
tp130
a(I128
F98034.132371093743
I3
I0
I0
tp131
a(I129
F98994.189304687505
I1
I1
I0
tp132
a(I130
F98994.189304687505
I2
I1
I0
tp133
a(I131
F99954.246238281252
I3
I0
I0
tp134
a(I132
F99954.246238281252
I4
I0
I0
tp135
a(I133
F100914.303171875
I3
I1
I0
tp136
a(I134
F101874.36010546875
I1
I0
I0
tp137
a(I135
F101874.36010546875
I2
I0
I0
tp138
a(I136
F102834.41703906249
I2
I1
I0
tp139
a(I137
F103794.47397265625
I2
I0
I0
tp140
a(I138
F104754.53090625
I1
I1
I0
tp141
a(I139
F105715.56449999999
I3
I0
I0
tp142
a(I140
F106675.62143359375
I1
I1
I0
tp143
a(I141
F106675.62143359375
I2
I1
I0
tp144
a(I142
F107635.6783671875
I3
I0
I0
tp145
a(I143
F108595.73530078125
I2
I0
I0
tp146
a(I144
F109555.792234375
I4
I0
I0
tp147
a(I145
F110515.84916796874
I1
I0
I0
tp148
a(I146
F111475.9061015625
I3
I1
I0
tp149
a(I147
F112435.96303515625
I2
I1
I0
tp150
a(I148
F113155.7615703125
I1
I1
I0
tp151
a(I149
F113396.01996875
I4
I1
I0
tp152
a(I150
F114356.07690234375
I1
I1
I0
tp153
a(I151
F115316.13383593749
I3
I0
I0
tp154
a(I152
F116276.19076953125
I2
I0
I0
tp155
a(I153
F117236.247703125
I4
I0
I0
tp156
a(I154
F118196.30463671875
I1
I0
I0
tp157
a(I155
F119156.3615703125
I3
I1
I0
tp158
a(I156
F120116.41850390624
I2
I1
I0
tp159
a(I157
F120836.2170390625
I1
I1
I0
tp160
a(I158
F121076.4754375
I4
I1
I0
tp161
a(I159
F122036.53237109375
I1
I1
I0
tp162
a(I160
F122996.5893046875
I3
I0
I0
tp163
a(I161
F123956.64623828125
I2
I0
I0
tp164
a(I162
F124916.70317187499
I4
I0
I0
tp165
a(I163
F125876.76010546875
I1
I0
I0
tp166
a(I164
F126836.8170390625
I3
I1
I0
tp167
a(I165
F127796.87397265625
I2
I1
I0
tp168
a(I166
F128517.64916796875
I1
I1
I0
tp169
a(I167
F128756.93090625
I4
I1
I0
tp170
a(I168
F129717.9645
I1
I1
I0
tp171
a(I169
F130678.02143359375
I3
I0
I0
tp172
a(I170
F131638.0783671875
I2
I0
I0
tp173
a(I171
F132598.13530078126
I4
I0
I0
tp174
a(I172
F133558.19223437499
I1
I0
I0
tp175
a(I173
F134518.24916796875
I3
I1
I0
tp176
a(I174
F135478.30610156248
I2
I1
I0
tp177
a(I175
F136198.10463671875
I1
I1
I0
tp178
a(I176
F136438.36303515625
I4
I1
I0
tp179
a(I177
F137398.41996875001
I1
I1
I0
tp180
a(I178
F138358.47690234374
I3
I0
I0
tp181
aa(lp182
(I0
F205.0145
I3
I0
I0
tp183
a(I1
F584.93530078125002
I2
I1
I0
tp184
a(I2
F1064.4754375
I1
I1
I0
tp185
a(I3
F1544.992234375
I4
I0
I0
tp186
a(I4
F2024.53237109375
I2
I0
I0
tp187
a(I5
F3465.1061015625
I1
I0
I0
tp188
a(I6
F3944.6462382812501
I3
I1
I0
tp189
a(I7
F4425.1630351562499
I2
I0
I0
tp190
a(I8
F4904.7031718749995
I1
I0
I0
tp191
a(I9
F5385.2199687499997
I3
I0
I0
tp192
a(I10
F5864.7601054687502
I4
I1
I0
tp193
a(I11
F7305.3338359375002
I1
I0
I0
tp194
a(I12
F7784.8739726562499
I3
I0
I0
tp195
a(I13
F8265.39076953125
I2
I1
I0
tp196
a(I14
F8744.9309062499997
I1
I1
I0
tp197
a(I15
F9225.4477031250008
I4
I0
I0
tp198
a(I16
F9705.9645
I2
I0
I0
tp199
a(I17
F11145.5615703125
I1
I0
I0
tp200
a(I18
F11626.0783671875
I3
I1
I0
tp201
a(I19
F12105.618503906249
I2
I0
I0
tp202
a(I20
F12586.13530078125
I1
I0
I0
tp203
a(I21
F13065.6754375
I3
I0
I0
tp204
a(I22
F13546.192234374999
I4
I1
I0
tp205
a(I23
F14985.7893046875
I1
I0
I0
tp206
a(I24
F15466.306101562499
I4
I0
I0
tp207
a(I25
F15825.7170390625
I2
I0
I0
tp208
a(I26
F16426.36303515625
I3
I1
I0
tp209
a(I27
F16785.77397265625
I1
I1
I0
tp210
a(I28
F17386.41996875
I4
I1
I0
tp211
a(I29
F17745.830906250001
I2
I1
I0
tp212
a(I30
F18346.476902343751
I3
I0
I0
tp213
a(I31
F18706.8645
I1
I0
I0
tp214
a(I32
F19306.533835937498
I3
I0
I0
tp215
a(I33
F19666.92143359375
I2
I0
I0
tp216
a(I34
F20266.590769531249
I4
I1
I0
tp217
a(I35
F20626.978367187501
I1
I1
I0
tp218
a(I36
F21226.647703125
I3
I1
I0
tp219
a(I37
F21587.035300781248
I2
I1
I0
tp220
a(I38
F22186.70463671875
I4
I0
I0
tp221
a(I39
F22547.092234374999
I1
I0
I0
tp222
a(I40
F23146.761570312501
I2
I1
I0
tp223
a(I41
F23507.14916796875
I3
I1
I0
tp224
a(I42
F23507.14916796875
I4
I1
I0
tp225
a(I43
F24587.335300781251
I1
I1
I0
tp226
a(I44
F25066.875437499999
I3
I1
I0
tp227
a(I45
F25427.263035156251
I1
I1
I0
tp228
a(I46
F25427.263035156251
I2
I1
I0
tp229
a(I47
F26507.449167968749
I2
I1
I0
tp230
a(I48
F26986.9893046875
I1
I1
I0
tp231
a(I49
F27347.376902343749
I3
I0
I0
tp232
a(I50
F27347.376902343749
I4
I0
I0
tp233
a(I51
F28427.56303515625
I3
I1
I0
tp234
a(I52
F28907.103171874998
I2
I1
I0
tp235
a(I53
F29267.49076953125
I1
I1
I0
tp236
a(I54
F29627.878367187499
I4
I1
I0
tp237
a(I55
F29987.2893046875
I3
I1
I0
tp238
a(I56
F30347.676902343748
I2
I1
I0
tp239
a(I57
F30827.2170390625
I3
I1
I0
tp240
a(I58
F31247.18090625
I4
I1
I0
tp241
a(I59
F31847.82690234375
I1
I0
I0
tp242
a(I60
F31847.82690234375
I2
I0
I0
tp243
a(I61
F32327.367039062501
I1
I0
I0
tp244
a(I62
F32327.367039062501
I4
I0
I0
tp245
a(I63
F32807.8838359375
I1
I1
I0
tp246
a(I64
F33168.271433593749
I2
I1
I0
tp247
a(I65
F33767.940769531247
I2
I0
I0
tp248
a(I66
F33767.940769531247
I4
I0
I0
tp249
a(I67
F34247.480906249999
I1
I0
I0
tp250
a(I68
F34247.480906249999
I3
I0
I0
tp251
a(I69
F34727.997703125002
I3
I1
I0
tp252
a(I70
F35088.38530078125
I4
I1
I0
tp253
a(I71
F35688.054636718749
I1
I0
I0
tp254
a(I72
F35688.054636718749
I4
I0
I0
tp255
a(I73
F36168.571433593752
I2
I0
I0
tp256
a(I74
F36168.571433593752
I3
I0
I0
tp257
a(I75
F36648.111570312496
I3
I1
I0
tp258
a(I76
F37128.628367187499
I4
I1
I0
tp259
a(I77
F37608.16850390625
I1
I1
I0
tp260
a(I78
F38088.685300781246
I2
I1
I0
tp261
a(I79
F38568.225437499997
I3
I1
I0
tp262
a(I80
F38928.613035156246
I4
I1
I0
tp263
a(I81
F39528.282371093752
I1
I0
I0
tp264
a(I82
F39528.282371093752
I2
I0
I0
tp265
a(I83
F40008.799167968747
I1
I0
I0
tp266
a(I84
F40008.799167968747
I4
I0
I0
tp267
a(I85
F40488.339304687499
I1
I1
I0
tp268
a(I86
F40848.726902343747
I2
I1
I0
tp269
a(I87
F41448.396238281246
I2
I0
I0
tp270
a(I88
F41448.396238281246
I4
I0
I0
tp271
a(I89
F41928.913035156249
I1
I0
I0
tp272
a(I90
F41928.913035156249
I3
I0
I0
tp273
a(I91
F42408.453171875
I3
I1
I0
tp274
a(I92
F42768.840769531249
I4
I1
I0
tp275
a(I93
F43368.510105468747
I1
I0
I0
tp276
a(I94
F43368.510105468747
I4
I0
I0
tp277
a(I95
F43849.02690234375
I2
I0
I0
tp278
a(I96
F43849.02690234375
I3
I0
I0
tp279
a(I97
F44328.567039062502
I3
I1
I0
tp280
a(I98
F46248.680906249996
I1
I0
I0
tp281
a(I99
F46669.621433593747
I2
I1
I0
tp282
a(I100
F47149.161570312499
I3
I0
I0
tp283
a(I101
F47629.678367187502
I4
I1
I0
tp284
a(I102
F48109.218503906246
I2
I0
I0
tp285
a(I103
F49069.2754375
I1
I1
I0
tp286
a(I104
F49549.792234374996
I2
I0
I0
tp287
a(I105
F50509.84916796875
I4
I0
I0
tp288
a(I106
F50989.389304687502
I3
I1
I0
tp289
a(I107
F51469.906101562497
I2
I0
I0
tp290
a(I108
F51949.446238281249
I3
I0
I0
tp291
a(I109
F53149.761570312497
I4
I1
I0
tp292
a(I110
F53390.019968749999
I3
I0
I0
tp293
a(I111
F53869.56010546875
I1
I0
I0
tp294
a(I112
F54350.076902343746
I2
I1
I0
tp295
a(I113
F54829.617039062497
I3
I0
I0
tp296
a(I114
F55310.1338359375
I4
I1
I0
tp297
a(I115
F55789.673972656252
I2
I0
I0
tp298
a(I116
F56749.730906249999
I1
I1
I0
tp299
a(I117
F57230.247703125002
I2
I0
I0
tp300
a(I118
F58190.304636718749
I4
I0
I0
tp301
a(I119
F58670.821433593752
I3
I1
I0
tp302
a(I120
F59150.361570312496
I2
I0
I0
tp303
a(I121
F59630.878367187499
I3
I0
I0
tp304
a(I122
F60830.217039062496
I4
I1
I0
tp305
a(I123
F61070.475437499997
I3
I0
I0
tp306
a(I124
F61550.992234375
I3
I0
I0
tp307
a(I125
F62030.532371093752
I2
I0
I0
tp308
a(I126
F62511.049167968747
I4
I0
I0
tp309
a(I127
F62990.589304687499
I1
I0
I0
tp310
a(I128
F63471.106101562502
I3
I1
I0
tp311
a(I129
F63950.646238281246
I2
I1
I0
tp312
a(I130
F64431.163035156249
I4
I1
I0
tp313
a(I131
F64910.703171875
I1
I1
I0
tp314
a(I132
F65391.219968749996
I2
I0
I0
tp315
a(I133
F65870.760105468755
I3
I0
I0
tp316
a(I134
F66351.276902343743
I1
I0
I0
tp317
a(I135
F66830.817039062502
I4
I0
I0
tp318
a(I136
F67311.333835937505
I2
I1
I0
tp319
a(I137
F67790.873972656249
I3
I1
I0
tp320
a(I138
F68271.390769531252
I1
I1
I0
tp321
a(I139
F68750.930906249996
I4
I1
I0
tp322
a(I140
F69231.447703124999
I3
I0
I0
tp323
a(I141
F69711.964500000002
I2
I0
I0
tp324
a(I142
F70191.504636718746
I4
I0
I0
tp325
a(I143
F70672.021433593749
I1
I0
I0
tp326
a(I144
F71151.561570312493
I3
I1
I0
tp327
a(I145
F71632.078367187496
I2
I1
I0
tp328
a(I146
F72111.618503906255
I4
I1
I0
tp329
a(I147
F72592.135300781243
I1
I1
I0
tp330
a(I148
F73071.675437500002
I2
I0
I0
tp331
a(I149
F73552.192234375005
I3
I0
I0
tp332
a(I150
F74031.732371093749
I1
I0
I0
tp333
a(I151
F74512.249167968752
I4
I0
I0
tp334
a(I152
F74991.789304687496
I2
I1
I0
tp335
a(I153
F75472.306101562499
I3
I1
I0
tp336
a(I154
F75951.846238281243
I1
I1
I0
tp337
a(I155
F76432.363035156246
I4
I1
I0
tp338
a(I156
F76911.903171875005
I3
I0
I0
tp339
a(I157
F76911.903171875005
I4
I0
I0
tp340
a(I158
F77871.960105468752
I1
I0
I0
tp341
a(I159
F77871.960105468752
I4
I0
I0
tp342
a(I160
F78832.017039062499
I2
I0
I0
tp343
a(I161
F78832.017039062499
I4
I0
I0
tp344
a(I162
F79792.073972656246
I1
I1
I0
tp345
a(I163
F79792.073972656246
I3
I1
I0
tp346
a(I164
F80272.590769531249
I3
I1
I0
tp347
a(I165
F80752.130906249993
I2
I0
I0
tp348
a(I166
F81232.647703124996
I1
I1
I0
tp349
a(I167
F81713.164499999999
I2
I1
I0
tp350
a(I168
F82192.704636718743
I4
I1
I0
tp351
a(I169
F82673.221433593746
I3
I0
I0
tp352
a(I170
F83633.278367187493
I1
I1
I0
tp353
a(I171
F83633.278367187493
I2
I1
I0
tp354
a(I172
F84593.335300781255
I3
I0
I0
tp355
a(I173
F84593.335300781255
I4
I0
I0
tp356
a(I174
F85553.392234375002
I1
I0
I0
tp357
a(I175
F85553.392234375002
I4
I0
I0
tp358
a(I176
F86513.449167968749
I2
I0
I0
tp359
a(I177
F86513.449167968749
I4
I0
I0
tp360
a(I178
F87473.506101562496
I1
I1
I0
tp361
a(I179
F87473.506101562496
I3
I1
I0
tp362
a(I180
F87953.046238281255
I3
I1
I0
tp363
a(I181
F88433.563035156243
I2
I0
I0
tp364
a(I182
F88913.103171875002
I1
I1
I0
tp365
a(I183
F89393.619968750005
I2
I1
I0
tp366
a(I184
F89873.160105468749
I4
I1
I0
tp367
a(I185
F90353.676902343752
I3
I0
I0
tp368
a(I186
F91313.733835937499
I1
I1
I0
tp369
a(I187
F91313.733835937499
I2
I1
I0
tp370
a(I188
F92273.790769531246
I3
I0
I0
tp371
a(I189
F92273.790769531246
I4
I0
I0
tp372
a(I190
F93233.847703124993
I1
I0
I0
tp373
a(I191
F93233.847703124993
I4
I0
I0
tp374
a(I192
F94193.904636718755
I2
I0
I0
tp375
a(I193
F94193.904636718755
I4
I0
I0
tp376
a(I194
F95153.961570312502
I1
I1
I0
tp377
a(I195
F95153.961570312502
I3
I1
I0
tp378
a(I196
F95634.478367187505
I3
I1
I0
tp379
a(I197
F96114.018503906249
I2
I0
I0
tp380
a(I198
F96594.535300781252
I1
I1
I0
tp381
a(I199
F97074.075437499996
I2
I1
I0
tp382
a(I200
F97554.592234374999
I4
I1
I0
tp383
a(I201
F98034.132371093743
I3
I0
I0
tp384
a(I202
F98994.189304687505
I1
I1
I0
tp385
a(I203
F98994.189304687505
I2
I1
I0
tp386
a(I204
F99954.246238281252
I3
I0
I0
tp387
a(I205
F99954.246238281252
I4
I0
I0
tp388
a(I206
F100914.303171875
I1
I0
I0
tp389
a(I207
F100914.303171875
I4
I0
I0
tp390
a(I208
F101874.36010546875
I2
I0
I0
tp391
a(I209
F101874.36010546875
I4
I0
I0
tp392
a(I210
F102834.41703906249
I1
I1
I0
tp393
a(I211
F102834.41703906249
I3
I1
I0
tp394
a(I212
F103314.9338359375
I3
I1
I0
tp395
a(I213
F103794.47397265625
I2
I0
I0
tp396
a(I214
F104274.99076953124
I1
I1
I0
tp397
a(I215
F104754.53090625
I2
I1
I0
tp398
a(I216
F105235.047703125
I4
I1
I0
tp399
a(I217
F105715.56449999999
I3
I0
I0
tp400
a(I218
F106675.62143359375
I1
I1
I0
tp401
a(I219
F106675.62143359375
I2
I1
I0
tp402
a(I220
F107635.6783671875
I3
I0
I0
tp403
a(I221
F108115.21850390625
I2
I0
I0
tp404
a(I222
F108595.73530078125
I4
I0
I0
tp405
a(I223
F109075.27543749999
I1
I0
I0
tp406
a(I224
F109555.792234375
I3
I1
I0
tp407
a(I225
F110035.33237109375
I2
I1
I0
tp408
a(I226
F110515.84916796874
I4
I1
I0
tp409
a(I227
F110995.3893046875
I1
I1
I0
tp410
a(I228
F111475.9061015625
I2
I0
I0
tp411
a(I229
F111955.44623828125
I3
I0
I0
tp412
a(I230
F112435.96303515625
I1
I0
I0
tp413
a(I231
F113155.7615703125
I3
I0
I0
tp414
a(I232
F113396.01996875
I4
I0
I0
tp415
a(I233
F113755.43090625
I2
I0
I0
tp416
a(I234
F114115.81850390625
I1
I0
I0
tp417
a(I235
F114356.07690234375
I4
I1
I0
tp418
a(I236
F114716.4645
I3
I1
I0
tp419
a(I237
F115075.8754375
I2
I1
I0
tp420
a(I238
F115316.13383593749
I3
I0
I0
tp421
a(I239
F115795.67397265625
I2
I0
I0
tp422
a(I240
F116276.19076953125
I4
I0
I0
tp423
a(I241
F116755.73090625
I1
I0
I0
tp424
a(I242
F117236.247703125
I3
I1
I0
tp425
a(I243
F117716.7645
I2
I1
I0
tp426
a(I244
F118196.30463671875
I4
I1
I0
tp427
a(I245
F118676.82143359375
I1
I1
I0
tp428
a(I246
F119156.3615703125
I2
I0
I0
tp429
a(I247
F119636.8783671875
I3
I0
I0
tp430
a(I248
F120116.41850390624
I1
I0
I0
tp431
a(I249
F120836.2170390625
I3
I0
I0
tp432
a(I250
F121076.4754375
I4
I0
I0
tp433
a(I251
F121436.86303515625
I2
I0
I0
tp434
a(I252
F121796.27397265624
I1
I0
I0
tp435
a(I253
F122036.53237109375
I4
I1
I0
tp436
a(I254
F122396.91996874999
I3
I1
I0
tp437
a(I255
F122756.33090625
I2
I1
I0
tp438
a(I256
F122996.5893046875
I3
I0
I0
tp439
a(I257
F123477.1061015625
I2
I0
I0
tp440
a(I258
F123956.64623828125
I4
I0
I0
tp441
a(I259
F124437.16303515625
I1
I0
I0
tp442
a(I260
F124916.70317187499
I3
I1
I0
tp443
a(I261
F125397.21996875
I2
I1
I0
tp444
a(I262
F125876.76010546875
I4
I1
I0
tp445
a(I263
F126357.27690234374
I1
I1
I0
tp446
a(I264
F126836.8170390625
I2
I0
I0
tp447
a(I265
F127317.3338359375
I3
I0
I0
tp448
a(I266
F127796.87397265625
I1
I0
I0
tp449
a(I267
F128517.64916796875
I3
I0
I0
tp450
a(I268
F128756.93090625
I4
I0
I0
tp451
a(I269
F129117.31850390625
I2
I0
I0
tp452
a(I270
F129477.70610156249
I1
I0
I0
tp453
a(I271
F129717.9645
I4
I1
I0
tp454
a(I272
F130077.3754375
I3
I1
I0
tp455
a(I273
F130437.76303515625
I2
I1
I0
tp456
a(I274
F130678.02143359375
I3
I0
I0
tp457
a(I275
F131157.56157031251
I2
I0
I0
tp458
a(I276
F131638.0783671875
I4
I0
I0
tp459
a(I277
F132117.61850390624
I1
I0
I0
tp460
a(I278
F132598.13530078126
I3
I1
I0
tp461
a(I279
F133077.6754375
I2
I1
I0
tp462
a(I280
F133558.19223437499
I4
I1
I0
tp463
a(I281
F134037.73237109373
I1
I1
I0
tp464
a(I282
F134518.24916796875
I2
I0
I0
tp465
a(I283
F134997.7893046875
I3
I0
I0
tp466
a(I284
F135478.30610156248
I1
I0
I0
tp467
a(I285
F136198.10463671875
I3
I0
I0
tp468
a(I286
F136438.36303515625
I4
I0
I0
tp469
a(I287
F136797.77397265626
I2
I0
I0
tp470
a(I288
F137158.16157031248
I1
I0
I0
tp471
a(I289
F137398.41996875001
I4
I1
I0
tp472
a(I290
F137757.83090624999
I3
I1
I0
tp473
a(I291
F138118.21850390625
I2
I1
I0
tp474
aa(lp475
(I0
F205.0145
I3
I0
I0
tp476
a(I1
F584.93530078125002
I2
I1
I0
tp477
a(I2
F1064.4754375
I1
I1
I0
tp478
a(I3
F1544.992234375
I4
I0
I0
tp479
a(I4
F1784.27397265625
I2
I1
I0
tp480
a(I5
F2024.53237109375
I2
I0
I0
tp481
a(I6
F2024.53237109375
I3
I0
I0
tp482
a(I7
F2984.5893046874999
I3
I1
I0
tp483
a(I8
F3465.1061015625
I1
I0
I0
tp484
a(I9
F3705.3645000000001
I3
I1
I0
tp485
a(I10
F3944.6462382812501
I1
I0
I0
tp486
a(I11
F3944.6462382812501
I4
I0
I0
tp487
a(I12
F4425.1630351562499
I2
I0
I0
tp488
a(I13
F4904.7031718749995
I1
I0
I0
tp489
a(I14
F5385.2199687499997
I3
I0
I0
tp490
a(I15
F5625.4783671875002
I4
I1
I0
tp491
a(I16
F5864.7601054687502
I2
I0
I0
tp492
a(I17
F5864.7601054687502
I4
I0
I0
tp493
a(I18
F7065.0754374999997
I2
I1
I0
tp494
a(I19
F7305.3338359375002
I1
I0
I0
tp495
a(I20
F7545.5922343749999
I2
I0
I0
tp496
a(I21
F7784.8739726562499
I3
I0
I0
tp497
a(I22
F8265.39076953125
I2
I1
I0
tp498
a(I23
F8744.9309062499997
I1
I1
I0
tp499
a(I24
F9225.4477031250008
I4
I0
I0
tp500
a(I25
F9465.7061015625004
I2
I1
I0
tp501
a(I26
F9705.9645
I2
I0
I0
tp502
a(I27
F9705.9645
I3
I0
I0
tp503
a(I28
F10666.021433593751
I3
I1
I0
tp504
a(I29
F11145.5615703125
I1
I0
I0
tp505
a(I30
F11385.81996875
I3
I1
I0
tp506
a(I31
F11626.0783671875
I1
I0
I0
tp507
a(I32
F11626.0783671875
I4
I0
I0
tp508
a(I33
F12105.618503906249
I2
I0
I0
tp509
a(I34
F12586.13530078125
I1
I0
I0
tp510
a(I35
F13065.6754375
I3
I0
I0
tp511
a(I36
F13305.9338359375
I4
I1
I0
tp512
a(I37
F13546.192234374999
I2
I0
I0
tp513
a(I38
F13546.192234374999
I4
I0
I0
tp514
a(I39
F14745.53090625
I2
I1
I0
tp515
a(I40
F14985.7893046875
I1
I0
I0
tp516
a(I41
F15226.047703124999
I2
I0
I0
tp517
a(I42
F15466.306101562499
I4
I0
I0
tp518
a(I43
F15586.43530078125
I1
I1
I0
tp519
a(I44
F15825.7170390625
I2
I0
I0
tp520
a(I45
F16426.36303515625
I3
I1
I0
tp521
a(I46
F16785.77397265625
I1
I1
I0
tp522
a(I47
F17386.41996875
I4
I1
I0
tp523
a(I48
F17506.549167968751
I3
I0
I0
tp524
a(I49
F17745.830906250001
I2
I1
I0
tp525
a(I50
F18346.476902343751
I3
I0
I0
tp526
a(I51
F18706.8645
I1
I0
I0
tp527
a(I52
F19066.2754375
I2
I0
I0
tp528
a(I53
F19306.533835937498
I3
I0
I0
tp529
a(I54
F19426.663035156249
I2
I1
I0
tp530
a(I55
F19666.92143359375
I2
I0
I0
tp531
a(I56
F20266.590769531249
I4
I1
I0
tp532
a(I57
F20626.978367187501
I1
I1
I0
tp533
a(I58
F21226.647703125
I3
I1
I0
tp534
a(I59
F21346.77690234375
I1
I1
I0
tp535
a(I60
F21587.035300781248
I2
I1
I0
tp536
a(I61
F22186.70463671875
I4
I0
I0
tp537
a(I62
F22547.092234374999
I1
I0
I0
tp538
a(I63
F23146.761570312501
I2
I1
I0
tp539
a(I64
F23507.14916796875
I3
I1
I0
tp540
a(I65
F23507.14916796875
I4
I1
I0
tp541
a(I66
F24347.07690234375
I2
I0
I0
tp542
a(I67
F24587.335300781251
I1
I0
I0
tp543
a(I68
F24826.617039062501
I4
I1
I0
tp544
a(I69
F25066.875437499999
I3
I1
I0
tp545
a(I70
F25427.263035156251
I1
I1
I0
tp546
a(I71
F25427.263035156251
I2
I1
I0
tp547
a(I72
F26507.449167968749
I2
I1
I0
tp548
a(I73
F26746.730906249999
I3
I0
I0
tp549
a(I74
F26986.9893046875
I1
I1
I0
tp550
a(I75
F27347.376902343749
I3
I0
I0
tp551
a(I76
F27347.376902343749
I4
I0
I0
tp552
a(I77
F28427.56303515625
I3
I1
I0
tp553
a(I78
F28907.103171874998
I2
I0
I0
tp554
a(I79
F28907.103171874998
I3
I0
I0
tp555
a(I80
F29267.49076953125
I1
I1
I0
tp556
a(I81
F29627.878367187499
I1
I0
I0
tp557
a(I82
F29627.878367187499
I4
I0
I0
tp558
a(I83
F29987.2893046875
I3
I1
I0
tp559
a(I84
F30347.676902343748
I1
I0
I0
tp560
a(I85
F30347.676902343748
I3
I0
I0
tp561
a(I86
F30827.2170390625
I3
I1
I0
tp562
a(I87
F31247.18090625
I4
I1
I0
tp563
a(I88
F31847.82690234375
I1
I0
I0
tp564
a(I89
F31847.82690234375
I2
I0
I0
tp565
a(I90
F32088.085300781251
I3
I1
I0
tp566
a(I91
F32327.367039062501
I4
I1
I0
tp567
a(I92
F32567.625437499999
I3
I1
I0
tp568
a(I93
F32807.8838359375
I1
I1
I0
tp569
a(I94
F33168.271433593749
I2
I1
I0
tp570
a(I95
F33767.940769531247
I3
I0
I0
tp571
a(I96
F33767.940769531247
I4
I0
I0
tp572
a(I97
F34008.199167968749
I1
I0
I0
tp573
a(I98
F34247.480906249999
I2
I0
I0
tp574
a(I99
F34487.7393046875
I1
I0
I0
tp575
a(I100
F34727.997703125002
I3
I1
I0
tp576
a(I101
F35088.38530078125
I4
I1
I0
tp577
a(I102
F35688.054636718749
I1
I0
I0
tp578
a(I103
F35688.054636718749
I2
I0
I0
tp579
a(I104
F35928.31303515625
I3
I0
I0
tp580
a(I105
F36168.571433593752
I4
I0
I0
tp581
a(I106
F36407.853171875002
I3
I0
I0
tp582
a(I107
F36648.111570312496
I3
I1
I0
tp583
a(I108
F37128.628367187499
I4
I1
I0
tp584
a(I109
F37608.16850390625
I1
I0
I0
tp585
a(I110
F37608.16850390625
I4
I0
I0
tp586
a(I111
F38088.685300781246
I2
I1
I0
tp587
a(I112
F38568.225437499997
I3
I1
I0
tp588
a(I113
F38928.613035156246
I4
I1
I0
tp589
a(I114
F39528.282371093752
I1
I0
I0
tp590
a(I115
F39528.282371093752
I2
I0
I0
tp591
a(I116
F39768.540769531246
I3
I1
I0
tp592
a(I117
F40008.799167968747
I4
I1
I0
tp593
a(I118
F40248.080906249997
I3
I1
I0
tp594
a(I119
F40488.339304687499
I1
I1
I0
tp595
a(I120
F40848.726902343747
I2
I1
I0
tp596
a(I121
F41448.396238281246
I3
I0
I0
tp597
a(I122
F41448.396238281246
I4
I0
I0
tp598
a(I123
F41688.654636718747
I1
I0
I0
tp599
a(I124
F41928.913035156249
I2
I0
I0
tp600
a(I125
F42169.17143359375
I1
I0
I0
tp601
a(I126
F42408.453171875
I3
I1
I0
tp602
a(I127
F42768.840769531249
I4
I1
I0
tp603
a(I128
F43368.510105468747
I1
I0
I0
tp604
a(I129
F43368.510105468747
I2
I0
I0
tp605
a(I130
F43608.768503906249
I3
I0
I0
tp606
a(I131
F43849.02690234375
I4
I0
I0
tp607
a(I132
F44089.285300781252
I3
I0
I0
tp608
a(I133
F44328.567039062502
I3
I1
I0
tp609
a(I134
F46248.680906249996
I2
I1
I0
tp610
a(I135
F46669.621433593747
I4
I1
I0
tp611
a(I136
F47149.161570312499
I1
I1
I0
tp612
a(I137
F47629.678367187502
I2
I0
I0
tp613
a(I138
F47868.960105468752
I3
I1
I0
tp614
a(I139
F48109.218503906246
I1
I0
I0
tp615
a(I140
F48109.218503906246
I3
I0
I0
tp616
a(I141
F49069.2754375
I2
I1
I0
tp617
a(I142
F49549.792234374996
I3
I1
I0
tp618
a(I143
F49789.073972656246
I4
I1
I0
tp619
a(I144
F50029.332371093747
I2
I0
I0
tp620
a(I145
F50029.332371093747
I4
I0
I0
tp621
a(I146
F50509.84916796875
I4
I1
I0
tp622
a(I147
F50989.389304687502
I3
I1
I0
tp623
a(I148
F51469.906101562497
I1
I0
I0
tp624
a(I149
F51710.164499999999
I2
I0
I0
tp625
a(I150
F51949.446238281249
I2
I0
I0
tp626
a(I151
F51949.446238281249
I3
I0
I0
tp627
a(I152
F53149.761570312497
I3
I0
I0
tp628
a(I153
F53390.019968749999
I2
I0
I0
tp629
a(I154
F53630.2783671875
I3
I1
I0
tp630
a(I155
F53869.56010546875
I2
I1
I0
tp631
a(I156
F54350.076902343746
I4
I1
I0
tp632
a(I157
F54829.617039062497
I1
I1
I0
tp633
a(I158
F55310.1338359375
I2
I0
I0
tp634
a(I159
F55550.392234375002
I3
I1
I0
tp635
a(I160
F55789.673972656252
I1
I0
I0
tp636
a(I161
F55789.673972656252
I3
I0
I0
tp637
a(I162
F56749.730906249999
I2
I1
I0
tp638
a(I163
F57230.247703125002
I3
I1
I0
tp639
a(I164
F57470.506101562496
I4
I1
I0
tp640
a(I165
F57710.764499999997
I2
I0
I0
tp641
a(I166
F57710.764499999997
I4
I0
I0
tp642
a(I167
F58190.304636718749
I4
I1
I0
tp643
a(I168
F58670.821433593752
I3
I1
I0
tp644
a(I169
F59150.361570312496
I1
I0
I0
tp645
a(I170
F59390.619968749997
I2
I0
I0
tp646
a(I171
F59630.878367187499
I2
I0
I0
tp647
a(I172
F59630.878367187499
I3
I0
I0
tp648
a(I173
F60830.217039062496
I3
I0
I0
tp649
a(I174
F61070.475437499997
I2
I0
I0
tp650
a(I175
F61310.733835937499
I3
I1
I0
tp651
a(I176
F61550.992234375
I3
I0
I0
tp652
a(I177
F62030.532371093752
I2
I0
I0
tp653
a(I178
F62511.049167968747
I4
I0
I0
tp654
a(I179
F62750.330906249997
I1
I0
I0
tp655
a(I180
F62990.589304687499
I3
I1
I0
tp656
a(I181
F63230.847703125
I2
I1
I0
tp657
a(I182
F63471.106101562502
I4
I1
I0
tp658
a(I183
F63950.646238281246
I1
I1
I0
tp659
a(I184
F64431.163035156249
I3
I0
I0
tp660
a(I185
F64671.42143359375
I2
I0
I0
tp661
a(I186
F64910.703171875
I4
I0
I0
tp662
a(I187
F65150.961570312502
I1
I0
I0
tp663
a(I188
F65391.219968749996
I3
I1
I0
tp664
a(I189
F65870.760105468755
I2
I1
I0
tp665
a(I190
F66351.276902343743
I4
I1
I0
tp666
a(I191
F66591.535300781252
I1
I1
I0
tp667
a(I192
F66830.817039062502
I3
I0
I0
tp668
a(I193
F67071.075437499996
I2
I0
I0
tp669
a(I194
F67311.333835937505
I4
I0
I0
tp670
a(I195
F67790.873972656249
I1
I0
I0
tp671
a(I196
F68271.390769531252
I3
I1
I0
tp672
a(I197
F68511.649167968746
I2
I1
I0
tp673
a(I198
F68750.930906249996
I4
I1
I0
tp674
a(I199
F68991.189304687505
I1
I1
I0
tp675
a(I200
F69231.447703124999
I1
I0
I0
tp676
a(I201
F69711.964500000002
I4
I0
I0
tp677
a(I202
F70191.504636718746
I2
I0
I0
tp678
a(I203
F70431.763035156255
I3
I0
I0
tp679
a(I204
F70672.021433593749
I1
I1
I0
tp680
a(I205
F70911.303171874999
I4
I1
I0
tp681
a(I206
F71151.561570312493
I2
I1
I0
tp682
a(I207
F71632.078367187496
I3
I1
I0
tp683
a(I208
F72111.618503906255
I1
I0
I0
tp684
a(I209
F72351.876902343749
I4
I0
I0
tp685
a(I210
F72592.135300781243
I2
I0
I0
tp686
a(I211
F72831.417039062493
I3
I0
I0
tp687
a(I212
F73071.675437500002
I1
I1
I0
tp688
a(I213
F73552.192234375005
I4
I1
I0
tp689
a(I214
F74031.732371093749
I2
I1
I0
tp690
a(I215
F74271.990769531243
I3
I1
I0
tp691
a(I216
F74512.249167968752
I1
I0
I0
tp692
a(I217
F74751.530906250002
I4
I0
I0
tp693
a(I218
F74991.789304687496
I1
I0
I0
tp694
a(I219
F75472.306101562499
I4
I0
I0
tp695
a(I220
F75951.846238281243
I2
I1
I0
tp696
a(I221
F76192.104636718752
I3
I1
I0
tp697
a(I222
F76432.363035156246
I1
I1
I0
tp698
a(I223
F76672.621433593755
I4
I1
I0
tp699
a(I224
F76911.903171875005
I3
I0
I0
tp700
a(I225
F76911.903171875005
I4
I0
I0
tp701
a(I226
F77871.960105468752
I1
I0
I0
tp702
a(I227
F77871.960105468752
I4
I0
I0
tp703
a(I228
F78832.017039062499
I2
I0
I0
tp704
a(I229
F78832.017039062499
I4
I0
I0
tp705
a(I230
F79792.073972656246
I1
I1
I0
tp706
a(I231
F79792.073972656246
I3
I1
I0
tp707
a(I232
F80272.590769531249
I3
I1
I0
tp708
a(I233
F80752.130906249993
I2
I0
I0
tp709
a(I234
F80752.130906249993
I3
I0
I0
tp710
a(I235
F81232.647703124996
I1
I1
I0
tp711
a(I236
F81713.164499999999
I2
I1
I0
tp712
a(I237
F82192.704636718743
I4
I1
I0
tp713
a(I238
F82673.221433593746
I2
I0
I0
tp714
a(I239
F82673.221433593746
I4
I0
I0
tp715
a(I240
F83633.278367187493
I1
I1
I0
tp716
a(I241
F83633.278367187493
I2
I1
I0
tp717
a(I242
F84593.335300781255
I3
I0
I0
tp718
a(I243
F84593.335300781255
I4
I0
I0
tp719
a(I244
F85553.392234375002
I1
I0
I0
tp720
a(I245
F85553.392234375002
I4
I0
I0
tp721
a(I246
F86513.449167968749
I2
I0
I0
tp722
a(I247
F86513.449167968749
I4
I0
I0
tp723
a(I248
F87473.506101562496
I1
I1
I0
tp724
a(I249
F87473.506101562496
I3
I1
I0
tp725
a(I250
F87953.046238281255
I3
I1
I0
tp726
a(I251
F88433.563035156243
I2
I0
I0
tp727
a(I252
F88433.563035156243
I3
I0
I0
tp728
a(I253
F88913.103171875002
I1
I1
I0
tp729
a(I254
F89393.619968750005
I2
I1
I0
tp730
a(I255
F89873.160105468749
I4
I1
I0
tp731
a(I256
F90353.676902343752
I2
I0
I0
tp732
a(I257
F90353.676902343752
I4
I0
I0
tp733
a(I258
F91313.733835937499
I1
I1
I0
tp734
a(I259
F91313.733835937499
I2
I1
I0
tp735
a(I260
F92273.790769531246
I3
I0
I0
tp736
a(I261
F92273.790769531246
I4
I0
I0
tp737
a(I262
F93233.847703124993
I1
I0
I0
tp738
a(I263
F93233.847703124993
I4
I0
I0
tp739
a(I264
F94193.904636718755
I2
I0
I0
tp740
a(I265
F94193.904636718755
I4
I0
I0
tp741
a(I266
F95153.961570312502
I1
I1
I0
tp742
a(I267
F95153.961570312502
I3
I1
I0
tp743
a(I268
F95634.478367187505
I3
I1
I0
tp744
a(I269
F96114.018503906249
I2
I0
I0
tp745
a(I270
F96114.018503906249
I3
I0
I0
tp746
a(I271
F96594.535300781252
I1
I1
I0
tp747
a(I272
F97074.075437499996
I2
I1
I0
tp748
a(I273
F97554.592234374999
I4
I1
I0
tp749
a(I274
F98034.132371093743
I2
I0
I0
tp750
a(I275
F98034.132371093743
I4
I0
I0
tp751
a(I276
F98994.189304687505
I1
I1
I0
tp752
a(I277
F98994.189304687505
I2
I1
I0
tp753
a(I278
F99954.246238281252
I3
I0
I0
tp754
a(I279
F99954.246238281252
I4
I0
I0
tp755
a(I280
F100914.303171875
I1
I0
I0
tp756
a(I281
F100914.303171875
I4
I0
I0
tp757
a(I282
F101874.36010546875
I2
I0
I0
tp758
a(I283
F101874.36010546875
I4
I0
I0
tp759
a(I284
F102834.41703906249
I1
I1
I0
tp760
a(I285
F102834.41703906249
I3
I1
I0
tp761
a(I286
F103314.9338359375
I3
I1
I0
tp762
a(I287
F103794.47397265625
I2
I0
I0
tp763
a(I288
F103794.47397265625
I3
I0
I0
tp764
a(I289
F104274.99076953124
I1
I1
I0
tp765
a(I290
F104754.53090625
I2
I1
I0
tp766
a(I291
F105235.047703125
I4
I1
I0
tp767
a(I292
F105715.56449999999
I2
I0
I0
tp768
a(I293
F105715.56449999999
I4
I0
I0
tp769
a(I294
F106675.62143359375
I1
I1
I0
tp770
a(I295
F106675.62143359375
I2
I1
I0
tp771
a(I296
F107635.6783671875
I1
I0
I0
tp772
a(I297
F108115.21850390625
I4
I0
I0
tp773
a(I298
F108595.73530078125
I2
I0
I0
tp774
a(I299
F108835.0170390625
I3
I0
I0
tp775
a(I300
F109075.27543749999
I1
I1
I0
tp776
a(I301
F109315.5338359375
I4
I1
I0
tp777
a(I302
F109555.792234375
I2
I1
I0
tp778
a(I303
F110035.33237109375
I3
I1
I0
tp779
a(I304
F110515.84916796874
I1
I0
I0
tp780
a(I305
F110755.13090624999
I4
I0
I0
tp781
a(I306
F110995.3893046875
I2
I0
I0
tp782
a(I307
F111235.647703125
I3
I0
I0
tp783
a(I308
F111475.9061015625
I1
I1
I0
tp784
a(I309
F111955.44623828125
I4
I1
I0
tp785
a(I310
F112435.96303515625
I2
I1
I0
tp786
a(I311
F113155.7615703125
I3
I0
I0
tp787
a(I312
F113396.01996875
I4
I0
I0
tp788
a(I313
F113755.43090625
I2
I0
I0
tp789
a(I314
F114115.81850390625
I1
I0
I0
tp790
a(I315
F114356.07690234375
I4
I1
I0
tp791
a(I316
F114716.4645
I3
I1
I0
tp792
a(I317
F115075.8754375
I2
I1
I0
tp793
a(I318
F115316.13383593749
I1
I0
I0
tp794
a(I319
F115795.67397265625
I4
I0
I0
tp795
a(I320
F116276.19076953125
I2
I0
I0
tp796
a(I321
F116516.44916796875
I3
I0
I0
tp797
a(I322
F116755.73090625
I1
I1
I0
tp798
a(I323
F116995.98930468749
I4
I1
I0
tp799
a(I324
F117236.247703125
I2
I1
I0
tp800
a(I325
F117716.7645
I3
I1
I0
tp801
a(I326
F118196.30463671875
I1
I0
I0
tp802
a(I327
F118436.56303515624
I4
I0
I0
tp803
a(I328
F118676.82143359375
I2
I0
I0
tp804
a(I329
F118916.103171875
I3
I0
I0
tp805
a(I330
F119156.3615703125
I1
I1
I0
tp806
a(I331
F119636.8783671875
I4
I1
I0
tp807
a(I332
F120116.41850390624
I2
I1
I0
tp808
a(I333
F120836.2170390625
I3
I0
I0
tp809
a(I334
F121076.4754375
I4
I0
I0
tp810
a(I335
F121436.86303515625
I2
I0
I0
tp811
a(I336
F121796.27397265624
I1
I0
I0
tp812
a(I337
F122036.53237109375
I4
I1
I0
tp813
a(I338
F122396.91996874999
I3
I1
I0
tp814
a(I339
F122756.33090625
I2
I1
I0
tp815
a(I340
F122996.5893046875
I1
I0
I0
tp816
a(I341
F123477.1061015625
I4
I0
I0
tp817
a(I342
F123956.64623828125
I2
I0
I0
tp818
a(I343
F124196.90463671875
I3
I0
I0
tp819
a(I344
F124437.16303515625
I1
I1
I0
tp820
a(I345
F124677.42143359374
I4
I1
I0
tp821
a(I346
F124916.70317187499
I2
I1
I0
tp822
a(I347
F125397.21996875
I3
I1
I0
tp823
a(I348
F125876.76010546875
I1
I0
I0
tp824
a(I349
F126117.01850390625
I4
I0
I0
tp825
a(I350
F126357.27690234374
I2
I0
I0
tp826
a(I351
F126597.53530078125
I3
I0
I0
tp827
a(I352
F126836.8170390625
I1
I1
I0
tp828
a(I353
F127317.3338359375
I4
I1
I0
tp829
a(I354
F127796.87397265625
I2
I1
I0
tp830
a(I355
F128517.64916796875
I3
I0
I0
tp831
a(I356
F128756.93090625
I4
I0
I0
tp832
a(I357
F129117.31850390625
I2
I0
I0
tp833
a(I358
F129477.70610156249
I1
I0
I0
tp834
a(I359
F129717.9645
I4
I1
I0
tp835
a(I360
F130077.3754375
I3
I1
I0
tp836
a(I361
F130437.76303515625
I2
I1
I0
tp837
a(I362
F130678.02143359375
I1
I0
I0
tp838
a(I363
F131157.56157031251
I4
I0
I0
tp839
a(I364
F131638.0783671875
I2
I0
I0
tp840
a(I365
F131877.36010546875
I3
I0
I0
tp841
a(I366
F132117.61850390624
I1
I1
I0
tp842
a(I367
F132357.87690234373
I4
I1
I0
tp843
a(I368
F132598.13530078126
I2
I1
I0
tp844
a(I369
F133077.6754375
I3
I1
I0
tp845
a(I370
F133558.19223437499
I1
I0
I0
tp846
a(I371
F133797.47397265624
I4
I0
I0
tp847
a(I372
F134037.73237109373
I2
I0
I0
tp848
a(I373
F134277.99076953126
I3
I0
I0
tp849
a(I374
F134518.24916796875
I1
I1
I0
tp850
a(I375
F134997.7893046875
I4
I1
I0
tp851
a(I376
F135478.30610156248
I2
I1
I0
tp852
a(I377
F136198.10463671875
I3
I0
I0
tp853
a(I378
F136438.36303515625
I4
I0
I0
tp854
a(I379
F136797.77397265626
I2
I0
I0
tp855
a(I380
F137158.16157031248
I1
I0
I0
tp856
a(I381
F137398.41996875001
I4
I1
I0
tp857
a(I382
F137757.83090624999
I3
I1
I0
tp858
a(I383
F138118.21850390625
I2
I1
I0
tp859
a(I384
F138358.47690234374
I3
I0
I0
tp860
a(I385
F138838.01703906248
I2
I1
I0
tp861
aa.