(lp1
(lp2
(I0
F134.86500000000001
I3
I0
I0
tp3
a(I1
F1473.36890625
I4
I0
I0
tp4
a(I2
F1952.3816015625
I2
I0
I0
tp5
a(I3
F3391.3708593749998
I1
I1
I0
tp6
a(I4
F3870.3835546874998
I3
I1
I0
tp7
a(I5
F5309.3728124999998
I2
I1
I0
tp8
a(I6
F5788.3855078124998
I3
I0
I0
tp9
a(I7
F7227.3747656249998
I1
I0
I0
tp10
a(I8
F7706.3874609374998
I3
I0
I0
tp11
a(I9
F9145.3767187499998
I4
I0
I0
tp12
a(I10
F9625.3649999999998
I2
I0
I0
tp13
a(I11
F11063.378671875
I1
I1
I0
tp14
a(I12
F11543.366953125
I3
I1
I0
tp15
a(I13
F12981.380625
I2
I1
I0
tp16
a(I14
F13461.36890625
I3
I0
I0
tp17
a(I15
F14899.382578125
I1
I0
I0
tp18
a(I16
F15379.370859375
I4
I1
I0
tp19
a(I17
F16338.3718359375
I2
I0
I0
tp20
a(I18
F17297.372812500002
I3
I1
I0
tp21
a(I19
F18256.373789062502
I1
I0
I0
tp22
a(I20
F19215.374765625002
I4
I0
I0
tp23
a(I21
F20174.375742187502
I2
I1
I0
tp24
a(I22
F21133.376718750002
I3
I0
I0
tp25
a(I23
F22092.377695312502
I1
I1
I0
tp26
a(I24
F23051.378671875002
I2
I1
I0
tp27
a(I25
F24490.367929687502
I1
I1
I0
tp28
a(I26
F24969.380625000002
I3
I1
I0
tp29
a(I27
F25329.371835937502
I4
I0
I0
tp30
a(I28
F26408.369882812502
I2
I1
I0
tp31
a(I29
F26887.382578125002
I3
I1
I0
tp32
a(I30
F27247.373789062502
I1
I0
I0
tp33
a(I31
F28326.371835937502
I3
I1
I0
tp34
a(I32
F28805.384531250002
I2
I1
I0
tp35
a(I33
F29525.366953125002
I4
I1
I0
tp36
a(I34
F30244.373789062502
I2
I1
I0
tp37
a(I35
F30723.386484375002
I3
I1
I0
tp38
a(I36
F31142.888437500002
I4
I1
I0
tp39
a(I37
F31742.873789062502
I1
I0
I0
tp40
a(I38
F31742.873789062502
I2
I0
I0
tp41
a(I39
F32701.874765625002
I1
I1
I0
tp42
a(I40
F33061.865976562498
I2
I1
I0
tp43
a(I41
F33660.875742187498
I3
I0
I0
tp44
a(I42
F33660.875742187498
I4
I0
I0
tp45
a(I43
F34619.876718749998
I3
I1
I0
tp46
a(I44
F34979.867929687498
I4
I1
I0
tp47
a(I45
F35578.877695312498
I1
I0
I0
tp48
a(I46
F35578.877695312498
I2
I0
I0
tp49
a(I47
F36537.878671874998
I3
I1
I0
tp50
a(I48
F37496.879648437498
I4
I1
I0
tp51
a(I49
F38455.880624999998
I3
I1
I0
tp52
a(I50
F38815.871835937498
I4
I1
I0
tp53
a(I51
F39414.881601562498
I1
I0
I0
tp54
a(I52
F39414.881601562498
I2
I0
I0
tp55
a(I53
F40373.882578124998
I1
I1
I0
tp56
a(I54
F40733.873789062498
I2
I1
I0
tp57
a(I55
F41332.883554687498
I3
I0
I0
tp58
a(I56
F41332.883554687498
I4
I0
I0
tp59
a(I57
F42291.884531249998
I3
I1
I0
tp60
a(I58
F42651.875742187498
I4
I1
I0
tp61
a(I59
F43250.885507812498
I1
I0
I0
tp62
a(I60
F43250.885507812498
I2
I0
I0
tp63
a(I61
F44209.886484374998
I3
I1
I0
tp64
a(I62
F46127.888437499998
I1
I0
I0
tp65
a(I63
F47507.366953124998
I2
I1
I0
tp66
a(I64
F47986.379648437498
I3
I0
I0
tp67
a(I65
F49425.368906249998
I4
I1
I0
tp68
a(I66
F49904.381601562498
I2
I0
I0
tp69
a(I67
F49904.381601562498
I3
I1
I0
tp70
a(I68
F51343.370859374998
I1
I1
I0
tp71
a(I69
F51822.383554687498
I4
I0
I0
tp72
a(I70
F53261.372812499998
I3
I1
I0
tp73
a(I71
F53740.385507812498
I1
I0
I0
tp74
a(I72
F55179.374765624998
I2
I1
I0
tp75
a(I73
F55658.387460937498
I3
I0
I0
tp76
a(I74
F57097.376718749998
I4
I1
I0
tp77
a(I75
F57577.364999999998
I2
I0
I0
tp78
a(I76
F57577.364999999998
I3
I1
I0
tp79
a(I77
F59015.378671874998
I1
I1
I0
tp80
a(I78
F59495.366953124998
I4
I0
I0
tp81
a(I79
F60933.380624999998
I3
I1
I0
tp82
a(I80
F61413.368906249998
I3
I0
I0
tp83
a(I81
F62372.369882812498
I2
I0
I0
tp84
a(I82
F63331.370859374998
I4
I0
I0
tp85
a(I83
F64290.371835937498
I1
I0
I0
tp86
a(I84
F65249.372812499998
I3
I1
I0
tp87
a(I85
F66208.373789062505
I2
I1
I0
tp88
a(I86
F67167.374765625005
I4
I1
I0
tp89
a(I87
F68126.375742187505
I1
I1
I0
tp90
a(I88
F68605.388437500005
I2
I1
I0
tp91
a(I89
F69085.376718750005
I3
I0
I0
tp92
a(I90
F70044.377695312505
I2
I0
I0
tp93
a(I91
F71003.378671875005
I4
I0
I0
tp94
a(I92
F71962.379648437505
I1
I0
I0
tp95
a(I93
F72921.380625000005
I3
I1
I0
tp96
a(I94
F73880.381601562505
I2
I1
I0
tp97
a(I95
F74839.382578125005
I4
I1
I0
tp98
a(I96
F75798.383554687505
I1
I1
I0
tp99
a(I97
F76278.371835937505
I2
I1
I0
tp100
a(I98
F76757.384531250005
I3
I0
I0
tp101
a(I99
F76757.384531250005
I4
I0
I0
tp102
a(I100
F77716.385507812505
I3
I1
I0
tp103
a(I101
F78675.386484375005
I1
I0
I0
tp104
a(I102
F78675.386484375005
I2
I0
I0
tp105
a(I103
F79634.387460937505
I2
I1
I0
tp106
a(I104
F80593.388437500005
I2
I0
I0
tp107
a(I105
F81553.365000000005
I1
I1
I0
tp108
a(I106
F82512.365976562505
I3
I0
I0
tp109
a(I107
F83471.366953125005
I1
I1
I0
tp110
a(I108
F83471.366953125005
I2
I1
I0
tp111
a(I109
F84430.367929687505
I3
I0
I0
tp112
a(I110
F84430.367929687505
I4
I0
I0
tp113
a(I111
F85389.368906250005
I3
I1
I0
tp114
a(I112
F86348.369882812505
I1
I0
I0
tp115
a(I113
F86348.369882812505
I2
I0
I0
tp116
a(I114
F87307.370859375005
I2
I1
I0
tp117
a(I115
F88266.371835937505
I2
I0
I0
tp118
a(I116
F89225.372812500005
I1
I1
I0
tp119
a(I117
F90184.373789062505
I3
I0
I0
tp120
a(I118
F91143.374765625005
I1
I1
I0
tp121
a(I119
F91143.374765625005
I2
I1
I0
tp122
a(I120
F92102.375742187505
I3
I0
I0
tp123
a(I121
F92102.375742187505
I4
I0
I0
tp124
a(I122
F93061.376718750005
I3
I1
I0
tp125
a(I123
F94020.377695312505
I1
I0
I0
tp126
a(I124
F94020.377695312505
I2
I0
I0
tp127
a(I125
F94979.378671875005
I2
I1
I0
tp128
a(I126
F95938.379648437505
I2
I0
I0
tp129
a(I127
F96897.380625000005
I1
I1
I0
tp130
a(I128
F97856.381601562505
I3
I0
I0
tp131
a(I129
F98815.382578125005
I1
I1
I0
tp132
a(I130
F98815.382578125005
I2
I1
I0
tp133
a(I131
F99774.383554687505
I3
I0
I0
tp134
a(I132
F99774.383554687505
I4
I0
I0
tp135
a(I133
F100733.38453125001
I3
I1
I0
tp136
a(I134
F101692.38550781251
I1
I0
I0
tp137
a(I135
F101692.38550781251
I2
I0
I0
tp138
a(I136
F102651.38648437501
I2
I1
I0
tp139
a(I137
F103610.38746093751
I2
I0
I0
tp140
a(I138
F104569.38843750001
I1
I1
I0
tp141
a(I139
F105529.36500000001
I3
I0
I0
tp142
a(I140
F106488.36597656251
I1
I1
I0
tp143
a(I141
F106488.36597656251
I2
I1
I0
tp144
a(I142
F107447.36695312501
I3
I0
I0
tp145
a(I143
F108406.36792968751
I2
I0
I0
tp146
a(I144
F109365.36890625001
I4
I0
I0
tp147
a(I145
F110324.36988281251
I1
I0
I0
tp148
a(I146
F111283.37085937501
I3
I1
I0
tp149
a(I147
F112242.37183593751
I2
I1
I0
tp150
a(I148
F112961.37867187501
I1
I1
I0
tp151
a(I149
F113201.37281250001
I4
I1
I0
tp152
a(I150
F114160.37378906251
I1
I1
I0
tp153
a(I151
F115119.37476562501
I3
I0
I0
tp154
a(I152
F116078.37574218751
I2
I0
I0
tp155
a(I153
F117037.37671875001
I4
I0
I0
tp156
a(I154
F117996.37769531251
I1
I0
I0
tp157
a(I155
F118955.37867187501
I3
I1
I0
tp158
a(I156
F119914.37964843751
I2
I1
I0
tp159
a(I157
F120633.38648437501
I1
I1
I0
tp160
a(I158
F120873.38062500001
I4
I1
I0
tp161
a(I159
F121832.38160156251
I1
I1
I0
tp162
a(I160
F122791.38257812501
I3
I0
I0
tp163
a(I161
F123750.38355468751
I2
I0
I0
tp164
a(I162
F124709.38453125001
I4
I0
I0
tp165
a(I163
F125668.38550781251
I1
I0
I0
tp166
a(I164
F126627.38648437501
I3
I1
I0
tp167
a(I165
F127586.38746093751
I2
I1
I0
tp168
a(I166
F128306.36988281251
I1
I1
I0
tp169
a(I167
F128545.38843750001
I4
I1
I0
tp170
a(I168
F129505.36500000001
I1
I1
I0
tp171
a(I169
F130464.36597656251
I3
I0
I0
tp172
a(I170
F131423.36695312499
I2
I0
I0
tp173
a(I171
F132382.36792968749
I4
I0
I0
tp174
a(I172
F133341.36890624999
I1
I0
I0
tp175
a(I173
F134300.36988281249
I3
I1
I0
tp176
a(I174
F135259.37085937499
I2
I1
I0
tp177
a(I175
F135978.37769531249
I1
I1
I0
tp178
a(I176
F136218.37183593749
I4
I1
I0
tp179
a(I177
F137177.37281249999
I1
I1
I0
tp180
a(I178
F138136.37378906249
I3
I0
I0
tp181
aa(lp182
(I0
F134.86500000000001
I3
I0
I0
tp183
a(I1
F514.36792968750001
I2
I1
I0
tp184
a(I2
F993.38062500000001
I1
I1
I0
tp185
a(I3
F1473.36890625
I4
I0
I0
tp186
a(I4
F1952.3816015625
I2
I0
I0
tp187
a(I5
F3391.3708593749998
I1
I0
I0
tp188
a(I6
F3870.3835546874998
I3
I1
I0
tp189
a(I7
F4350.3718359374998
I2
I0
I0
tp190
a(I8
F4829.3845312499998
I1
I0
I0
tp191
a(I9
F5309.3728124999998
I3
I0
I0
tp192
a(I10
F5788.3855078124998
I4
I1
I0
tp193
a(I11
F7227.3747656249998
I1
I0
I0
tp194
a(I12
F7706.3874609374998
I3
I0
I0
tp195
a(I13
F8186.3757421874998
I2
I1
I0
tp196
a(I14
F8665.3884374999998
I1
I1
I0
tp197
a(I15
F9145.3767187499998
I4
I0
I0
tp198
a(I16
F9625.3649999999998
I2
I0
I0
tp199
a(I17
F11063.378671875
I1
I0
I0
tp200
a(I18
F11543.366953125
I3
I1
I0
tp201
a(I19
F12022.3796484375
I2
I0
I0
tp202
a(I20
F12502.3679296875
I1
I0
I0
tp203
a(I21
F12981.380625
I3
I0
I0
tp204
a(I22
F13461.36890625
I4
I1
I0
tp205
a(I23
F14899.382578125
I1
I0
I0
tp206
a(I24
F15379.370859375
I4
I0
I0
tp207
a(I25
F15738.386484375
I2
I0
I0
tp208
a(I26
F16338.3718359375
I3
I1
I0
tp209
a(I27
F16697.387460937502
I1
I1
I0
tp210
a(I28
F17297.372812500002
I4
I1
I0
tp211
a(I29
F17656.388437500002
I2
I1
I0
tp212
a(I30
F18256.373789062502
I3
I0
I0
tp213
a(I31
F18616.365000000002
I1
I0
I0
tp214
a(I32
F19215.374765625002
I3
I0
I0
tp215
a(I33
F19575.365976562502
I2
I0
I0
tp216
a(I34
F20174.375742187502
I4
I1
I0
tp217
a(I35
F20534.366953125002
I1
I1
I0
tp218
a(I36
F21133.376718750002
I3
I1
I0
tp219
a(I37
F21493.367929687502
I2
I1
I0
tp220
a(I38
F22092.377695312502
I4
I0
I0
tp221
a(I39
F22452.368906250002
I1
I0
I0
tp222
a(I40
F23051.378671875002
I2
I1
I0
tp223
a(I41
F23411.369882812502
I3
I1
I0
tp224
a(I42
F23411.369882812502
I4
I1
I0
tp225
a(I43
F24490.367929687502
I1
I1
I0
tp226
a(I44
F24969.380625000002
I3
I1
I0
tp227
a(I45
F25329.371835937502
I1
I1
I0
tp228
a(I46
F25329.371835937502
I2
I1
I0
tp229
a(I47
F26408.369882812502
I2
I1
I0
tp230
a(I48
F26887.382578125002
I1
I1
I0
tp231
a(I49
F27247.373789062502
I3
I0
I0
tp232
a(I50
F27247.373789062502
I4
I0
I0
tp233
a(I51
F28326.371835937502
I3
I1
I0
tp234
a(I52
F28805.384531250002
I2
I1
I0
tp235
a(I53
F29165.375742187502
I1
I1
I0
tp236
a(I54
F29525.366953125002
I4
I1
I0
tp237
a(I55
F29884.382578125002
I3
I1
I0
tp238
a(I56
F30244.373789062502
I2
I1
I0
tp239
a(I57
F30723.386484375002
I3
I1
I0
tp240
a(I58
F31142.888437500002
I4
I1
I0
tp241
a(I59
F31742.873789062502
I1
I0
I0
tp242
a(I60
F31742.873789062502
I2
I0
I0
tp243
a(I61
F32221.886484375002
I1
I0
I0
tp244
a(I62
F32221.886484375002
I4
I0
I0
tp245
a(I63
F32701.874765625002
I1
I1
I0
tp246
a(I64
F33061.865976562498
I2
I1
I0
tp247
a(I65
F33660.875742187498
I2
I0
I0
tp248
a(I66
F33660.875742187498
I4
I0
I0
tp249
a(I67
F34139.888437499998
I1
I0
I0
tp250
a(I68
F34139.888437499998
I3
I0
I0
tp251
a(I69
F34619.876718749998
I3
I1
I0
tp252
a(I70
F34979.867929687498
I4
I1
I0
tp253
a(I71
F35578.877695312498
I1
I0
I0
tp254
a(I72
F35578.877695312498
I4
I0
I0
tp255
a(I73
F36058.865976562498
I2
I0
I0
tp256
a(I74
F36058.865976562498
I3
I0
I0
tp257
a(I75
F36537.878671874998
I3
I1
I0
tp258
a(I76
F37017.866953124998
I4
I1
I0
tp259
a(I77
F37496.879648437498
I1
I1
I0
tp260
a(I78
F37976.867929687498
I2
I1
I0
tp261
a(I79
F38455.880624999998
I3
I1
I0
tp262
a(I80
F38815.871835937498
I4
I1
I0
tp263
a(I81
F39414.881601562498
I1
I0
I0
tp264
a(I82
F39414.881601562498
I2
I0
I0
tp265
a(I83
F39894.869882812498
I1
I0
I0
tp266
a(I84
F39894.869882812498
I4
I0
I0
tp267
a(I85
F40373.882578124998
I1
I1
I0
tp268
a(I86
F40733.873789062498
I2
I1
I0
tp269
a(I87
F41332.883554687498
I2
I0
I0
tp270
a(I88
F41332.883554687498
I4
I0
I0
tp271
a(I89
F41812.871835937498
I1
I0
I0
tp272
a(I90
F41812.871835937498
I3
I0
I0
tp273
a(I91
F42291.884531249998
I3
I1
I0
tp274
a(I92
F42651.875742187498
I4
I1
I0
tp275
a(I93
F43250.885507812498
I1
I0
I0
tp276
a(I94
F43250.885507812498
I4
I0
I0
tp277
a(I95
F43730.873789062498
I2
I0
I0
tp278
a(I96
F43730.873789062498
I3
I0
I0
tp279
a(I97
F44209.886484374998
I3
I1
I0
tp280
a(I98
F46127.888437499998
I1
I0
I0
tp281
a(I99
F46548.365976562498
I2
I1
I0
tp282
a(I100
F47027.378671874998
I3
I0
I0
tp283
a(I101
F47507.366953124998
I4
I1
I0
tp284
a(I102
F47986.379648437498
I2
I0
I0
tp285
a(I103
F48945.380624999998
I1
I1
I0
tp286
a(I104
F49425.368906249998
I2
I0
I0
tp287
a(I105
F50384.369882812498
I4
I0
I0
tp288
a(I106
F50863.382578124998
I3
I1
I0
tp289
a(I107
F51343.370859374998
I2
I0
I0
tp290
a(I108
F51822.383554687498
I3
I0
I0
tp291
a(I109
F53021.378671874998
I4
I1
I0
tp292
a(I110
F53261.372812499998
I3
I0
I0
tp293
a(I111
F53740.385507812498
I1
I0
I0
tp294
a(I112
F54220.373789062498
I2
I1
I0
tp295
a(I113
F54699.386484374998
I3
I0
I0
tp296
a(I114
F55179.374765624998
I4
I1
I0
tp297
a(I115
F55658.387460937498
I2
I0
I0
tp298
a(I116
F56617.388437499998
I1
I1
I0
tp299
a(I117
F57097.376718749998
I2
I0
I0
tp300
a(I118
F58056.377695312498
I4
I0
I0
tp301
a(I119
F58536.365976562498
I3
I1
I0
tp302
a(I120
F59015.378671874998
I2
I0
I0
tp303
a(I121
F59495.366953124998
I3
I0
I0
tp304
a(I122
F60693.386484374998
I4
I1
I0
tp305
a(I123
F60933.380624999998
I3
I0
I0
tp306
a(I124
F61413.368906249998
I3
I0
I0
tp307
a(I125
F61892.381601562498
I2
I0
I0
tp308
a(I126
F62372.369882812498
I4
I0
I0
tp309
a(I127
F62851.382578124998
I1
I0
I0
tp310
a(I128
F63331.370859374998
I3
I1
I0
tp311
a(I129
F63810.383554687498
I2
I1
I0
tp312
a(I130
F64290.371835937498
I4
I1
I0
tp313
a(I131
F64769.384531249998
I1
I1
I0
tp314
a(I132
F65249.372812499998
I2
I0
I0
tp315
a(I133
F65728.385507812505
I3
I0
I0
tp316
a(I134
F66208.373789062505
I1
I0
I0
tp317
a(I135
F66687.386484375005
I4
I0
I0
tp318
a(I136
F67167.374765625005
I2
I1
I0
tp319
a(I137
F67646.387460937505
I3
I1
I0
tp320
a(I138
F68126.375742187505
I1
I1
I0
tp321
a(I139
F68605.388437500005
I4
I1
I0
tp322
a(I140
F69085.376718750005
I3
I0
I0
tp323
a(I141
F69565.365000000005
I2
I0
I0
tp324
a(I142
F70044.377695312505
I4
I0
I0
tp325
a(I143
F70524.365976562505
I1
I0
I0
tp326
a(I144
F71003.378671875005
I3
I1
I0
tp327
a(I145
F71483.366953125005
I2
I1
I0
tp328
a(I146
F71962.379648437505
I4
I1
I0
tp329
a(I147
F72442.367929687505
I1
I1
I0
tp330
a(I148
F72921.380625000005
I2
I0
I0
tp331
a(I149
F73401.368906250005
I3
I0
I0
tp332
a(I150
F73880.381601562505
I1
I0
I0
tp333
a(I151
F74360.369882812505
I4
I0
I0
tp334
a(I152
F74839.382578125005
I2
I1
I0
tp335
a(I153
F75319.370859375005
I3
I1
I0
tp336
a(I154
F75798.383554687505
I1
I1
I0
tp337
a(I155
F76278.371835937505
I4
I1
I0
tp338
a(I156
F76757.384531250005
I3
I0
I0
tp339
a(I157
F76757.384531250005
I4
I0
I0
tp340
a(I158
F77716.385507812505
I1
I0
I0
tp341
a(I159
F77716.385507812505
I4
I0
I0
tp342
a(I160
F78675.386484375005
I2
I0
I0
tp343
a(I161
F78675.386484375005
I4
I0
I0
tp344
a(I162
F79634.387460937505
I1
I1
I0
tp345
a(I163
F79634.387460937505
I3
I1
I0
tp346
a(I164
F80114.375742187505
I3
I1
I0
tp347
a(I165
F80593.388437500005
I2
I0
I0
tp348
a(I166
F81073.376718750005
I1
I1
I0
tp349
a(I167
F81553.365000000005
I2
I1
I0
tp350
a(I168
F82032.377695312505
I4
I1
I0
tp351
a(I169
F82512.365976562505
I3
I0
I0
tp352
a(I170
F83471.366953125005
I1
I1
I0
tp353
a(I171
F83471.366953125005
I2
I1
I0
tp354
a(I172
F84430.367929687505
I3
I0
I0
tp355
a(I173
F84430.367929687505
I4
I0
I0
tp356
a(I174
F85389.368906250005
I1
I0
I0
tp357
a(I175
F85389.368906250005
I4
I0
I0
tp358
a(I176
F86348.369882812505
I2
I0
I0
tp359
a(I177
F86348.369882812505
I4
I0
I0
tp360
a(I178
F87307.370859375005
I1
I1
I0
tp361
a(I179
F87307.370859375005
I3
I1
I0
tp362
a(I180
F87786.383554687505
I3
I1
I0
tp363
a(I181
F88266.371835937505
I2
I0
I0
tp364
a(I182
F88745.384531250005
I1
I1
I0
tp365
a(I183
F89225.372812500005
I2
I1
I0
tp366
a(I184
F89704.385507812505
I4
I1
I0
tp367
a(I185
F90184.373789062505
I3
I0
I0
tp368
a(I186
F91143.374765625005
I1
I1
I0
tp369
a(I187
F91143.374765625005
I2
I1
I0
tp370
a(I188
F92102.375742187505
I3
I0
I0
tp371
a(I189
F92102.375742187505
I4
I0
I0
tp372
a(I190
F93061.376718750005
I1
I0
I0
tp373
a(I191
F93061.376718750005
I4
I0
I0
tp374
a(I192
F94020.377695312505
I2
I0
I0
tp375
a(I193
F94020.377695312505
I4
I0
I0
tp376
a(I194
F94979.378671875005
I1
I1
I0
tp377
a(I195
F94979.378671875005
I3
I1
I0
tp378
a(I196
F95459.366953125005
I3
I1
I0
tp379
a(I197
F95938.379648437505
I2
I0
I0
tp380
a(I198
F96418.367929687505
I1
I1
I0
tp381
a(I199
F96897.380625000005
I2
I1
I0
tp382
a(I200
F97377.368906250005
I4
I1
I0
tp383
a(I201
F97856.381601562505
I3
I0
I0
tp384
a(I202
F98815.382578125005
I1
I1
I0
tp385
a(I203
F98815.382578125005
I2
I1
I0
tp386
a(I204
F99774.383554687505
I3
I0
I0
tp387
a(I205
F99774.383554687505
I4
I0
I0
tp388
a(I206
F100733.38453125001
I1
I0
I0
tp389
a(I207
F100733.38453125001
I4
I0
I0
tp390
a(I208
F101692.38550781251
I2
I0
I0
tp391
a(I209
F101692.38550781251
I4
I0
I0
tp392
a(I210
F102651.38648437501
I1
I1
I0
tp393
a(I211
F102651.38648437501
I3
I1
I0
tp394
a(I212
F103131.37476562501
I3
I1
I0
tp395
a(I213
F103610.38746093751
I2
I0
I0
tp396
a(I214
F104090.37574218751
I1
I1
I0
tp397
a(I215
F104569.38843750001
I2
I1
I0
tp398
a(I216
F105049.37671875001
I4
I1
I0
tp399
a(I217
F105529.36500000001
I3
I0
I0
tp400
a(I218
F106488.36597656251
I1
I1
I0
tp401
a(I219
F106488.36597656251
I2
I1
I0
tp402
a(I220
F107447.36695312501
I3
I0
I0
tp403
a(I221
F107926.37964843751
I2
I0
I0
tp404
a(I222
F108406.36792968751
I4
I0
I0
tp405
a(I223
F108885.38062500001
I1
I0
I0
tp406
a(I224
F109365.36890625001
I3
I1
I0
tp407
a(I225
F109844.38160156251
I2
I1
I0
tp408
a(I226
F110324.36988281251
I4
I1
I0
tp409
a(I227
F110803.38257812501
I1
I1
I0
tp410
a(I228
F111283.37085937501
I2
I0
I0
tp411
a(I229
F111762.38355468751
I3
I0
I0
tp412
a(I230
F112242.37183593751
I1
I0
I0
tp413
a(I231
F112961.37867187501
I3
I0
I0
tp414
a(I232
F113201.37281250001
I4
I0
I0
tp415
a(I233
F113560.38843750001
I2
I0
I0
tp416
a(I234
F113920.37964843751
I1
I0
I0
tp417
a(I235
F114160.37378906251
I4
I1
I0
tp418
a(I236
F114520.36500000001
I3
I1
I0
tp419
a(I237
F114879.38062500001
I2
I1
I0
tp420
a(I238
F115119.37476562501
I3
I0
I0
tp421
a(I239
F115598.38746093751
I2
I0
I0
tp422
a(I240
F116078.37574218751
I4
I0
I0
tp423
a(I241
F116557.38843750001
I1
I0
I0
tp424
a(I242
F117037.37671875001
I3
I1
I0
tp425
a(I243
F117517.36500000001
I2
I1
I0
tp426
a(I244
F117996.37769531251
I4
I1
I0
tp427
a(I245
F118476.36597656251
I1
I1
I0
tp428
a(I246
F118955.37867187501
I2
I0
I0
tp429
a(I247
F119435.36695312501
I3
I0
I0
tp430
a(I248
F119914.37964843751
I1
I0
I0
tp431
a(I249
F120633.38648437501
I3
I0
I0
tp432
a(I250
F120873.38062500001
I4
I0
I0
tp433
a(I251
F121233.37183593751
I2
I0
I0
tp434
a(I252
F121592.38746093751
I1
I0
I0
tp435
a(I253
F121832.38160156251
I4
I1
I0
tp436
a(I254
F122192.37281250001
I3
I1
I0
tp437
a(I255
F122551.38843750001
I2
I1
I0
tp438
a(I256
F122791.38257812501
I3
I0
I0
tp439
a(I257
F123271.37085937501
I2
I0
I0
tp440
a(I258
F123750.38355468751
I4
I0
I0
tp441
a(I259
F124230.37183593751
I1
I0
I0
tp442
a(I260
F124709.38453125001
I3
I1
I0
tp443
a(I261
F125189.37281250001
I2
I1
I0
tp444
a(I262
F125668.38550781251
I4
I1
I0
tp445
a(I263
F126148.37378906251
I1
I1
I0
tp446
a(I264
F126627.38648437501
I2
I0
I0
tp447
a(I265
F127107.37476562501
I3
I0
I0
tp448
a(I266
F127586.38746093751
I1
I0
I0
tp449
a(I267
F128306.36988281251
I3
I0
I0
tp450
a(I268
F128545.38843750001
I4
I0
I0
tp451
a(I269
F128905.37964843751
I2
I0
I0
tp452
a(I270
F129265.37085937501
I1
I0
I0
tp453
a(I271
F129505.36500000001
I4
I1
I0
tp454
a(I272
F129864.38062500001
I3
I1
I0
tp455
a(I273
F130224.37183593751
I2
I1
I0
tp456
a(I274
F130464.36597656251
I3
I0
I0
tp457
a(I275
F130943.37867187501
I2
I0
I0
tp458
a(I276
F131423.36695312499
I4
I0
I0
tp459
a(I277
F131902.37964843749
I1
I0
I0
tp460
a(I278
F132382.36792968749
I3
I1
I0
tp461
a(I279
F132861.38062499999
I2
I1
I0
tp462
a(I280
F133341.36890624999
I4
I1
I0
tp463
a(I281
F133820.38160156249
I1
I1
I0
tp464
a(I282
F134300.36988281249
I2
I0
I0
tp465
a(I283
F134779.38257812499
I3
I0
I0
tp466
a(I284
F135259.37085937499
I1
I0
I0
tp467
a(I285
F135978.37769531249
I3
I0
I0
tp468
a(I286
F136218.37183593749
I4
I0
I0
tp469
a(I287
F136577.38746093749
I2
I0
I0
tp470
a(I288
F136937.37867187499
I1
I0
I0
tp471
a(I289
F137177.37281249999
I4
I1
I0
tp472
a(I290
F137536.38843749999
I3
I1
I0
tp473
a(I291
F137896.37964843749
I2
I1
I0
tp474
aa(lp475
(I0
F134.86500000000001
I3
I0
I0
tp476
a(I1
F514.36792968750001
I2
I1
I0
tp477
a(I2
F993.38062500000001
I1
I1
I0
tp478
a(I3
F1473.36890625
I4
I0
I0
tp479
a(I4
F1712.3874609375
I2
I1
I0
tp480
a(I5
F1952.3816015625
I2
I0
I0
tp481
a(I6
F1952.3816015625
I3
I0
I0
tp482
a(I7
F2911.3825781249998
I3
I1
I0
tp483
a(I8
F3391.3708593749998
I1
I0
I0
tp484
a(I9
F3631.3649999999998
I3
I1
I0
tp485
a(I10
F3870.3835546874998
I1
I0
I0
tp486
a(I11
F3870.3835546874998
I4
I0
I0
tp487
a(I12
F4350.3718359374998
I2
I0
I0
tp488
a(I13
F4829.3845312499998
I1
I0
I0
tp489
a(I14
F5309.3728124999998
I3
I0
I0
tp490
a(I15
F5549.3669531249998
I4
I1
I0
tp491
a(I16
F5788.3855078124998
I2
I0
I0
tp492
a(I17
F5788.3855078124998
I4
I0
I0
tp493
a(I18
F6987.3806249999998
I2
I1
I0
tp494
a(I19
F7227.3747656249998
I1
I0
I0
tp495
a(I20
F7467.3689062499998
I2
I0
I0
tp496
a(I21
F7706.3874609374998
I3
I0
I0
tp497
a(I22
F8186.3757421874998
I2
I1
I0
tp498
a(I23
F8665.3884374999998
I1
I1
I0
tp499
a(I24
F9145.3767187499998
I4
I0
I0
tp500
a(I25
F9385.3708593749998
I2
I1
I0
tp501
a(I26
F9625.3649999999998
I2
I0
I0
tp502
a(I27
F9625.3649999999998
I3
I0
I0
tp503
a(I28
F10584.3659765625
I3
I1
I0
tp504
a(I29
F11063.378671875
I1
I0
I0
tp505
a(I30
F11303.3728125
I3
I1
I0
tp506
a(I31
F11543.366953125
I1
I0
I0
tp507
a(I32
F11543.366953125
I4
I0
I0
tp508
a(I33
F12022.3796484375
I2
I0
I0
tp509
a(I34
F12502.3679296875
I1
I0
I0
tp510
a(I35
F12981.380625
I3
I0
I0
tp511
a(I36
F13221.374765625
I4
I1
I0
tp512
a(I37
F13461.36890625
I2
I0
I0
tp513
a(I38
F13461.36890625
I4
I0
I0
tp514
a(I39
F14659.3884375
I2
I1
I0
tp515
a(I40
F14899.382578125
I1
I0
I0
tp516
a(I41
F15139.37671875
I2
I0
I0
tp517
a(I42
F15379.370859375
I4
I0
I0
tp518
a(I43
F15499.3679296875
I1
I1
I0
tp519
a(I44
F15738.386484375
I2
I0
I0
tp520
a(I45
F16338.3718359375
I3
I1
I0
tp521
a(I46
F16697.387460937502
I1
I1
I0
tp522
a(I47
F17297.372812500002
I4
I1
I0
tp523
a(I48
F17417.369882812502
I3
I0
I0
tp524
a(I49
F17656.388437500002
I2
I1
I0
tp525
a(I50
F18256.373789062502
I3
I0
I0
tp526
a(I51
F18616.365000000002
I1
I0
I0
tp527
a(I52
F18975.380625000002
I2
I0
I0
tp528
a(I53
F19215.374765625002
I3
I0
I0
tp529
a(I54
F19335.371835937502
I2
I1
I0
tp530
a(I55
F19575.365976562502
I2
I0
I0
tp531
a(I56
F20174.375742187502
I4
I1
I0
tp532
a(I57
F20534.366953125002
I1
I1
I0
tp533
a(I58
F21133.376718750002
I3
I1
I0
tp534
a(I59
F21253.373789062502
I1
I1
I0
tp535
a(I60
F21493.367929687502
I2
I1
I0
tp536
a(I61
F22092.377695312502
I4
I0
I0
tp537
a(I62
F22452.368906250002
I1
I0
I0
tp538
a(I63
F23051.378671875002
I2
I1
I0
tp539
a(I64
F23411.369882812502
I3
I1
I0
tp540
a(I65
F23411.369882812502
I4
I1
I0
tp541
a(I66
F24250.373789062502
I2
I0
I0
tp542
a(I67
F24490.367929687502
I1
I0
I0
tp543
a(I68
F24729.386484375002
I4
I1
I0
tp544
a(I69
F24969.380625000002
I3
I1
I0
tp545
a(I70
F25329.371835937502
I1
I1
I0
tp546
a(I71
F25329.371835937502
I2
I1
I0
tp547
a(I72
F26408.369882812502
I2
I1
I0
tp548
a(I73
F26647.388437500002
I3
I0
I0
tp549
a(I74
F26887.382578125002
I1
I1
I0
tp550
a(I75
F27247.373789062502
I3
I0
I0
tp551
a(I76
F27247.373789062502
I4
I0
I0
tp552
a(I77
F28326.371835937502
I3
I1
I0
tp553
a(I78
F28805.384531250002
I2
I0
I0
tp554
a(I79
F28805.384531250002
I3
I0
I0
tp555
a(I80
F29165.375742187502
I1
I1
I0
tp556
a(I81
F29525.366953125002
I1
I0
I0
tp557
a(I82
F29525.366953125002
I4
I0
I0
tp558
a(I83
F29884.382578125002
I3
I1
I0
tp559
a(I84
F30244.373789062502
I1
I0
I0
tp560
a(I85
F30244.373789062502
I3
I0
I0
tp561
a(I86
F30723.386484375002
I3
I1
I0
tp562
a(I87
F31142.888437500002
I4
I1
I0
tp563
a(I88
F31742.873789062502
I1
I0
I0
tp564
a(I89
F31742.873789062502
I2
I0
I0
tp565
a(I90
F31982.867929687502
I3
I1
I0
tp566
a(I91
F32221.886484375002
I4
I1
I0
tp567
a(I92
F32461.880625000002
I3
I1
I0
tp568
a(I93
F32701.874765625002
I1
I1
I0
tp569
a(I94
F33061.865976562498
I2
I1
I0
tp570
a(I95
F33660.875742187498
I3
I0
I0
tp571
a(I96
F33660.875742187498
I4
I0
I0
tp572
a(I97
F33900.869882812498
I1
I0
I0
tp573
a(I98
F34139.888437499998
I2
I0
I0
tp574
a(I99
F34379.882578124998
I1
I0
I0
tp575
a(I100
F34619.876718749998
I3
I1
I0
tp576
a(I101
F34979.867929687498
I4
I1
I0
tp577
a(I102
F35578.877695312498
I1
I0
I0
tp578
a(I103
F35578.877695312498
I2
I0
I0
tp579
a(I104
F35818.871835937498
I3
I0
I0
tp580
a(I105
F36058.865976562498
I4
I0
I0
tp581
a(I106
F36297.884531249998
I3
I0
I0
tp582
a(I107
F36537.878671874998
I3
I1
I0
tp583
a(I108
F37017.866953124998
I4
I1
I0
tp584
a(I109
F37496.879648437498
I1
I0
I0
tp585
a(I110
F37496.879648437498
I4
I0
I0
tp586
a(I111
F37976.867929687498
I2
I1
I0
tp587
a(I112
F38455.880624999998
I3
I1
I0
tp588
a(I113
F38815.871835937498
I4
I1
I0
tp589
a(I114
F39414.881601562498
I1
I0
I0
tp590
a(I115
F39414.881601562498
I2
I0
I0
tp591
a(I116
F39654.875742187498
I3
I1
I0
tp592
a(I117
F39894.869882812498
I4
I1
I0
tp593
a(I118
F40133.888437499998
I3
I1
I0
tp594
a(I119
F40373.882578124998
I1
I1
I0
tp595
a(I120
F40733.873789062498
I2
I1
I0
tp596
a(I121
F41332.883554687498
I3
I0
I0
tp597
a(I122
F41332.883554687498
I4
I0
I0
tp598
a(I123
F41572.877695312498
I1
I0
I0
tp599
a(I124
F41812.871835937498
I2
I0
I0
tp600
a(I125
F42052.865976562498
I1
I0
I0
tp601
a(I126
F42291.884531249998
I3
I1
I0
tp602
a(I127
F42651.875742187498
I4
I1
I0
tp603
a(I128
F43250.885507812498
I1
I0
I0
tp604
a(I129
F43250.885507812498
I2
I0
I0
tp605
a(I130
F43490.879648437498
I3
I0
I0
tp606
a(I131
F43730.873789062498
I4
I0
I0
tp607
a(I132
F43970.867929687498
I3
I0
I0
tp608
a(I133
F44209.886484374998
I3
I1
I0
tp609
a(I134
F46127.888437499998
I2
I1
I0
tp610
a(I135
F46548.365976562498
I4
I1
I0
tp611
a(I136
F47027.378671874998
I1
I1
I0
tp612
a(I137
F47507.366953124998
I2
I0
I0
tp613
a(I138
F47746.385507812498
I3
I1
I0
tp614
a(I139
F47986.379648437498
I1
I0
I0
tp615
a(I140
F47986.379648437498
I3
I0
I0
tp616
a(I141
F48945.380624999998
I2
I1
I0
tp617
a(I142
F49425.368906249998
I3
I1
I0
tp618
a(I143
F49664.387460937498
I4
I1
I0
tp619
a(I144
F49904.381601562498
I2
I0
I0
tp620
a(I145
F49904.381601562498
I4
I0
I0
tp621
a(I146
F50384.369882812498
I4
I1
I0
tp622
a(I147
F50863.382578124998
I3
I1
I0
tp623
a(I148
F51343.370859374998
I1
I0
I0
tp624
a(I149
F51583.364999999998
I2
I0
I0
tp625
a(I150
F51822.383554687498
I2
I0
I0
tp626
a(I151
F51822.383554687498
I3
I0
I0
tp627
a(I152
F53021.378671874998
I3
I0
I0
tp628
a(I153
F53261.372812499998
I2
I0
I0
tp629
a(I154
F53501.366953124998
I3
I1
I0
tp630
a(I155
F53740.385507812498
I2
I1
I0
tp631
a(I156
F54220.373789062498
I4
I1
I0
tp632
a(I157
F54699.386484374998
I1
I1
I0
tp633
a(I158
F55179.374765624998
I2
I0
I0
tp634
a(I159
F55419.368906249998
I3
I1
I0
tp635
a(I160
F55658.387460937498
I1
I0
I0
tp636
a(I161
F55658.387460937498
I3
I0
I0
tp637
a(I162
F56617.388437499998
I2
I1
I0
tp638
a(I163
F57097.376718749998
I3
I1
I0
tp639
a(I164
F57337.370859374998
I4
I1
I0
tp640
a(I165
F57577.364999999998
I2
I0
I0
tp641
a(I166
F57577.364999999998
I4
I0
I0
tp642
a(I167
F58056.377695312498
I4
I1
I0
tp643
a(I168
F58536.365976562498
I3
I1
I0
tp644
a(I169
F59015.378671874998
I1
I0
I0
tp645
a(I170
F59255.372812499998
I2
I0
I0
tp646
a(I171
F59495.366953124998
I2
I0
I0
tp647
a(I172
F59495.366953124998
I3
I0
I0
tp648
a(I173
F60693.386484374998
I3
I0
I0
tp649
a(I174
F60933.380624999998
I2
I0
I0
tp650
a(I175
F61173.374765624998
I3
I1
I0
tp651
a(I176
F61413.368906249998
I3
I0
I0
tp652
a(I177
F61892.381601562498
I2
I0
I0
tp653
a(I178
F62372.369882812498
I4
I0
I0
tp654
a(I179
F62611.388437499998
I1
I0
I0
tp655
a(I180
F62851.382578124998
I3
I1
I0
tp656
a(I181
F63091.376718749998
I2
I1
I0
tp657
a(I182
F63331.370859374998
I4
I1
I0
tp658
a(I183
F63810.383554687498
I1
I1
I0
tp659
a(I184
F64290.371835937498
I3
I0
I0
tp660
a(I185
F64530.365976562498
I2
I0
I0
tp661
a(I186
F64769.384531249998
I4
I0
I0
tp662
a(I187
F65009.378671874998
I1
I0
I0
tp663
a(I188
F65249.372812499998
I3
I1
I0
tp664
a(I189
F65728.385507812505
I2
I1
I0
tp665
a(I190
F66208.373789062505
I4
I1
I0
tp666
a(I191
F66448.367929687505
I1
I1
I0
tp667
a(I192
F66687.386484375005
I3
I0
I0
tp668
a(I193
F66927.380625000005
I2
I0
I0
tp669
a(I194
F67167.374765625005
I4
I0
I0
tp670
a(I195
F67646.387460937505
I1
I0
I0
tp671
a(I196
F68126.375742187505
I3
I1
I0
tp672
a(I197
F68366.369882812505
I2
I1
I0
tp673
a(I198
F68605.388437500005
I4
I1
I0
tp674
a(I199
F68845.382578125005
I1
I1
I0
tp675
a(I200
F69085.376718750005
I1
I0
I0
tp676
a(I201
F69565.365000000005
I4
I0
I0
tp677
a(I202
F70044.377695312505
I2
I0
I0
tp678
a(I203
F70284.371835937505
I3
I0
I0
tp679
a(I204
F70524.365976562505
I1
I1
I0
tp680
a(I205
F70763.384531250005
I4
I1
I0
tp681
a(I206
F71003.378671875005
I2
I1
I0
tp682
a(I207
F71483.366953125005
I3
I1
I0
tp683
a(I208
F71962.379648437505
I1
I0
I0
tp684
a(I209
F72202.373789062505
I4
I0
I0
tp685
a(I210
F72442.367929687505
I2
I0
I0
tp686
a(I211
F72681.386484375005
I3
I0
I0
tp687
a(I212
F72921.380625000005
I1
I1
I0
tp688
a(I213
F73401.368906250005
I4
I1
I0
tp689
a(I214
F73880.381601562505
I2
I1
I0
tp690
a(I215
F74120.375742187505
I3
I1
I0
tp691
a(I216
F74360.369882812505
I1
I0
I0
tp692
a(I217
F74599.388437500005
I4
I0
I0
tp693
a(I218
F74839.382578125005
I1
I0
I0
tp694
a(I219
F75319.370859375005
I4
I0
I0
tp695
a(I220
F75798.383554687505
I2
I1
I0
tp696
a(I221
F76038.377695312505
I3
I1
I0
tp697
a(I222
F76278.371835937505
I1
I1
I0
tp698
a(I223
F76518.365976562505
I4
I1
I0
tp699
a(I224
F76757.384531250005
I3
I0
I0
tp700
a(I225
F76757.384531250005
I4
I0
I0
tp701
a(I226
F77716.385507812505
I1
I0
I0
tp702
a(I227
F77716.385507812505
I4
I0
I0
tp703
a(I228
F78675.386484375005
I2
I0
I0
tp704
a(I229
F78675.386484375005
I4
I0
I0
tp705
a(I230
F79634.387460937505
I1
I1
I0
tp706
a(I231
F79634.387460937505
I3
I1
I0
tp707
a(I232
F80114.375742187505
I3
I1
I0
tp708
a(I233
F80593.388437500005
I2
I0
I0
tp709
a(I234
F80593.388437500005
I3
I0
I0
tp710
a(I235
F81073.376718750005
I1
I1
I0
tp711
a(I236
F81553.365000000005
I2
I1
I0
tp712
a(I237
F82032.377695312505
I4
I1
I0
tp713
a(I238
F82512.365976562505
I2
I0
I0
tp714
a(I239
F82512.365976562505
I4
I0
I0
tp715
a(I240
F83471.366953125005
I1
I1
I0
tp716
a(I241
F83471.366953125005
I2
I1
I0
tp717
a(I242
F84430.367929687505
I3
I0
I0
tp718
a(I243
F84430.367929687505
I4
I0
I0
tp719
a(I244
F85389.368906250005
I1
I0
I0
tp720
a(I245
F85389.368906250005
I4
I0
I0
tp721
a(I246
F86348.369882812505
I2
I0
I0
tp722
a(I247
F86348.369882812505
I4
I0
I0
tp723
a(I248
F87307.370859375005
I1
I1
I0
tp724
a(I249
F87307.370859375005
I3
I1
I0
tp725
a(I250
F87786.383554687505
I3
I1
I0
tp726
a(I251
F88266.371835937505
I2
I0
I0
tp727
a(I252
F88266.371835937505
I3
I0
I0
tp728
a(I253
F88745.384531250005
I1
I1
I0
tp729
a(I254
F89225.372812500005
I2
I1
I0
tp730
a(I255
F89704.385507812505
I4
I1
I0
tp731
a(I256
F90184.373789062505
I2
I0
I0
tp732
a(I257
F90184.373789062505
I4
I0
I0
tp733
a(I258
F91143.374765625005
I1
I1
I0
tp734
a(I259
F91143.374765625005
I2
I1
I0
tp735
a(I260
F92102.375742187505
I3
I0
I0
tp736
a(I261
F92102.375742187505
I4
I0
I0
tp737
a(I262
F93061.376718750005
I1
I0
I0
tp738
a(I263
F93061.376718750005
I4
I0
I0
tp739
a(I264
F94020.377695312505
I2
I0
I0
tp740
a(I265
F94020.377695312505
I4
I0
I0
tp741
a(I266
F94979.378671875005
I1
I1
I0
tp742
a(I267
F94979.378671875005
I3
I1
I0
tp743
a(I268
F95459.366953125005
I3
I1
I0
tp744
a(I269
F95938.379648437505
I2
I0
I0
tp745
a(I270
F95938.379648437505
I3
I0
I0
tp746
a(I271
F96418.367929687505
I1
I1
I0
tp747
a(I272
F96897.380625000005
I2
I1
I0
tp748
a(I273
F97377.368906250005
I4
I1
I0
tp749
a(I274
F97856.381601562505
I2
I0
I0
tp750
a(I275
F97856.381601562505
I4
I0
I0
tp751
a(I276
F98815.382578125005
I1
I1
I0
tp752
a(I277
F98815.382578125005
I2
I1
I0
tp753
a(I278
F99774.383554687505
I3
I0
I0
tp754
a(I279
F99774.383554687505
I4
I0
I0
tp755
a(I280
F100733.38453125001
I1
I0
I0
tp756
a(I281
F100733.38453125001
I4
I0
I0
tp757
a(I282
F101692.38550781251
I2
I0
I0
tp758
a(I283
F101692.38550781251
I4
I0
I0
tp759
a(I284
F102651.38648437501
I1
I1
I0
tp760
a(I285
F102651.38648437501
I3
I1
I0
tp761
a(I286
F103131.37476562501
I3
I1
I0
tp762
a(I287
F103610.38746093751
I2
I0
I0
tp763
a(I288
F103610.38746093751
I3
I0
I0
tp764
a(I289
F104090.37574218751
I1
I1
I0
tp765
a(I290
F104569.38843750001
I2
I1
I0
tp766
a(I291
F105049.37671875001
I4
I1
I0
tp767
a(I292
F105529.36500000001
I2
I0
I0
tp768
a(I293
F105529.36500000001
I4
I0
I0
tp769
a(I294
F106488.36597656251
I1
I1
I0
tp770
a(I295
F106488.36597656251
I2
I1
I0
tp771
a(I296
F107447.36695312501
I1
I0
I0
tp772
a(I297
F107926.37964843751
I4
I0
I0
tp773
a(I298
F108406.36792968751
I2
I0
I0
tp774
a(I299
F108645.38648437501
I3
I0
I0
tp775
a(I300
F108885.38062500001
I1
I1
I0
tp776
a(I301
F109125.37476562501
I4
I1
I0
tp777
a(I302
F109365.36890625001
I2
I1
I0
tp778
a(I303
F109844.38160156251
I3
I1
I0
tp779
a(I304
F110324.36988281251
I1
I0
I0
tp780
a(I305
F110563.38843750001
I4
I0
I0
tp781
a(I306
F110803.38257812501
I2
I0
I0
tp782
a(I307
F111043.37671875001
I3
I0
I0
tp783
a(I308
F111283.37085937501
I1
I1
I0
tp784
a(I309
F111762.38355468751
I4
I1
I0
tp785
a(I310
F112242.37183593751
I2
I1
I0
tp786
a(I311
F112961.37867187501
I3
I0
I0
tp787
a(I312
F113201.37281250001
I4
I0
I0
tp788
a(I313
F113560.38843750001
I2
I0
I0
tp789
a(I314
F113920.37964843751
I1
I0
I0
tp790
a(I315
F114160.37378906251
I4
I1
I0
tp791
a(I316
F114520.36500000001
I3
I1
I0
tp792
a(I317
F114879.38062500001
I2
I1
I0
tp793
a(I318
F115119.37476562501
I1
I0
I0
tp794
a(I319
F115598.38746093751
I4
I0
I0
tp795
a(I320
F116078.37574218751
I2
I0
I0
tp796
a(I321
F116318.36988281251
I3
I0
I0
tp797
a(I322
F116557.38843750001
I1
I1
I0
tp798
a(I323
F116797.38257812501
I4
I1
I0
tp799
a(I324
F117037.37671875001
I2
I1
I0
tp800
a(I325
F117517.36500000001
I3
I1
I0
tp801
a(I326
F117996.37769531251
I1
I0
I0
tp802
a(I327
F118236.37183593751
I4
I0
I0
tp803
a(I328
F118476.36597656251
I2
I0
I0
tp804
a(I329
F118715.38453125001
I3
I0
I0
tp805
a(I330
F118955.37867187501
I1
I1
I0
tp806
a(I331
F119435.36695312501
I4
I1
I0
tp807
a(I332
F119914.37964843751
I2
I1
I0
tp808
a(I333
F120633.38648437501
I3
I0
I0
tp809
a(I334
F120873.38062500001
I4
I0
I0
tp810
a(I335
F121233.37183593751
I2
I0
I0
tp811
a(I336
F121592.38746093751
I1
I0
I0
tp812
a(I337
F121832.38160156251
I4
I1
I0
tp813
a(I338
F122192.37281250001
I3
I1
I0
tp814
a(I339
F122551.38843750001
I2
I1
I0
tp815
a(I340
F122791.38257812501
I1
I0
I0
tp816
a(I341
F123271.37085937501
I4
I0
I0
tp817
a(I342
F123750.38355468751
I2
I0
I0
tp818
a(I343
F123990.37769531251
I3
I0
I0
tp819
a(I344
F124230.37183593751
I1
I1
I0
tp820
a(I345
F124470.36597656251
I4
I1
I0
tp821
a(I346
F124709.38453125001
I2
I1
I0
tp822
a(I347
F125189.37281250001
I3
I1
I0
tp823
a(I348
F125668.38550781251
I1
I0
I0
tp824
a(I349
F125908.37964843751
I4
I0
I0
tp825
a(I350
F126148.37378906251
I2
I0
I0
tp826
a(I351
F126388.36792968751
I3
I0
I0
tp827
a(I352
F126627.38648437501
I1
I1
I0
tp828
a(I353
F127107.37476562501
I4
I1
I0
tp829
a(I354
F127586.38746093751
I2
I1
I0
tp830
a(I355
F128306.36988281251
I3
I0
I0
tp831
a(I356
F128545.38843750001
I4
I0
I0
tp832
a(I357
F128905.37964843751
I2
I0
I0
tp833
a(I358
F129265.37085937501
I1
I0
I0
tp834
a(I359
F129505.36500000001
I4
I1
I0
tp835
a(I360
F129864.38062500001
I3
I1
I0
tp836
a(I361
F130224.37183593751
I2
I1
I0
tp837
a(I362
F130464.36597656251
I1
I0
I0
tp838
a(I363
F130943.37867187501
I4
I0
I0
tp839
a(I364
F131423.36695312499
I2
I0
I0
tp840
a(I365
F131662.38550781249
I3
I0
I0
tp841
a(I366
F131902.37964843749
I1
I1
I0
tp842
a(I367
F132142.37378906249
I4
I1
I0
tp843
a(I368
F132382.36792968749
I2
I1
I0
tp844
a(I369
F132861.38062499999
I3
I1
I0
tp845
a(I370
F133341.36890624999
I1
I0
I0
tp846
a(I371
F133580.38746093749
I4
I0
I0
tp847
a(I372
F133820.38160156249
I2
I0
I0
tp848
a(I373
F134060.37574218749
I3
I0
I0
tp849
a(I374
F134300.36988281249
I1
I1
I0
tp850
a(I375
F134779.38257812499
I4
I1
I0
tp851
a(I376
F135259.37085937499
I2
I1
I0
tp852
a(I377
F135978.37769531249
I3
I0
I0
tp853
a(I378
F136218.37183593749
I4
I0
I0
tp854
a(I379
F136577.38746093749
I2
I0
I0
tp855
a(I380
F136937.37867187499
I1
I0
I0
tp856
a(I381
F137177.37281249999
I4
I1
I0
tp857
a(I382
F137536.38843749999
I3
I1
I0
tp858
a(I383
F137896.37964843749
I2
I1
I0
tp859
a(I384
F138136.37378906249
I3
I0
I0
tp860
a(I385
F138615.38648437499
I2
I1
I0
tp861
aa.