(lp1
(lp2
(I0
F135
I2
I1
I0
tp3
a(I1
F574.453125
I3
I1
I0
tp4
a(I2
F934.8046875
I4
I1
I0
tp5
a(I3
F1534.4140625
I1
I0
I0
tp6
a(I4
F2014.8828125
I1
I1
I0
tp7
a(I5
F2494.375
I4
I1
I0
tp8
a(I6
F2854.7265625
I3
I1
I0
tp9
a(I7
F3454.3359375
I2
I0
I0
tp10
a(I8
F3934.8046875
I2
I1
I0
tp11
a(I9
F4414.296875
I3
I1
I0
tp12
a(I10
F4774.6484375
I4
I1
I0
tp13
a(I11
F5374.2578125
I1
I0
I0
tp14
a(I12
F5854.7265625
I1
I1
I0
tp15
a(I13
F6334.21875
I4
I1
I0
tp16
a(I14
F6694.5703125
I3
I1
I0
tp17
a(I15
F7294.1796875
I2
I0
I0
tp18
a(I16
F7774.6484375
I3
I1
I0
tp19
a(I17
F8254.140625
I1
I1
I0
tp20
a(I18
F8734.609375
I3
I1
I0
tp21
a(I19
F9214.1015625
I1
I1
I0
tp22
a(I20
F9694.5703125
I1
I1
I0
tp23
a(I21
F9694.5703125
I2
I1
I0
tp24
a(I22
F10174.0625
I4
I1
I0
tp25
a(I23
F10654.53125
I3
I1
I0
tp26
a(I24
F10654.53125
I4
I1
I0
tp27
a(I25
F11135
I4
I1
I0
tp28
a(I26
F11614.4921875
I1
I0
I0
tp29
a(I27
F12094.9609375
I4
I0
I0
tp30
a(I28
F12574.453125
I4
I1
I0
tp31
a(I29
F13054.921875
I2
I0
I0
tp32
a(I30
F13534.4140625
I3
I0
I0
tp33
a(I31
F14014.8828125
I3
I0
I0
tp34
a(I32
F14494.375
I3
I0
I0
tp35
a(I33
F14974.84375
I2
I0
I0
tp36
a(I34
F14974.84375
I3
I0
I0
tp37
a(I35
F15454.3359375
I3
I1
I0
tp38
a(I36
F15694.5703125
I4
I0
I0
tp39
a(I37
F16174.0625
I2
I1
I0
tp40
a(I38
F16414.296875
I1
I1
I0
tp41
a(I39
F16654.53125
I2
I1
I0
tp42
a(I40
F17374.2578125
I3
I1
I0
tp43
a(I41
F17614.4921875
I4
I0
I0
tp44
a(I42
F18094.9609375
I2
I1
I0
tp45
a(I43
F18334.21875
I1
I1
I0
tp46
a(I44
F18574.453125
I2
I1
I0
tp47
a(I45
F19294.1796875
I3
I1
I0
tp48
a(I46
F19774.6484375
I2
I0
I0
tp49
a(I47
F20254.140625
I3
I1
I0
tp50
a(I48
F20734.609375
I1
I1
I0
tp51
a(I49
F21214.1015625
I2
I1
I0
tp52
a(I50
F21694.5703125
I4
I0
I0
tp53
a(I51
F22174.0625
I1
I1
I0
tp54
a(I52
F23135
I1
I1
I0
tp55
a(I53
F23135
I3
I1
I0
tp56
a(I54
F24574.453125
I2
I1
I0
tp57
a(I55
F25054.921875
I2
I1
I0
tp58
a(I56
F25054.921875
I3
I1
I0
tp59
a(I57
F26014.8828125
I1
I1
I0
tp60
a(I58
F26014.8828125
I4
I1
I0
tp61
a(I59
F26974.84375
I1
I0
I0
tp62
a(I60
F26974.84375
I3
I0
I0
tp63
a(I61
F28414.296875
I2
I0
I0
tp64
a(I62
F28894.765625
I2
I0
I0
tp65
a(I63
F28894.765625
I3
I0
I0
tp66
a(I64
F29854.7265625
I1
I0
I0
tp67
a(I65
F29854.7265625
I4
I0
I0
tp68
a(I66
F30814.6875
I1
I1
I0
tp69
a(I67
F30814.6875
I3
I1
I0
tp70
a(I68
F32254.140625
I2
I1
I0
tp71
a(I69
F32734.609375
I1
I1
I0
tp72
a(I70
F32734.609375
I4
I1
I0
tp73
a(I71
F33694.5703125
I2
I1
I0
tp74
a(I72
F33694.5703125
I4
I1
I0
tp75
a(I73
F34654.53125
I1
I0
I0
tp76
a(I74
F34654.53125
I3
I0
I0
tp77
a(I75
F36094.9609375
I2
I0
I0
tp78
a(I76
F36574.453125
I1
I0
I0
tp79
a(I77
F36574.453125
I4
I0
I0
tp80
a(I78
F37534.4140625
I2
I0
I0
tp81
a(I79
F37534.4140625
I4
I0
I0
tp82
a(I80
F38494.375
I2
I1
I0
tp83
aa(lp84
(I0
F135
I2
I1
I0
tp85
a(I1
F574.453125
I3
I1
I0
tp86
a(I2
F934.8046875
I4
I1
I0
tp87
a(I3
F1534.4140625
I1
I0
I0
tp88
a(I4
F1774.6484375
I3
I0
I0
tp89
a(I5
F2014.8828125
I1
I1
I0
tp90
a(I6
F2494.375
I4
I1
I0
tp91
a(I7
F2854.7265625
I3
I1
I0
tp92
a(I8
F3454.3359375
I2
I0
I0
tp93
a(I9
F3694.5703125
I4
I1
I0
tp94
a(I10
F3934.8046875
I2
I1
I0
tp95
a(I11
F4414.296875
I3
I1
I0
tp96
a(I12
F4774.6484375
I4
I1
I0
tp97
a(I13
F5374.2578125
I1
I0
I0
tp98
a(I14
F5614.4921875
I3
I0
I0
tp99
a(I15
F5854.7265625
I1
I1
I0
tp100
a(I16
F6334.21875
I4
I1
I0
tp101
a(I17
F6694.5703125
I3
I1
I0
tp102
a(I18
F7294.1796875
I2
I0
I0
tp103
a(I19
F7534.4140625
I4
I1
I0
tp104
a(I20
F7774.6484375
I3
I1
I0
tp105
a(I21
F8254.140625
I1
I1
I0
tp106
a(I22
F8734.609375
I3
I1
I0
tp107
a(I23
F8974.84375
I2
I1
I0
tp108
a(I24
F9214.1015625
I1
I1
I0
tp109
a(I25
F9694.5703125
I1
I1
I0
tp110
a(I26
F9694.5703125
I3
I1
I0
tp111
a(I27
F10174.0625
I4
I1
I0
tp112
a(I28
F10414.296875
I2
I1
I0
tp113
a(I29
F10654.53125
I1
I1
I0
tp114
a(I30
F10654.53125
I4
I1
I0
tp115
a(I31
F11135
I4
I1
I0
tp116
a(I32
F11614.4921875
I1
I0
I0
tp117
a(I33
F12094.9609375
I4
I0
I0
tp118
a(I34
F12334.21875
I2
I0
I0
tp119
a(I35
F12574.453125
I4
I1
I0
tp120
a(I36
F13054.921875
I2
I0
I0
tp121
a(I37
F13534.4140625
I3
I0
I0
tp122
a(I38
F13774.6484375
I4
I0
I0
tp123
a(I39
F14014.8828125
I3
I0
I0
tp124
a(I40
F14254.140625
I2
I0
I0
tp125
a(I41
F14494.375
I3
I0
I0
tp126
a(I42
F15454.3359375
I3
I1
I0
tp127
a(I43
F15694.5703125
I4
I0
I0
tp128
a(I44
F16174.0625
I2
I1
I0
tp129
a(I45
F16414.296875
I1
I1
I0
tp130
a(I46
F16654.53125
I2
I1
I0
tp131
a(I47
F16894.765625
I3
I0
I0
tp132
a(I48
F17135
I2
I0
I0
tp133
a(I49
F17374.2578125
I3
I0
I0
tp134
a(I50
F17614.4921875
I4
I1
I0
tp135
a(I51
F18094.9609375
I2
I1
I0
tp136
a(I52
F18334.21875
I1
I1
I0
tp137
a(I53
F18574.453125
I2
I1
I0
tp138
a(I54
F18814.6875
I3
I0
I0
tp139
a(I55
F19054.921875
I2
I0
I0
tp140
a(I56
F19294.1796875
I3
I1
I0
tp141
a(I57
F19774.6484375
I3
I0
I0
tp142
a(I58
F20014.8828125
I2
I1
I0
tp143
a(I59
F20254.140625
I3
I0
I0
tp144
a(I60
F20734.609375
I1
I1
I0
tp145
a(I61
F21214.1015625
I1
I1
I0
tp146
a(I62
F21454.3359375
I3
I1
I0
tp147
a(I63
F21694.5703125
I4
I0
I0
tp148
a(I64
F21934.8046875
I3
I1
I0
tp149
a(I65
F22174.0625
I1
I1
I0
tp150
a(I66
F23135
I1
I1
I0
tp151
a(I67
F23135
I3
I1
I0
tp152
a(I68
F24574.453125
I2
I1
I0
tp153
a(I69
F24574.453125
I4
I1
I0
tp154
a(I70
F25054.921875
I2
I1
I0
tp155
a(I71
F25054.921875
I3
I1
I0
tp156
a(I72
F26014.8828125
I1
I1
I0
tp157
a(I73
F26014.8828125
I4
I1
I0
tp158
a(I74
F26974.84375
I1
I0
I0
tp159
a(I75
F26974.84375
I3
I0
I0
tp160
a(I76
F28414.296875
I2
I0
I0
tp161
a(I77
F28414.296875
I4
I0
I0
tp162
a(I78
F28894.765625
I2
I0
I0
tp163
a(I79
F28894.765625
I3
I0
I0
tp164
a(I80
F29854.7265625
I1
I0
I0
tp165
a(I81
F29854.7265625
I4
I0
I0
tp166
a(I82
F30814.6875
I2
I1
I0
tp167
a(I83
F30814.6875
I3
I1
I0
tp168
a(I84
F32254.140625
I1
I1
I0
tp169
a(I85
F32254.140625
I3
I1
I0
tp170
a(I86
F32734.609375
I1
I1
I0
tp171
a(I87
F32734.609375
I4
I1
I0
tp172
a(I88
F33694.5703125
I2
I1
I0
tp173
a(I89
F33694.5703125
I4
I1
I0
tp174
a(I90
F34654.53125
I2
I0
I0
tp175
a(I91
F34654.53125
I3
I0
I0
tp176
a(I92
F36094.9609375
I1
I0
I0
tp177
a(I93
F36094.9609375
I3
I0
I0
tp178
a(I94
F36574.453125
I1
I0
I0
tp179
a(I95
F36574.453125
I4
I0
I0
tp180
a(I96
F37534.4140625
I2
I0
I0
tp181
a(I97
F37534.4140625
I4
I0
I0
tp182
a(I98
F38494.375
I2
I1
I0
tp183
aa(lp184
g85
ag86
ag87
ag88
ag89
ag90
ag91
ag92
ag93
ag94
ag95
ag96
ag97
ag98
ag99
ag100
ag101
ag102
ag103
ag104
ag105
ag106
ag107
ag108
ag109
ag110
ag111
ag112
ag113
ag114
ag115
ag116
ag117
ag118
ag119
ag120
ag121
ag122
ag123
ag124
ag125
ag126
ag127
ag128
ag129
ag130
ag131
ag132
ag133
ag134
ag135
ag136
ag137
ag138
ag139
ag140
ag141
ag142
ag143
ag144
ag145
ag146
ag147
ag148
ag149
ag150
ag151
ag152
ag153
ag154
ag155
ag156
ag157
ag158
ag159
ag160
ag161
ag162
ag163
ag164
ag165
ag166
ag167
ag168
ag169
ag170
ag171
ag172
ag173
ag174
ag175
ag176
ag177
ag178
ag179
ag180
ag181
ag182
aa.