(lp1
(lp2
(I0
F240
I3
I1
I0
tp3
a(I1
F1379.6484375
I2
I0
I0
tp4
a(I2
F2659.921875
I3
I0
I0
tp5
a(I3
F3939.21875
I1
I0
I0
tp6
a(I4
F5219.4921875
I1
I1
I0
tp7
a(I5
F6499.765625
I3
I1
I0
tp8
a(I6
F7779.0625
I1
I0
I0
tp9
a(I7
F9059.3359375
I2
I1
I0
tp10
a(I8
F9699.9609375
I3
I0
I0
tp11
a(I9
F10339.609375
I3
I1
I0
tp12
a(I10
F10979.2578125
I4
I1
I0
tp13
a(I11
F11619.8828125
I1
I1
I0
tp14
a(I12
F12899.1796875
I3
I0
I0
tp15
a(I13
F13539.8046875
I4
I1
I0
tp16
a(I14
F14179.453125
I2
I0
I0
tp17
a(I15
F15459.7265625
I3
I1
I0
tp18
a(I16
F16099.375
I3
I0
I0
tp19
a(I17
F16740
I1
I0
I0
tp20
a(I18
F17379.6484375
I3
I1
I0
tp21
a(I19
F18019.296875
I4
I0
I0
tp22
a(I20
F19299.5703125
I1
I1
I0
tp23
a(I21
F20579.84375
I3
I1
I0
tp24
a(I22
F21219.4921875
I4
I1
I0
tp25
a(I23
F21859.140625
I1
I1
I0
tp26
a(I24
F23139.4140625
I3
I0
I0
tp27
a(I25
F23779.0625
I4
I1
I0
tp28
a(I26
F24419.6875
I2
I0
I0
tp29
a(I27
F25699.9609375
I3
I1
I0
tp30
a(I28
F26339.609375
I3
I0
I0
tp31
a(I29
F26979.2578125
I1
I0
I0
tp32
a(I30
F27619.8828125
I3
I1
I0
tp33
a(I31
F28259.53125
I4
I0
I0
tp34
a(I32
F29539.8046875
I1
I1
I0
tp35
a(I33
F30819.1015625
I3
I1
I0
tp36
a(I34
F31459.7265625
I2
I1
I0
tp37
a(I35
F32099.375
I3
I0
I0
tp38
a(I36
F33379.6484375
I1
I0
I0
tp39
a(I37
F34019.296875
I3
I1
I0
tp40
a(I38
F34659.921875
I3
I0
I0
tp41
a(I39
F35939.21875
I2
I0
I0
tp42
a(I40
F36579.84375
I1
I0
I0
tp43
a(I41
F37219.4921875
I3
I0
I0
tp44
a(I42
F37859.140625
I4
I1
I0
tp45
a(I43
F38499.765625
I3
I1
I0
tp46
a(I44
F39779.0625
I1
I1
I0
tp47
a(I45
F41059.3359375
I3
I1
I0
tp48
a(I46
F42339.609375
I2
I1
I0
tp49
a(I47
F43619.8828125
I1
I1
I0
tp50
a(I48
F43619.8828125
I4
I1
I0
tp51
a(I49
F44899.1796875
I2
I0
I0
tp52
a(I50
F44899.1796875
I4
I0
I0
tp53
a(I51
F46179.453125
I2
I1
I0
tp54
a(I52
F46179.453125
I3
I1
I0
tp55
a(I53
F47459.7265625
I1
I0
I0
tp56
a(I54
F47459.7265625
I3
I0
I0
tp57
a(I55
F48740
I3
I1
I0
tp58
a(I56
F49379.6484375
I4
I1
I0
tp59
a(I57
F50019.296875
I1
I1
I0
tp60
a(I58
F51299.5703125
I3
I0
I0
tp61
a(I59
F51939.21875
I4
I1
I0
tp62
a(I60
F52579.84375
I2
I0
I0
tp63
a(I61
F53859.140625
I3
I1
I0
tp64
a(I62
F54499.765625
I3
I0
I0
tp65
a(I63
F55139.4140625
I1
I0
I0
tp66
a(I64
F55779.0625
I3
I1
I0
tp67
a(I65
F56419.6875
I4
I0
I0
tp68
a(I66
F57699.9609375
I1
I1
I0
tp69
a(I67
F58979.2578125
I3
I1
I0
tp70
a(I68
F59619.8828125
I4
I1
I0
tp71
a(I69
F60259.53125
I1
I1
I0
tp72
a(I70
F61539.8046875
I3
I0
I0
tp73
a(I71
F62179.453125
I4
I1
I0
tp74
a(I72
F62819.1015625
I2
I0
I0
tp75
a(I73
F64099.375
I3
I1
I0
tp76
a(I74
F64740
I3
I0
I0
tp77
a(I75
F65379.6484375
I1
I0
I0
tp78
a(I76
F66019.296875
I3
I1
I0
tp79
a(I77
F66659.921875
I4
I0
I0
tp80
a(I78
F67939.21875
I1
I1
I0
tp81
a(I79
F69219.4921875
I3
I1
I0
tp82
a(I80
F69859.140625
I2
I1
I0
tp83
a(I81
F70499.765625
I3
I0
I0
tp84
a(I82
F71779.0625
I1
I0
I0
tp85
a(I83
F72419.6875
I3
I1
I0
tp86
a(I84
F73059.3359375
I3
I0
I0
tp87
a(I85
F74339.609375
I2
I0
I0
tp88
a(I86
F74979.2578125
I1
I0
I0
tp89
a(I87
F75619.8828125
I3
I0
I0
tp90
a(I88
F76259.53125
I4
I1
I0
tp91
a(I89
F76899.1796875
I3
I1
I0
tp92
a(I90
F78179.453125
I1
I1
I0
tp93
a(I91
F79459.7265625
I3
I1
I0
tp94
a(I92
F80740
I2
I1
I0
tp95
a(I93
F82019.296875
I1
I1
I0
tp96
a(I94
F82019.296875
I4
I1
I0
tp97
a(I95
F83299.5703125
I2
I0
I0
tp98
a(I96
F83299.5703125
I4
I0
I0
tp99
a(I97
F84579.84375
I2
I1
I0
tp100
a(I98
F84579.84375
I3
I1
I0
tp101
a(I99
F85859.140625
I1
I0
I0
tp102
a(I100
F85859.140625
I3
I0
I0
tp103
a(I101
F87139.4140625
I3
I1
I0
tp104
a(I102
F87779.0625
I4
I1
I0
tp105
a(I103
F88419.6875
I1
I1
I0
tp106
a(I104
F89699.9609375
I3
I0
I0
tp107
a(I105
F90339.609375
I4
I1
I0
tp108
a(I106
F90979.2578125
I2
I0
I0
tp109
a(I107
F92259.53125
I3
I1
I0
tp110
a(I108
F92899.1796875
I3
I0
I0
tp111
a(I109
F93539.8046875
I1
I0
I0
tp112
a(I110
F94179.453125
I3
I1
I0
tp113
a(I111
F94819.1015625
I4
I0
I0
tp114
a(I112
F96099.375
I1
I1
I0
tp115
a(I113
F97379.6484375
I1
I1
I0
tp116
a(I114
F97379.6484375
I2
I1
I0
tp117
a(I115
F98659.921875
I3
I1
I0
tp118
a(I116
F98659.921875
I4
I1
I0
tp119
a(I117
F99939.21875
I1
I1
I0
tp120
a(I118
F99939.21875
I2
I1
I0
tp121
aa(lp122
(I0
F240
I3
I1
I0
tp123
a(I1
F1379.6484375
I2
I1
I0
tp124
a(I2
F2659.921875
I3
I0
I0
tp125
a(I3
F3939.21875
I1
I0
I0
tp126
a(I4
F5219.4921875
I1
I1
I0
tp127
a(I5
F6499.765625
I3
I1
I0
tp128
a(I6
F7779.0625
I1
I0
I0
tp129
a(I7
F9059.3359375
I2
I1
I0
tp130
a(I8
F9699.9609375
I3
I0
I0
tp131
a(I9
F10339.609375
I3
I1
I0
tp132
a(I10
F10979.2578125
I4
I1
I0
tp133
a(I11
F11619.8828125
I1
I1
I0
tp134
a(I12
F12259.53125
I1
I0
I0
tp135
a(I13
F12899.1796875
I3
I0
I0
tp136
a(I14
F13539.8046875
I4
I1
I0
tp137
a(I15
F14179.453125
I2
I1
I0
tp138
a(I16
F14819.1015625
I2
I0
I0
tp139
a(I17
F15459.7265625
I3
I1
I0
tp140
a(I18
F16099.375
I3
I0
I0
tp141
a(I19
F16740
I1
I1
I0
tp142
a(I20
F17379.6484375
I3
I1
I0
tp143
a(I21
F18019.296875
I4
I0
I0
tp144
a(I22
F19299.5703125
I1
I1
I0
tp145
a(I23
F19939.21875
I2
I1
I0
tp146
a(I24
F20579.84375
I3
I1
I0
tp147
a(I25
F21219.4921875
I4
I1
I0
tp148
a(I26
F21859.140625
I1
I1
I0
tp149
a(I27
F22499.765625
I1
I0
I0
tp150
a(I28
F23139.4140625
I3
I0
I0
tp151
a(I29
F23779.0625
I4
I1
I0
tp152
a(I30
F24419.6875
I2
I1
I0
tp153
a(I31
F25059.3359375
I2
I0
I0
tp154
a(I32
F25699.9609375
I3
I1
I0
tp155
a(I33
F26339.609375
I3
I0
I0
tp156
a(I34
F26979.2578125
I1
I1
I0
tp157
a(I35
F27619.8828125
I3
I1
I0
tp158
a(I36
F28259.53125
I4
I0
I0
tp159
a(I37
F29539.8046875
I1
I1
I0
tp160
a(I38
F30179.453125
I2
I1
I0
tp161
a(I39
F30819.1015625
I3
I1
I0
tp162
a(I40
F31459.7265625
I2
I1
I0
tp163
a(I41
F32099.375
I3
I0
I0
tp164
a(I42
F32419.6875
I4
I1
I0
tp165
a(I43
F32740
I1
I1
I0
tp166
a(I44
F33379.6484375
I1
I0
I0
tp167
a(I45
F34019.296875
I3
I1
I0
tp168
a(I46
F34659.921875
I4
I1
I0
tp169
a(I47
F34979.2578125
I2
I1
I0
tp170
a(I48
F35299.5703125
I3
I0
I0
tp171
a(I49
F35939.21875
I2
I0
I0
tp172
a(I50
F36579.84375
I1
I0
I0
tp173
a(I51
F37219.4921875
I3
I0
I0
tp174
a(I52
F37539.8046875
I2
I1
I0
tp175
a(I53
F37859.140625
I4
I1
I0
tp176
a(I54
F38499.765625
I3
I1
I0
tp177
a(I55
F39779.0625
I1
I1
I0
tp178
a(I56
F41059.3359375
I3
I1
I0
tp179
a(I57
F42339.609375
I2
I1
I0
tp180
a(I58
F43619.8828125
I1
I1
I0
tp181
a(I59
F43619.8828125
I4
I1
I0
tp182
a(I60
F44259.53125
I2
I0
I0
tp183
a(I61
F44259.53125
I4
I0
I0
tp184
a(I62
F44899.1796875
I2
I1
I0
tp185
a(I63
F44899.1796875
I3
I1
I0
tp186
a(I64
F45539.8046875
I1
I0
I0
tp187
a(I65
F45539.8046875
I3
I0
I0
tp188
a(I66
F46179.453125
I1
I0
I0
tp189
a(I67
F46179.453125
I4
I0
I0
tp190
a(I68
F46819.1015625
I2
I1
I0
tp191
a(I69
F46819.1015625
I4
I1
I0
tp192
a(I70
F47459.7265625
I2
I0
I0
tp193
a(I71
F47459.7265625
I3
I0
I0
tp194
a(I72
F48099.375
I1
I1
I0
tp195
a(I73
F48099.375
I3
I1
I0
tp196
a(I74
F48740
I3
I1
I0
tp197
a(I75
F49379.6484375
I4
I1
I0
tp198
a(I76
F50019.296875
I1
I1
I0
tp199
a(I77
F50659.921875
I1
I0
I0
tp200
a(I78
F51299.5703125
I3
I0
I0
tp201
a(I79
F51939.21875
I4
I1
I0
tp202
a(I80
F52579.84375
I2
I1
I0
tp203
a(I81
F53219.4921875
I2
I0
I0
tp204
a(I82
F53859.140625
I3
I1
I0
tp205
a(I83
F54499.765625
I3
I0
I0
tp206
a(I84
F55139.4140625
I1
I1
I0
tp207
a(I85
F55779.0625
I3
I1
I0
tp208
a(I86
F56419.6875
I4
I0
I0
tp209
a(I87
F57699.9609375
I1
I1
I0
tp210
a(I88
F58339.609375
I2
I1
I0
tp211
a(I89
F58979.2578125
I3
I1
I0
tp212
a(I90
F59619.8828125
I4
I1
I0
tp213
a(I91
F60259.53125
I1
I1
I0
tp214
a(I92
F60899.1796875
I1
I0
I0
tp215
a(I93
F61539.8046875
I3
I0
I0
tp216
a(I94
F62179.453125
I4
I1
I0
tp217
a(I95
F62819.1015625
I2
I1
I0
tp218
a(I96
F63459.7265625
I2
I0
I0
tp219
a(I97
F64099.375
I3
I1
I0
tp220
a(I98
F64740
I3
I0
I0
tp221
a(I99
F65379.6484375
I1
I1
I0
tp222
a(I100
F66019.296875
I3
I1
I0
tp223
a(I101
F66659.921875
I4
I0
I0
tp224
a(I102
F67939.21875
I1
I1
I0
tp225
a(I103
F68579.84375
I2
I1
I0
tp226
a(I104
F69219.4921875
I3
I1
I0
tp227
a(I105
F69859.140625
I2
I1
I0
tp228
a(I106
F70499.765625
I3
I0
I0
tp229
a(I107
F70819.1015625
I4
I1
I0
tp230
a(I108
F71139.4140625
I1
I1
I0
tp231
a(I109
F71779.0625
I1
I0
I0
tp232
a(I110
F72419.6875
I3
I1
I0
tp233
a(I111
F73059.3359375
I4
I1
I0
tp234
a(I112
F73379.6484375
I2
I1
I0
tp235
a(I113
F73699.9609375
I3
I0
I0
tp236
a(I114
F74339.609375
I2
I0
I0
tp237
a(I115
F74979.2578125
I1
I0
I0
tp238
a(I116
F75619.8828125
I3
I0
I0
tp239
a(I117
F75939.21875
I2
I1
I0
tp240
a(I118
F76259.53125
I4
I1
I0
tp241
a(I119
F76899.1796875
I3
I1
I0
tp242
a(I120
F78179.453125
I1
I1
I0
tp243
a(I121
F79459.7265625
I3
I1
I0
tp244
a(I122
F80740
I2
I1
I0
tp245
a(I123
F82019.296875
I1
I1
I0
tp246
a(I124
F82019.296875
I4
I1
I0
tp247
a(I125
F82659.921875
I2
I0
I0
tp248
a(I126
F82659.921875
I4
I0
I0
tp249
a(I127
F83299.5703125
I2
I1
I0
tp250
a(I128
F83299.5703125
I3
I1
I0
tp251
a(I129
F83939.21875
I1
I0
I0
tp252
a(I130
F83939.21875
I3
I0
I0
tp253
a(I131
F84579.84375
I1
I0
I0
tp254
a(I132
F84579.84375
I4
I0
I0
tp255
a(I133
F85219.4921875
I2
I1
I0
tp256
a(I134
F85219.4921875
I4
I1
I0
tp257
a(I135
F85859.140625
I2
I0
I0
tp258
a(I136
F85859.140625
I3
I0
I0
tp259
a(I137
F86499.765625
I1
I1
I0
tp260
a(I138
F86499.765625
I3
I1
I0
tp261
a(I139
F87139.4140625
I3
I1
I0
tp262
a(I140
F87779.0625
I4
I1
I0
tp263
a(I141
F88419.6875
I1
I1
I0
tp264
a(I142
F89059.3359375
I1
I0
I0
tp265
a(I143
F89699.9609375
I3
I0
I0
tp266
a(I144
F90339.609375
I4
I1
I0
tp267
a(I145
F90979.2578125
I2
I1
I0
tp268
a(I146
F91619.8828125
I2
I0
I0
tp269
a(I147
F92259.53125
I3
I1
I0
tp270
a(I148
F92899.1796875
I3
I0
I0
tp271
a(I149
F93539.8046875
I1
I1
I0
tp272
a(I150
F94179.453125
I3
I1
I0
tp273
a(I151
F94819.1015625
I4
I0
I0
tp274
a(I152
F96099.375
I1
I1
I0
tp275
a(I153
F96740
I2
I1
I0
tp276
a(I154
F97379.6484375
I1
I1
I0
tp277
a(I155
F97379.6484375
I2
I1
I0
tp278
a(I156
F98659.921875
I3
I1
I0
tp279
a(I157
F98659.921875
I4
I1
I0
tp280
a(I158
F99939.21875
I1
I1
I0
tp281
a(I159
F99939.21875
I2
I1
I0
tp282
aa(lp283
(I0
F240
I3
I1
I0
tp284
a(I1
F1379.6484375
I2
I1
I0
tp285
a(I2
F2659.921875
I3
I0
I0
tp286
a(I3
F3939.21875
I1
I0
I0
tp287
a(I4
F5219.4921875
I1
I1
I0
tp288
a(I5
F6499.765625
I3
I1
I0
tp289
a(I6
F7779.0625
I1
I0
I0
tp290
a(I7
F9059.3359375
I2
I1
I0
tp291
a(I8
F9699.9609375
I3
I0
I0
tp292
a(I9
F10339.609375
I3
I1
I0
tp293
a(I10
F10979.2578125
I4
I1
I0
tp294
a(I11
F11299.5703125
I2
I0
I0
tp295
a(I12
F11619.8828125
I1
I1
I0
tp296
a(I13
F12259.53125
I1
I0
I0
tp297
a(I14
F12579.84375
I2
I1
I0
tp298
a(I15
F12899.1796875
I3
I0
I0
tp299
a(I16
F13539.8046875
I4
I1
I0
tp300
a(I17
F13859.140625
I1
I0
I0
tp301
a(I18
F14179.453125
I2
I1
I0
tp302
a(I19
F14819.1015625
I2
I0
I0
tp303
a(I20
F15139.4140625
I1
I1
I0
tp304
a(I21
F15459.7265625
I3
I1
I0
tp305
a(I22
F16099.375
I3
I0
I0
tp306
a(I23
F16419.6875
I2
I1
I0
tp307
a(I24
F16740
I1
I1
I0
tp308
a(I25
F17379.6484375
I3
I1
I0
tp309
a(I26
F17699.9609375
I2
I0
I0
tp310
a(I27
F18019.296875
I4
I0
I0
tp311
a(I28
F19299.5703125
I1
I1
I0
tp312
a(I29
F19619.8828125
I3
I1
I0
tp313
a(I30
F19619.8828125
I4
I1
I0
tp314
a(I31
F19939.21875
I2
I1
I0
tp315
a(I32
F20259.53125
I3
I0
I0
tp316
a(I33
F20259.53125
I4
I0
I0
tp317
a(I34
F20579.84375
I3
I1
I0
tp318
a(I35
F21219.4921875
I4
I1
I0
tp319
a(I36
F21539.8046875
I2
I0
I0
tp320
a(I37
F21859.140625
I1
I1
I0
tp321
a(I38
F22499.765625
I1
I0
I0
tp322
a(I39
F22819.1015625
I2
I1
I0
tp323
a(I40
F23139.4140625
I3
I0
I0
tp324
a(I41
F23779.0625
I4
I1
I0
tp325
a(I42
F24099.375
I1
I0
I0
tp326
a(I43
F24419.6875
I2
I1
I0
tp327
a(I44
F25059.3359375
I2
I0
I0
tp328
a(I45
F25379.6484375
I1
I1
I0
tp329
a(I46
F25699.9609375
I3
I1
I0
tp330
a(I47
F26339.609375
I3
I0
I0
tp331
a(I48
F26659.921875
I2
I1
I0
tp332
a(I49
F26979.2578125
I1
I1
I0
tp333
a(I50
F27619.8828125
I3
I1
I0
tp334
a(I51
F27939.21875
I2
I0
I0
tp335
a(I52
F28259.53125
I4
I0
I0
tp336
a(I53
F29539.8046875
I1
I1
I0
tp337
a(I54
F29859.140625
I3
I1
I0
tp338
a(I55
F29859.140625
I4
I1
I0
tp339
a(I56
F30179.453125
I2
I1
I0
tp340
a(I57
F30499.765625
I3
I0
I0
tp341
a(I58
F30499.765625
I4
I0
I0
tp342
a(I59
F30819.1015625
I3
I1
I0
tp343
a(I60
F31459.7265625
I2
I1
I0
tp344
a(I61
F32099.375
I3
I0
I0
tp345
a(I62
F32419.6875
I4
I1
I0
tp346
a(I63
F32740
I1
I1
I0
tp347
a(I64
F32740
I3
I1
I0
tp348
a(I65
F33379.6484375
I1
I0
I0
tp349
a(I66
F34019.296875
I3
I1
I0
tp350
a(I67
F34659.921875
I4
I1
I0
tp351
a(I68
F34979.2578125
I2
I1
I0
tp352
a(I69
F35299.5703125
I1
I1
I0
tp353
a(I70
F35299.5703125
I4
I1
I0
tp354
a(I71
F35939.21875
I2
I0
I0
tp355
a(I72
F36579.84375
I1
I0
I0
tp356
a(I73
F37219.4921875
I3
I0
I0
tp357
a(I74
F37539.8046875
I2
I1
I0
tp358
a(I75
F37859.140625
I2
I1
I0
tp359
a(I76
F37859.140625
I3
I1
I0
tp360
a(I77
F38499.765625
I3
I1
I0
tp361
a(I78
F39779.0625
I2
I1
I0
tp362
a(I79
F39779.0625
I4
I1
I0
tp363
a(I80
F41059.3359375
I3
I1
I0
tp364
a(I81
F42339.609375
I2
I1
I0
tp365
a(I82
F43619.8828125
I1
I1
I0
tp366
a(I83
F43619.8828125
I4
I1
I0
tp367
a(I84
F44259.53125
I2
I0
I0
tp368
a(I85
F44259.53125
I4
I0
I0
tp369
a(I86
F44579.84375
I3
I1
I0
tp370
a(I87
F44899.1796875
I2
I1
I0
tp371
a(I88
F44899.1796875
I3
I1
I0
tp372
a(I89
F45539.8046875
I1
I0
I0
tp373
a(I90
F45539.8046875
I3
I0
I0
tp374
a(I91
F46179.453125
I1
I0
I0
tp375
a(I92
F46179.453125
I4
I0
I0
tp376
a(I93
F46819.1015625
I2
I1
I0
tp377
a(I94
F46819.1015625
I4
I1
I0
tp378
a(I95
F47139.4140625
I4
I1
I0
tp379
a(I96
F47459.7265625
I2
I0
I0
tp380
a(I97
F47459.7265625
I3
I0
I0
tp381
a(I98
F48099.375
I1
I1
I0
tp382
a(I99
F48099.375
I3
I1
I0
tp383
a(I100
F48740
I3
I1
I0
tp384
a(I101
F49379.6484375
I4
I1
I0
tp385
a(I102
F49699.9609375
I2
I0
I0
tp386
a(I103
F50019.296875
I1
I1
I0
tp387
a(I104
F50659.921875
I1
I0
I0
tp388
a(I105
F50979.2578125
I2
I1
I0
tp389
a(I106
F51299.5703125
I3
I0
I0
tp390
a(I107
F51939.21875
I4
I1
I0
tp391
a(I108
F52259.53125
I1
I0
I0
tp392
a(I109
F52579.84375
I2
I1
I0
tp393
a(I110
F53219.4921875
I2
I0
I0
tp394
a(I111
F53539.8046875
I1
I1
I0
tp395
a(I112
F53859.140625
I3
I1
I0
tp396
a(I113
F54499.765625
I3
I0
I0
tp397
a(I114
F54819.1015625
I2
I1
I0
tp398
a(I115
F55139.4140625
I1
I1
I0
tp399
a(I116
F55779.0625
I3
I1
I0
tp400
a(I117
F56099.375
I2
I0
I0
tp401
a(I118
F56419.6875
I4
I0
I0
tp402
a(I119
F57699.9609375
I1
I1
I0
tp403
a(I120
F58019.296875
I3
I1
I0
tp404
a(I121
F58019.296875
I4
I1
I0
tp405
a(I122
F58339.609375
I2
I1
I0
tp406
a(I123
F58659.921875
I3
I0
I0
tp407
a(I124
F58659.921875
I4
I0
I0
tp408
a(I125
F58979.2578125
I3
I1
I0
tp409
a(I126
F59619.8828125
I4
I1
I0
tp410
a(I127
F59939.21875
I2
I0
I0
tp411
a(I128
F60259.53125
I1
I1
I0
tp412
a(I129
F60899.1796875
I1
I0
I0
tp413
a(I130
F61219.4921875
I2
I1
I0
tp414
a(I131
F61539.8046875
I3
I0
I0
tp415
a(I132
F62179.453125
I4
I1
I0
tp416
a(I133
F62499.765625
I1
I0
I0
tp417
a(I134
F62819.1015625
I2
I1
I0
tp418
a(I135
F63459.7265625
I2
I0
I0
tp419
a(I136
F63779.0625
I1
I1
I0
tp420
a(I137
F64099.375
I3
I1
I0
tp421
a(I138
F64740
I3
I0
I0
tp422
a(I139
F65059.3359375
I2
I1
I0
tp423
a(I140
F65379.6484375
I1
I1
I0
tp424
a(I141
F66019.296875
I3
I1
I0
tp425
a(I142
F66339.609375
I2
I0
I0
tp426
a(I143
F66659.921875
I4
I0
I0
tp427
a(I144
F67939.21875
I1
I1
I0
tp428
a(I145
F68259.53125
I3
I1
I0
tp429
a(I146
F68259.53125
I4
I1
I0
tp430
a(I147
F68579.84375
I2
I1
I0
tp431
a(I148
F68899.1796875
I3
I0
I0
tp432
a(I149
F68899.1796875
I4
I0
I0
tp433
a(I150
F69219.4921875
I3
I1
I0
tp434
a(I151
F69859.140625
I2
I1
I0
tp435
a(I152
F70499.765625
I3
I0
I0
tp436
a(I153
F70819.1015625
I4
I1
I0
tp437
a(I154
F71139.4140625
I1
I1
I0
tp438
a(I155
F71139.4140625
I3
I1
I0
tp439
a(I156
F71779.0625
I1
I0
I0
tp440
a(I157
F72419.6875
I3
I1
I0
tp441
a(I158
F73059.3359375
I4
I1
I0
tp442
a(I159
F73379.6484375
I2
I1
I0
tp443
a(I160
F73699.9609375
I1
I1
I0
tp444
a(I161
F73699.9609375
I4
I1
I0
tp445
a(I162
F74339.609375
I2
I0
I0
tp446
a(I163
F74979.2578125
I1
I0
I0
tp447
a(I164
F75619.8828125
I3
I0
I0
tp448
a(I165
F75939.21875
I2
I1
I0
tp449
a(I166
F76259.53125
I2
I1
I0
tp450
a(I167
F76259.53125
I3
I1
I0
tp451
a(I168
F76899.1796875
I3
I1
I0
tp452
a(I169
F78179.453125
I2
I1
I0
tp453
a(I170
F78179.453125
I4
I1
I0
tp454
a(I171
F79459.7265625
I3
I1
I0
tp455
a(I172
F80740
I2
I1
I0
tp456
a(I173
F82019.296875
I1
I1
I0
tp457
a(I174
F82019.296875
I4
I1
I0
tp458
a(I175
F82659.921875
I2
I0
I0
tp459
a(I176
F82659.921875
I4
I0
I0
tp460
a(I177
F82979.2578125
I3
I1
I0
tp461
a(I178
F83299.5703125
I2
I1
I0
tp462
a(I179
F83299.5703125
I3
I1
I0
tp463
a(I180
F83939.21875
I1
I0
I0
tp464
a(I181
F83939.21875
I3
I0
I0
tp465
a(I182
F84579.84375
I1
I0
I0
tp466
a(I183
F84579.84375
I4
I0
I0
tp467
a(I184
F85219.4921875
I2
I1
I0
tp468
a(I185
F85219.4921875
I4
I1
I0
tp469
a(I186
F85539.8046875
I4
I1
I0
tp470
a(I187
F85859.140625
I2
I0
I0
tp471
a(I188
F85859.140625
I3
I0
I0
tp472
a(I189
F86499.765625
I1
I1
I0
tp473
a(I190
F86499.765625
I3
I1
I0
tp474
a(I191
F87139.4140625
I3
I1
I0
tp475
a(I192
F87779.0625
I4
I1
I0
tp476
a(I193
F88099.375
I2
I0
I0
tp477
a(I194
F88419.6875
I1
I1
I0
tp478
a(I195
F89059.3359375
I1
I0
I0
tp479
a(I196
F89379.6484375
I2
I1
I0
tp480
a(I197
F89699.9609375
I3
I0
I0
tp481
a(I198
F90339.609375
I4
I1
I0
tp482
a(I199
F90659.921875
I1
I0
I0
tp483
a(I200
F90979.2578125
I2
I1
I0
tp484
a(I201
F91619.8828125
I2
I0
I0
tp485
a(I202
F91939.21875
I1
I1
I0
tp486
a(I203
F92259.53125
I3
I1
I0
tp487
a(I204
F92899.1796875
I3
I0
I0
tp488
a(I205
F93219.4921875
I2
I1
I0
tp489
a(I206
F93539.8046875
I1
I1
I0
tp490
a(I207
F94179.453125
I3
I1
I0
tp491
a(I208
F94499.765625
I2
I0
I0
tp492
a(I209
F94819.1015625
I4
I0
I0
tp493
a(I210
F96099.375
I1
I1
I0
tp494
a(I211
F96419.6875
I3
I1
I0
tp495
a(I212
F96419.6875
I4
I1
I0
tp496
a(I213
F96740
I2
I1
I0
tp497
a(I214
F97059.3359375
I3
I0
I0
tp498
a(I215
F97059.3359375
I4
I0
I0
tp499
a(I216
F97379.6484375
I1
I1
I0
tp500
a(I217
F97379.6484375
I2
I1
I0
tp501
a(I218
F97699.9609375
I2
I1
I0
tp502
a(I219
F98019.296875
I1
I1
I0
tp503
a(I220
F98179.453125
I2
I1
I0
tp504
a(I221
F98339.609375
I3
I1
I0
tp505
a(I222
F98659.921875
I3
I1
I0
tp506
a(I223
F98659.921875
I4
I1
I0
tp507
a(I224
F98979.2578125
I3
I1
I0
tp508
a(I225
F99299.5703125
I4
I1
I0
tp509
a(I226
F99459.7265625
I3
I1
I0
tp510
a(I227
F99619.8828125
I2
I1
I0
tp511
a(I228
F99939.21875
I1
I1
I0
tp512
a(I229
F99939.21875
I2
I1
I0
tp513
aa.