(lp1
(lp2
(I0
F139.61999261724824
I3
I0
I0
tp3
a(I1
F974.19313840669099
I2
I0
I0
tp4
a(I2
F3367.8696755717438
I1
I0
I0
tp5
a(I3
F4863.6740535560884
I3
I1
I0
tp6
a(I4
F5760.5723817615462
I2
I1
I0
tp7
a(I5
F8154.248918926598
I1
I1
I0
tp8
a(I6
F9650.0532969109445
I3
I0
I0
tp9
a(I7
F10547.925456091652
I4
I0
I0
tp10
a(I8
F10846.89156549347
I1
I1
I0
tp11
a(I9
F12043.729834075995
I2
I0
I0
tp12
a(I10
F12940.628162281455
I3
I1
I0
tp13
a(I11
F13239.594271683272
I4
I1
I0
tp14
a(I12
F14436.4325402658
I2
I0
I0
tp15
a(I13
F14885.368619856154
I3
I0
I0
tp16
a(I14
F15932.236918250146
I4
I1
I0
tp17
a(I15
F16381.172997840496
I1
I1
I0
tp18
a(I16
F16830.10907743085
I2
I1
I0
tp19
a(I17
F17279.045157021203
I3
I1
I0
tp20
a(I18
F18325.913455415193
I1
I0
I0
tp21
a(I19
F18325.913455415193
I2
I0
I0
tp22
a(I20
F18774.849535005553
I1
I0
I0
tp23
a(I21
F18774.849535005553
I2
I0
I0
tp24
a(I22
F19222.811783620655
I3
I0
I0
tp25
a(I23
F20120.683942801363
I4
I0
I0
tp26
a(I24
F20419.650052203178
I1
I1
I0
tp27
a(I25
F21616.488320785709
I2
I0
I0
tp28
a(I26
F22514.360479966414
I3
I1
I0
tp29
a(I27
F22813.326589368233
I4
I1
I0
tp30
a(I28
F24010.16485795076
I2
I0
I0
tp31
a(I29
F24458.127106565862
I3
I0
I0
tp32
a(I30
F24907.063186156218
I4
I1
I0
tp33
a(I31
F25206.029295558037
I1
I1
I0
tp34
a(I32
F25654.965375148389
I2
I1
I0
tp35
a(I33
F26103.901454738741
I4
I0
I0
tp36
a(I34
F26402.867564140561
I3
I1
I0
tp37
a(I35
F26552.837534329101
I3
I0
I0
tp38
a(I36
F26851.803643730913
I3
I1
I0
tp39
a(I37
F27150.769753132736
I3
I0
I0
tp40
a(I38
F27449.735862534555
I3
I1
I0
tp41
a(I39
F27599.705832723092
I3
I0
I0
tp42
aa(lp43
(I0
F139.61999261724824
I3
I0
I0
tp44
a(I1
F525.25705881633723
I2
I0
I0
tp45
a(I2
F974.19313840669099
I4
I0
I0
tp46
a(I3
F1423.1292179970444
I1
I0
I0
tp47
a(I4
F1872.0652975873984
I3
I1
I0
tp48
a(I5
F2171.0314069892179
I2
I1
I0
tp49
a(I6
F2469.9975163910367
I3
I0
I0
tp50
a(I7
F2918.9335959813902
I1
I1
I0
tp51
a(I8
F3367.8696755717438
I4
I1
I0
tp52
a(I9
F3816.8057551620973
I2
I0
I0
tp53
a(I10
F4264.7680037771997
I3
I1
I0
tp54
a(I11
F4863.6740535560884
I3
I0
I0
tp55
a(I12
F5312.6101331464433
I2
I0
I0
tp56
a(I13
F5760.5723817615462
I4
I0
I0
tp57
a(I14
F6209.5084613519002
I1
I0
I0
tp58
a(I15
F6658.4445409422533
I3
I1
I0
tp59
a(I16
F6957.4106503440726
I2
I1
I0
tp60
a(I17
F7256.3767597458918
I3
I0
I0
tp61
a(I18
F7705.3128393362449
I1
I1
I0
tp62
a(I19
F8154.248918926598
I4
I1
I0
tp63
a(I20
F8453.2150283284191
I2
I0
I0
tp64
a(I21
F8902.1511079187731
I3
I1
I0
tp65
a(I22
F9351.0871875091252
I2
I1
I0
tp66
a(I23
F9650.0532969109445
I3
I1
I0
tp67
a(I24
F10547.925456091652
I4
I0
I0
tp68
a(I25
F10846.89156549347
I1
I0
I0
tp69
a(I26
F11295.827645083824
I4
I0
I0
tp70
a(I27
F11743.789893698928
I3
I0
I0
tp71
a(I28
F12043.729834075995
I2
I1
I0
tp72
a(I29
F12940.628162281455
I3
I1
I0
tp73
a(I30
F13239.594271683272
I4
I1
I0
tp74
a(I31
F13688.530351273626
I1
I1
I0
tp75
a(I32
F14137.46643086398
I4
I0
I0
tp76
a(I33
F14436.4325402658
I2
I0
I0
tp77
a(I34
F14885.368619856154
I3
I0
I0
tp78
a(I35
F15932.236918250146
I4
I1
I0
tp79
a(I36
F16381.172997840496
I1
I1
I0
tp80
a(I37
F16830.10907743085
I2
I1
I0
tp81
a(I38
F17279.045157021203
I3
I1
I0
tp82
a(I39
F18325.913455415193
I1
I0
I0
tp83
a(I40
F18325.913455415193
I2
I0
I0
tp84
a(I41
F18774.849535005553
I1
I0
I0
tp85
a(I42
F18774.849535005553
I2
I0
I0
tp86
a(I43
F19222.811783620655
I3
I1
I0
tp87
a(I44
F20120.683942801363
I4
I0
I0
tp88
a(I45
F20419.650052203178
I1
I0
I0
tp89
a(I46
F20868.586131793534
I4
I0
I0
tp90
a(I47
F21317.522211383886
I3
I0
I0
tp91
a(I48
F21616.488320785709
I2
I1
I0
tp92
a(I49
F22514.360479966414
I3
I1
I0
tp93
a(I50
F22813.326589368233
I4
I1
I0
tp94
a(I51
F23262.262668958585
I1
I1
I0
tp95
a(I52
F23710.224917573691
I4
I0
I0
tp96
a(I53
F24010.16485795076
I2
I0
I0
tp97
a(I54
F24458.127106565862
I3
I0
I0
tp98
a(I55
F24907.063186156218
I4
I1
I0
tp99
a(I56
F25206.029295558037
I1
I1
I0
tp100
a(I57
F25654.965375148389
I2
I1
I0
tp101
a(I58
F26103.901454738741
I4
I0
I0
tp102
a(I59
F26402.867564140561
I3
I1
I0
tp103
a(I60
F26552.837534329101
I3
I0
I0
tp104
a(I61
F26851.803643730913
I3
I1
I0
tp105
a(I62
F27150.769753132736
I3
I0
I0
tp106
a(I63
F27449.735862534555
I3
I1
I0
tp107
a(I64
F27599.705832723092
I3
I0
I0
tp108
aa(lp109
(I0
F139.61999261724824
I1
I1
I0
tp110
a(I1
F139.61999261724824
I4
I1
I0
tp111
a(I2
F525.25705881633723
I2
I0
I0
tp112
a(I3
F974.19313840669099
I1
I0
I0
tp113
a(I4
F974.19313840669099
I3
I0
I0
tp114
a(I5
F1423.1292179970444
I1
I0
I0
tp115
a(I6
F1872.0652975873984
I3
I0
I0
tp116
a(I7
F2171.0314069892179
I2
I1
I0
tp117
a(I8
F2469.9975163910367
I3
I0
I0
tp118
a(I9
F2469.9975163910367
I4
I0
I0
tp119
a(I10
F2918.9335959813902
I1
I1
I0
tp120
a(I11
F3367.8696755717438
I2
I1
I0
tp121
a(I12
F3367.8696755717438
I4
I1
I0
tp122
a(I13
F3816.8057551620973
I2
I0
I0
tp123
a(I14
F4264.7680037771997
I3
I1
I0
tp124
a(I15
F4863.6740535560884
I1
I0
I0
tp125
a(I16
F4863.6740535560884
I4
I0
I0
tp126
a(I17
F5312.6101331464433
I2
I0
I0
tp127
a(I18
F5760.5723817615462
I1
I1
I0
tp128
a(I19
F5760.5723817615462
I3
I1
I0
tp129
a(I20
F6209.5084613519002
I1
I0
I0
tp130
a(I21
F6658.4445409422533
I3
I1
I0
tp131
a(I22
F6957.4106503440726
I2
I1
I0
tp132
a(I23
F7256.3767597458918
I3
I1
I0
tp133
a(I24
F7256.3767597458918
I4
I1
I0
tp134
a(I25
F7705.3128393362449
I1
I1
I0
tp135
a(I26
F8154.248918926598
I2
I1
I0
tp136
a(I27
F8154.248918926598
I4
I1
I0
tp137
a(I28
F8453.2150283284191
I2
I0
I0
tp138
a(I29
F8902.1511079187731
I3
I1
I0
tp139
a(I30
F9351.0871875091252
I2
I1
I0
tp140
a(I31
F9650.0532969109445
I3
I1
I0
tp141
a(I32
F9949.0194063127656
I1
I1
I0
tp142
a(I33
F10098.989376501298
I2
I1
I0
tp143
a(I34
F10547.925456091652
I4
I0
I0
tp144
a(I35
F10846.89156549347
I1
I0
I0
tp145
a(I36
F11295.827645083824
I4
I0
I0
tp146
a(I37
F11743.789893698928
I3
I0
I0
tp147
a(I38
F12043.729834075995
I4
I1
I0
tp148
a(I39
F12342.695943477816
I1
I1
I0
tp149
a(I40
F12491.692082691099
I2
I1
I0
tp150
a(I41
F12940.628162281455
I3
I1
I0
tp151
a(I42
F13239.594271683272
I4
I1
I0
tp152
a(I43
F13688.530351273626
I1
I1
I0
tp153
a(I44
F14137.46643086398
I4
I0
I0
tp154
a(I45
F14436.4325402658
I1
I1
I0
tp155
a(I46
F14436.4325402658
I4
I1
I0
tp156
a(I47
F14885.368619856154
I3
I0
I0
tp157
a(I48
F15334.304699446506
I2
I1
I0
tp158
a(I49
F15633.270808848325
I1
I1
I0
tp159
a(I50
F15932.236918250146
I4
I1
I0
tp160
a(I51
F16381.172997840496
I1
I1
I0
tp161
a(I52
F16830.10907743085
I2
I1
I0
tp162
a(I53
F16830.10907743085
I3
I1
I0
tp163
a(I54
F17279.045157021203
I3
I1
I0
tp164
a(I55
F18325.913455415193
I2
I1
I0
tp165
a(I56
F18325.913455415193
I4
I1
I0
tp166
a(I57
F18774.849535005553
I1
I1
I0
tp167
a(I58
F18774.849535005553
I3
I1
I0
tp168
a(I59
F19222.811783620655
I3
I1
I0
tp169
a(I60
F19522.751723997724
I1
I1
I0
tp170
a(I61
F19671.747863211007
I2
I1
I0
tp171
a(I62
F20120.683942801363
I4
I0
I0
tp172
a(I63
F20419.650052203178
I1
I0
I0
tp173
a(I64
F20868.586131793534
I4
I0
I0
tp174
a(I65
F21317.522211383886
I3
I0
I0
tp175
a(I66
F21616.488320785709
I4
I1
I0
tp176
a(I67
F21915.454430187525
I1
I1
I0
tp177
a(I68
F22065.424400376058
I2
I1
I0
tp178
a(I69
F22514.360479966414
I3
I1
I0
tp179
a(I70
F22813.326589368233
I4
I1
I0
tp180
a(I71
F23262.262668958585
I1
I1
I0
tp181
a(I72
F23710.224917573691
I4
I0
I0
tp182
a(I73
F24010.16485795076
I2
I0
I0
tp183
a(I74
F24309.130967352579
I4
I1
I0
tp184
a(I75
F24458.127106565862
I3
I0
I0
tp185
a(I76
F24758.067046942931
I2
I1
I0
tp186
a(I77
F24907.063186156218
I4
I1
I0
tp187
a(I78
F25206.029295558037
I1
I1
I0
tp188
a(I79
F25505.969235935107
I3
I1
I0
tp189
a(I80
F25654.965375148389
I2
I1
I0
tp190
a(I81
F25953.931484550212
I3
I1
I0
tp191
a(I82
F26103.901454738741
I4
I0
I0
tp192
a(I83
F26402.867564140561
I1
I0
I0
tp193
a(I84
F26402.867564140561
I3
I0
I0
tp194
a(I85
F26552.837534329101
I1
I0
I0
tp195
a(I86
F26552.837534329101
I4
I0
I0
tp196
a(I87
F26851.803643730913
I2
I1
I0
tp197
a(I88
F26851.803643730913
I3
I1
I0
tp198
a(I89
F27150.769753132736
I2
I0
I0
tp199
a(I90
F27150.769753132736
I4
I0
I0
tp200
a(I91
F27449.735862534555
I2
I1
I0
tp201
a(I92
F27449.735862534555
I3
I1
I0
tp202
a(I93
F27599.705832723092
I1
I1
I0
tp203
a(I94
F27599.705832723092
I3
I1
I0
tp204
aa.