(lp1
(lp2
(I0
F220
I3
I1
I0
tp3
a(I1
F839.140625
I4
I0
I0
tp4
a(I2
F2039.3359375
I2
I1
I0
tp5
a(I3
F2759.0625
I1
I0
I0
tp6
a(I4
F3959.2578125
I3
I0
I0
tp7
a(I5
F4679.9609375
I4
I1
I0
tp8
a(I6
F5879.1796875
I2
I0
I0
tp9
a(I7
F6599.8828125
I1
I1
I0
tp10
a(I8
F7799.1015625
I3
I1
I0
tp11
a(I9
F8759.0625
I1
I1
I0
tp12
a(I10
F9720
I4
I1
I0
tp13
a(I11
F10679.9609375
I2
I1
I0
tp14
a(I12
F11639.921875
I3
I0
I0
tp15
a(I13
F12599.8828125
I1
I0
I0
tp16
a(I14
F13559.84375
I4
I0
I0
tp17
a(I15
F14519.8046875
I2
I0
I0
tp18
a(I16
F15479.765625
I3
I1
I0
tp19
a(I17
F16439.7265625
I2
I1
I0
tp20
a(I18
F17399.6875
I4
I1
I0
tp21
a(I19
F18359.6484375
I1
I1
I0
tp22
a(I20
F19319.609375
I3
I0
I0
tp23
a(I21
F20279.5703125
I2
I0
I0
tp24
a(I22
F21239.53125
I4
I0
I0
tp25
a(I23
F22199.4921875
I1
I0
I0
tp26
a(I24
F22679.9609375
I3
I1
I0
tp27
a(I25
F23159.453125
I3
I0
I0
tp28
a(I26
F23879.1796875
I4
I1
I0
tp29
a(I27
F24599.8828125
I2
I1
I0
tp30
a(I28
F25079.375
I3
I1
I0
tp31
a(I29
F25799.1015625
I4
I0
I0
tp32
a(I30
F26519.8046875
I1
I1
I0
tp33
a(I31
F26999.296875
I3
I0
I0
tp34
a(I32
F27720
I1
I0
I0
tp35
a(I33
F28199.4921875
I2
I0
I0
tp36
a(I34
F28439.7265625
I3
I1
I0
tp37
a(I35
F28919.21875
I3
I1
I0
tp38
a(I36
F28919.21875
I4
I1
I0
tp39
a(I37
F29639.921875
I3
I0
I0
tp40
a(I38
F30119.4140625
I2
I1
I0
tp41
a(I39
F30359.6484375
I1
I1
I0
tp42
a(I40
F30839.140625
I3
I0
I0
tp43
a(I41
F31559.84375
I4
I1
I0
tp44
a(I42
F32279.5703125
I2
I1
I0
tp45
a(I43
F32759.0625
I3
I1
I0
tp46
a(I44
F33479.765625
I4
I0
I0
tp47
a(I45
F34199.4921875
I1
I1
I0
tp48
a(I46
F34679.9609375
I3
I0
I0
tp49
a(I47
F35399.6875
I1
I0
I0
tp50
a(I48
F35879.1796875
I2
I0
I0
tp51
a(I49
F36119.4140625
I3
I1
I0
tp52
a(I50
F36599.8828125
I3
I1
I0
tp53
a(I51
F36599.8828125
I4
I1
I0
tp54
a(I52
F37319.609375
I3
I0
I0
tp55
a(I53
F37799.1015625
I2
I1
I0
tp56
a(I54
F38039.3359375
I1
I1
I0
tp57
a(I55
F40439.7265625
I3
I1
I0
tp58
a(I56
F40679.9609375
I2
I0
I0
tp59
a(I57
F41159.453125
I2
I1
I0
tp60
a(I58
F42359.6484375
I1
I1
I0
tp61
a(I59
F42359.6484375
I2
I1
I0
tp62
a(I60
F43079.375
I3
I1
I0
tp63
a(I61
F43079.375
I4
I1
I0
tp64
a(I62
F44279.5703125
I3
I0
I0
tp65
a(I63
F44759.0625
I2
I0
I0
tp66
a(I64
F45479.765625
I4
I1
I0
tp67
a(I65
F46199.4921875
I3
I1
I0
tp68
a(I66
F47159.453125
I2
I1
I0
tp69
a(I67
F48119.4140625
I4
I1
I0
tp70
a(I68
F49079.375
I1
I1
I0
tp71
a(I69
F50039.3359375
I3
I0
I0
tp72
a(I70
F50999.296875
I2
I0
I0
tp73
a(I71
F51959.2578125
I4
I0
I0
tp74
a(I72
F52919.21875
I1
I0
I0
tp75
a(I73
F53399.6875
I3
I1
I0
tp76
a(I74
F53879.1796875
I3
I1
I0
tp77
a(I75
F54839.140625
I2
I1
I0
tp78
a(I76
F55799.1015625
I4
I1
I0
tp79
a(I77
F56759.0625
I1
I1
I0
tp80
a(I78
F57720
I3
I0
I0
tp81
a(I79
F58679.9609375
I2
I0
I0
tp82
a(I80
F59639.921875
I4
I0
I0
tp83
a(I81
F60599.8828125
I1
I0
I0
tp84
a(I82
F61079.375
I3
I1
I0
tp85
a(I83
F63479.765625
I3
I1
I0
tp86
a(I84
F63720
I2
I0
I0
tp87
a(I85
F64199.4921875
I2
I1
I0
tp88
a(I86
F65399.6875
I1
I1
I0
tp89
a(I87
F65399.6875
I2
I1
I0
tp90
a(I88
F66119.4140625
I3
I1
I0
tp91
a(I89
F66119.4140625
I4
I1
I0
tp92
a(I90
F67319.609375
I3
I0
I0
tp93
a(I91
F67799.1015625
I2
I0
I0
tp94
a(I92
F68519.8046875
I4
I1
I0
tp95
a(I93
F69239.53125
I2
I0
I0
tp96
a(I94
F69720
I2
I1
I0
tp97
a(I95
F70199.4921875
I4
I0
I0
tp98
a(I96
F70919.21875
I1
I0
I0
tp99
a(I97
F71159.453125
I3
I0
I0
tp100
a(I98
F72119.4140625
I3
I1
I0
tp101
a(I99
F72599.8828125
I2
I1
I0
tp102
a(I100
F73079.375
I4
I1
I0
tp103
a(I101
F73559.84375
I2
I0
I0
tp104
a(I102
F74039.3359375
I3
I0
I0
tp105
a(I103
F74999.296875
I1
I1
I0
tp106
a(I104
F75479.765625
I3
I1
I0
tp107
a(I105
F75959.2578125
I1
I0
I0
tp108
a(I106
F76439.7265625
I4
I1
I0
tp109
a(I107
F76919.21875
I2
I0
I0
tp110
a(I108
F77399.6875
I2
I1
I0
tp111
a(I109
F77879.1796875
I4
I0
I0
tp112
a(I110
F78599.8828125
I1
I0
I0
tp113
a(I111
F78839.140625
I3
I0
I0
tp114
a(I112
F79799.1015625
I3
I1
I0
tp115
a(I113
F80279.5703125
I2
I1
I0
tp116
a(I114
F80759.0625
I4
I1
I0
tp117
a(I115
F81239.53125
I2
I0
I0
tp118
a(I116
F81720
I3
I0
I0
tp119
a(I117
F82679.9609375
I1
I1
I0
tp120
a(I118
F83159.453125
I3
I1
I0
tp121
a(I119
F83639.921875
I1
I0
I0
tp122
a(I120
F84119.4140625
I4
I1
I0
tp123
a(I121
F84599.8828125
I3
I0
I0
tp124
a(I122
F85319.609375
I4
I1
I0
tp125
a(I123
F86039.3359375
I2
I1
I0
tp126
a(I124
F86519.8046875
I3
I1
I0
tp127
a(I125
F87239.53125
I4
I0
I0
tp128
a(I126
F87959.2578125
I1
I1
I0
tp129
a(I127
F88439.7265625
I3
I0
I0
tp130
a(I128
F89159.453125
I1
I0
I0
tp131
a(I129
F89639.921875
I2
I0
I0
tp132
a(I130
F89879.1796875
I3
I1
I0
tp133
a(I131
F90359.6484375
I3
I1
I0
tp134
a(I132
F90359.6484375
I4
I1
I0
tp135
a(I133
F91079.375
I3
I0
I0
tp136
a(I134
F91559.84375
I2
I1
I0
tp137
a(I135
F91799.1015625
I1
I1
I0
tp138
a(I136
F92279.5703125
I3
I0
I0
tp139
a(I137
F92999.296875
I4
I1
I0
tp140
a(I138
F93720
I2
I1
I0
tp141
a(I139
F94199.4921875
I3
I1
I0
tp142
a(I140
F94919.21875
I4
I0
I0
tp143
a(I141
F95639.921875
I1
I1
I0
tp144
a(I142
F96119.4140625
I3
I0
I0
tp145
a(I143
F96839.140625
I1
I0
I0
tp146
a(I144
F97319.609375
I2
I0
I0
tp147
a(I145
F97559.84375
I3
I1
I0
tp148
a(I146
F98039.3359375
I3
I1
I0
tp149
a(I147
F98039.3359375
I4
I1
I0
tp150
a(I148
F98759.0625
I3
I0
I0
tp151
a(I149
F99239.53125
I2
I1
I0
tp152
a(I150
F99479.765625
I1
I1
I0
tp153
a(I151
F99959.2578125
I3
I1
I0
tp154
a(I152
F100439.7265625
I1
I1
I0
tp155
a(I153
F100919.21875
I2
I0
I0
tp156
a(I154
F101399.6875
I1
I0
I0
tp157
a(I155
F101879.1796875
I4
I1
I0
tp158
a(I156
F102359.6484375
I1
I1
I0
tp159
a(I157
F102839.140625
I2
I1
I0
tp160
a(I158
F103319.609375
I1
I0
I0
tp161
a(I159
F103799.1015625
I3
I0
I0
tp162
a(I160
F104279.5703125
I1
I1
I0
tp163
a(I161
F104759.0625
I2
I1
I0
tp164
a(I162
F105239.53125
I1
I1
I0
tp165
a(I163
F105720
I4
I1
I0
tp166
a(I164
F106199.4921875
I3
I1
I0
tp167
a(I165
F106679.9609375
I3
I0
I0
tp168
a(I166
F107639.921875
I3
I1
I0
tp169
a(I167
F108119.4140625
I1
I1
I0
tp170
a(I168
F108599.8828125
I2
I0
I0
tp171
a(I169
F109079.375
I1
I0
I0
tp172
a(I170
F109559.84375
I4
I1
I0
tp173
a(I171
F110039.3359375
I1
I1
I0
tp174
a(I172
F110519.8046875
I2
I1
I0
tp175
a(I173
F110999.296875
I1
I0
I0
tp176
a(I174
F111479.765625
I3
I0
I0
tp177
a(I175
F111959.2578125
I1
I1
I0
tp178
a(I176
F112439.7265625
I2
I1
I0
tp179
a(I177
F112919.21875
I1
I1
I0
tp180
a(I178
F113399.6875
I4
I1
I0
tp181
a(I179
F113879.1796875
I3
I1
I0
tp182
a(I180
F114359.6484375
I3
I0
I0
tp183
a(I181
F115319.609375
I2
I0
I0
tp184
a(I182
F115799.1015625
I1
I0
I0
tp185
a(I183
F116279.5703125
I3
I0
I0
tp186
a(I184
F116759.0625
I4
I0
I0
tp187
a(I185
F117239.53125
I2
I1
I0
tp188
a(I186
F117720
I1
I1
I0
tp189
a(I187
F118199.4921875
I3
I1
I0
tp190
a(I188
F119159.453125
I3
I1
I0
tp191
a(I189
F119639.921875
I3
I1
I0
tp192
a(I190
F120119.4140625
I4
I1
I0
tp193
a(I191
F120599.8828125
I3
I1
I0
tp194
a(I192
F121079.375
I1
I0
I0
tp195
a(I193
F121559.84375
I2
I0
I0
tp196
a(I194
F122039.3359375
I1
I0
I0
tp197
a(I195
F122999.296875
I2
I0
I0
tp198
a(I196
F123479.765625
I1
I0
I0
tp199
a(I197
F123959.2578125
I3
I0
I0
tp200
a(I198
F124439.7265625
I4
I0
I0
tp201
a(I199
F124919.21875
I2
I1
I0
tp202
a(I200
F125399.6875
I1
I1
I0
tp203
a(I201
F125879.1796875
I3
I1
I0
tp204
a(I202
F126839.140625
I3
I1
I0
tp205
a(I203
F127319.609375
I3
I1
I0
tp206
a(I204
F127799.1015625
I4
I1
I0
tp207
a(I205
F128279.5703125
I3
I1
I0
tp208
a(I206
F128759.0625
I1
I0
I0
tp209
a(I207
F129239.53125
I2
I0
I0
tp210
a(I208
F129720
I1
I0
I0
tp211
a(I209
F130679.9609375
I3
I1
I0
tp212
a(I210
F131639.921875
I2
I1
I0
tp213
a(I211
F132599.8828125
I4
I1
I0
tp214
a(I212
F133559.84375
I1
I1
I0
tp215
a(I213
F134519.8046875
I3
I0
I0
tp216
a(I214
F135479.765625
I2
I0
I0
tp217
a(I215
F136439.7265625
I4
I0
I0
tp218
a(I216
F137399.6875
I1
I0
I0
tp219
a(I217
F137879.1796875
I3
I1
I0
tp220
a(I218
F138359.6484375
I3
I1
I0
tp221
a(I219
F139079.375
I4
I0
I0
tp222
a(I220
F140279.5703125
I2
I1
I0
tp223
a(I221
F140999.296875
I1
I0
I0
tp224
a(I222
F142199.4921875
I3
I0
I0
tp225
a(I223
F142919.21875
I4
I1
I0
tp226
a(I224
F144119.4140625
I2
I0
I0
tp227
a(I225
F144839.140625
I1
I1
I0
tp228
aa(lp229
(I0
F220
I3
I1
I0
tp230
a(I1
F839.140625
I4
I0
I0
tp231
a(I2
F2039.3359375
I2
I1
I0
tp232
a(I3
F2279.5703125
I3
I0
I0
tp233
a(I4
F2759.0625
I1
I0
I0
tp234
a(I5
F3959.2578125
I3
I0
I0
tp235
a(I6
F4679.9609375
I4
I1
I0
tp236
a(I7
F5879.1796875
I2
I0
I0
tp237
a(I8
F6119.4140625
I3
I1
I0
tp238
a(I9
F6599.8828125
I1
I1
I0
tp239
a(I10
F7799.1015625
I3
I1
I0
tp240
a(I11
F8279.5703125
I1
I1
I0
tp241
a(I12
F8519.8046875
I4
I1
I0
tp242
a(I13
F9239.53125
I2
I1
I0
tp243
a(I14
F9720
I3
I0
I0
tp244
a(I15
F10199.4921875
I1
I0
I0
tp245
a(I16
F10679.9609375
I2
I1
I0
tp246
a(I17
F11639.921875
I3
I0
I0
tp247
a(I18
F11879.1796875
I3
I1
I0
tp248
a(I19
F12359.6484375
I1
I1
I0
tp249
a(I20
F13079.375
I2
I1
I0
tp250
a(I21
F13559.84375
I3
I0
I0
tp251
a(I22
F14039.3359375
I1
I0
I0
tp252
a(I23
F14519.8046875
I4
I1
I0
tp253
a(I24
F14759.0625
I1
I1
I0
tp254
a(I25
F14999.296875
I2
I1
I0
tp255
a(I26
F15479.765625
I3
I1
I0
tp256
a(I27
F15959.2578125
I1
I1
I0
tp257
a(I28
F16199.4921875
I4
I1
I0
tp258
a(I29
F16919.21875
I2
I1
I0
tp259
a(I30
F17399.6875
I3
I0
I0
tp260
a(I31
F17879.1796875
I1
I0
I0
tp261
a(I32
F18359.6484375
I2
I1
I0
tp262
a(I33
F19319.609375
I3
I0
I0
tp263
a(I34
F19559.84375
I3
I1
I0
tp264
a(I35
F20039.3359375
I1
I1
I0
tp265
a(I36
F20759.0625
I2
I1
I0
tp266
a(I37
F21239.53125
I3
I0
I0
tp267
a(I38
F21720
I1
I0
I0
tp268
a(I39
F22199.4921875
I4
I1
I0
tp269
a(I40
F22439.7265625
I1
I1
I0
tp270
a(I41
F22679.9609375
I2
I1
I0
tp271
a(I42
F23159.453125
I1
I1
I0
tp272
a(I43
F23159.453125
I4
I1
I0
tp273
a(I44
F23879.1796875
I4
I1
I0
tp274
a(I45
F24599.8828125
I2
I1
I0
tp275
a(I46
F25079.375
I2
I1
I0
tp276
a(I47
F25079.375
I3
I1
I0
tp277
a(I48
F25799.1015625
I4
I0
I0
tp278
a(I49
F26519.8046875
I1
I1
I0
tp279
a(I50
F26999.296875
I1
I1
I0
tp280
a(I51
F26999.296875
I3
I1
I0
tp281
a(I52
F27720
I1
I0
I0
tp282
a(I53
F28199.4921875
I2
I0
I0
tp283
a(I54
F28439.7265625
I3
I1
I0
tp284
a(I55
F28919.21875
I2
I0
I0
tp285
a(I56
F28919.21875
I4
I0
I0
tp286
a(I57
F29639.921875
I3
I0
I0
tp287
a(I58
F30119.4140625
I2
I1
I0
tp288
a(I59
F30359.6484375
I1
I1
I0
tp289
a(I60
F30839.140625
I1
I1
I0
tp290
a(I61
F30839.140625
I4
I1
I0
tp291
a(I62
F31559.84375
I4
I1
I0
tp292
a(I63
F32279.5703125
I2
I1
I0
tp293
a(I64
F32759.0625
I2
I1
I0
tp294
a(I65
F32759.0625
I3
I1
I0
tp295
a(I66
F33479.765625
I4
I0
I0
tp296
a(I67
F34199.4921875
I1
I1
I0
tp297
a(I68
F34679.9609375
I1
I1
I0
tp298
a(I69
F34679.9609375
I3
I1
I0
tp299
a(I70
F35399.6875
I1
I0
I0
tp300
a(I71
F35879.1796875
I2
I0
I0
tp301
a(I72
F36119.4140625
I3
I1
I0
tp302
a(I73
F36599.8828125
I2
I0
I0
tp303
a(I74
F36599.8828125
I4
I0
I0
tp304
a(I75
F37319.609375
I3
I0
I0
tp305
a(I76
F37799.1015625
I2
I1
I0
tp306
a(I77
F38039.3359375
I1
I1
I0
tp307
a(I78
F38519.8046875
I3
I1
I0
tp308
a(I79
F39239.53125
I3
I1
I0
tp309
a(I80
F40439.7265625
I3
I1
I0
tp310
a(I81
F40679.9609375
I2
I0
I0
tp311
a(I82
F41159.453125
I1
I1
I0
tp312
a(I83
F42359.6484375
I1
I1
I0
tp313
a(I84
F42359.6484375
I2
I1
I0
tp314
a(I85
F43079.375
I3
I1
I0
tp315
a(I86
F43079.375
I4
I1
I0
tp316
a(I87
F44279.5703125
I3
I0
I0
tp317
a(I88
F44519.8046875
I1
I0
I0
tp318
a(I89
F44759.0625
I2
I0
I0
tp319
a(I90
F45479.765625
I4
I1
I0
tp320
a(I91
F46199.4921875
I3
I1
I0
tp321
a(I92
F46679.9609375
I1
I1
I0
tp322
a(I93
F46919.21875
I4
I1
I0
tp323
a(I94
F47639.921875
I2
I1
I0
tp324
a(I95
F48119.4140625
I3
I0
I0
tp325
a(I96
F48599.8828125
I1
I0
I0
tp326
a(I97
F49079.375
I2
I1
I0
tp327
a(I98
F50039.3359375
I3
I0
I0
tp328
a(I99
F50279.5703125
I3
I1
I0
tp329
a(I100
F50759.0625
I1
I1
I0
tp330
a(I101
F51479.765625
I2
I1
I0
tp331
a(I102
F51959.2578125
I3
I0
I0
tp332
a(I103
F52439.7265625
I1
I0
I0
tp333
a(I104
F52919.21875
I4
I1
I0
tp334
a(I105
F53159.453125
I1
I1
I0
tp335
a(I106
F53399.6875
I2
I1
I0
tp336
a(I107
F53879.1796875
I3
I1
I0
tp337
a(I108
F54359.6484375
I1
I1
I0
tp338
a(I109
F54599.8828125
I4
I1
I0
tp339
a(I110
F55319.609375
I2
I1
I0
tp340
a(I111
F55799.1015625
I3
I0
I0
tp341
a(I112
F56279.5703125
I1
I0
I0
tp342
a(I113
F56759.0625
I2
I1
I0
tp343
a(I114
F57720
I3
I0
I0
tp344
a(I115
F57959.2578125
I3
I1
I0
tp345
a(I116
F58439.7265625
I1
I1
I0
tp346
a(I117
F59159.453125
I2
I1
I0
tp347
a(I118
F59639.921875
I3
I0
I0
tp348
a(I119
F60119.4140625
I1
I0
I0
tp349
a(I120
F60599.8828125
I4
I1
I0
tp350
a(I121
F60839.140625
I1
I1
I0
tp351
a(I122
F61079.375
I2
I1
I0
tp352
a(I123
F61559.84375
I3
I1
I0
tp353
a(I124
F62279.5703125
I3
I1
I0
tp354
a(I125
F63479.765625
I3
I1
I0
tp355
a(I126
F63720
I2
I0
I0
tp356
a(I127
F64199.4921875
I1
I1
I0
tp357
a(I128
F65399.6875
I1
I1
I0
tp358
a(I129
F65399.6875
I2
I1
I0
tp359
a(I130
F66119.4140625
I3
I1
I0
tp360
a(I131
F66119.4140625
I4
I1
I0
tp361
a(I132
F67319.609375
I3
I0
I0
tp362
a(I133
F67559.84375
I1
I0
I0
tp363
a(I134
F67799.1015625
I2
I0
I0
tp364
a(I135
F68519.8046875
I4
I1
I0
tp365
a(I136
F69239.53125
I2
I0
I0
tp366
a(I137
F69479.765625
I2
I1
I0
tp367
a(I138
F69720
I2
I1
I0
tp368
a(I139
F69959.2578125
I2
I1
I0
tp369
a(I140
F70199.4921875
I4
I0
I0
tp370
a(I141
F70919.21875
I1
I0
I0
tp371
a(I142
F71159.453125
I3
I0
I0
tp372
a(I143
F72119.4140625
I3
I0
I0
tp373
a(I144
F72359.6484375
I1
I0
I0
tp374
a(I145
F72599.8828125
I2
I0
I0
tp375
a(I146
F72839.140625
I1
I0
I0
tp376
a(I147
F73079.375
I4
I0
I0
tp377
a(I148
F73559.84375
I2
I0
I0
tp378
a(I149
F74039.3359375
I3
I0
I0
tp379
a(I150
F74999.296875
I1
I1
I0
tp380
a(I151
F75239.53125
I2
I1
I0
tp381
a(I152
F75479.765625
I3
I1
I0
tp382
a(I153
F75959.2578125
I1
I0
I0
tp383
a(I154
F76199.4921875
I2
I1
I0
tp384
a(I155
F76439.7265625
I4
I1
I0
tp385
a(I156
F76919.21875
I2
I0
I0
tp386
a(I157
F77159.453125
I2
I1
I0
tp387
a(I158
F77399.6875
I2
I1
I0
tp388
a(I159
F77639.921875
I2
I1
I0
tp389
a(I160
F77879.1796875
I4
I0
I0
tp390
a(I161
F78599.8828125
I1
I0
I0
tp391
a(I162
F78839.140625
I3
I0
I0
tp392
a(I163
F79799.1015625
I3
I0
I0
tp393
a(I164
F80039.3359375
I1
I0
I0
tp394
a(I165
F80279.5703125
I2
I0
I0
tp395
a(I166
F80519.8046875
I1
I0
I0
tp396
a(I167
F80759.0625
I4
I0
I0
tp397
a(I168
F81239.53125
I2
I0
I0
tp398
a(I169
F81720
I3
I0
I0
tp399
a(I170
F82679.9609375
I1
I1
I0
tp400
a(I171
F82919.21875
I2
I1
I0
tp401
a(I172
F83159.453125
I3
I1
I0
tp402
a(I173
F83639.921875
I1
I0
I0
tp403
a(I174
F83879.1796875
I2
I1
I0
tp404
a(I175
F84119.4140625
I4
I1
I0
tp405
a(I176
F84599.8828125
I1
I1
I0
tp406
a(I177
F84599.8828125
I4
I1
I0
tp407
a(I178
F85319.609375
I4
I1
I0
tp408
a(I179
F86039.3359375
I2
I1
I0
tp409
a(I180
F86519.8046875
I2
I1
I0
tp410
a(I181
F86519.8046875
I3
I1
I0
tp411
a(I182
F87239.53125
I4
I0
I0
tp412
a(I183
F87959.2578125
I1
I1
I0
tp413
a(I184
F88439.7265625
I1
I1
I0
tp414
a(I185
F88439.7265625
I3
I1
I0
tp415
a(I186
F89159.453125
I1
I0
I0
tp416
a(I187
F89639.921875
I2
I0
I0
tp417
a(I188
F89879.1796875
I3
I1
I0
tp418
a(I189
F90359.6484375
I2
I0
I0
tp419
a(I190
F90359.6484375
I4
I0
I0
tp420
a(I191
F91079.375
I3
I0
I0
tp421
a(I192
F91559.84375
I2
I1
I0
tp422
a(I193
F91799.1015625
I1
I1
I0
tp423
a(I194
F92279.5703125
I1
I1
I0
tp424
a(I195
F92279.5703125
I4
I1
I0
tp425
a(I196
F92999.296875
I4
I1
I0
tp426
a(I197
F93720
I2
I1
I0
tp427
a(I198
F94199.4921875
I2
I1
I0
tp428
a(I199
F94199.4921875
I3
I1
I0
tp429
a(I200
F94919.21875
I4
I0
I0
tp430
a(I201
F95639.921875
I1
I1
I0
tp431
a(I202
F96119.4140625
I1
I1
I0
tp432
a(I203
F96119.4140625
I3
I1
I0
tp433
a(I204
F96839.140625
I1
I0
I0
tp434
a(I205
F97319.609375
I2
I0
I0
tp435
a(I206
F97559.84375
I3
I1
I0
tp436
a(I207
F98039.3359375
I2
I0
I0
tp437
a(I208
F98039.3359375
I4
I0
I0
tp438
a(I209
F98759.0625
I3
I0
I0
tp439
a(I210
F99239.53125
I2
I1
I0
tp440
a(I211
F99479.765625
I1
I1
I0
tp441
a(I212
F99959.2578125
I3
I1
I0
tp442
a(I213
F100439.7265625
I1
I1
I0
tp443
a(I214
F100919.21875
I2
I0
I0
tp444
a(I215
F101159.453125
I3
I1
I0
tp445
a(I216
F101399.6875
I1
I0
I0
tp446
a(I217
F101879.1796875
I4
I1
I0
tp447
a(I218
F102359.6484375
I1
I1
I0
tp448
a(I219
F102839.140625
I2
I1
I0
tp449
a(I220
F103079.375
I3
I1
I0
tp450
a(I221
F103319.609375
I1
I0
I0
tp451
a(I222
F103799.1015625
I3
I0
I0
tp452
a(I223
F104279.5703125
I1
I1
I0
tp453
a(I224
F104759.0625
I2
I1
I0
tp454
a(I225
F104999.296875
I3
I1
I0
tp455
a(I226
F105239.53125
I1
I1
I0
tp456
a(I227
F105720
I4
I1
I0
tp457
a(I228
F106199.4921875
I3
I1
I0
tp458
a(I229
F106679.9609375
I1
I1
I0
tp459
a(I230
F106679.9609375
I2
I1
I0
tp460
a(I231
F107639.921875
I3
I1
I0
tp461
a(I232
F108119.4140625
I1
I1
I0
tp462
a(I233
F108599.8828125
I2
I0
I0
tp463
a(I234
F108839.140625
I3
I1
I0
tp464
a(I235
F109079.375
I1
I0
I0
tp465
a(I236
F109559.84375
I4
I1
I0
tp466
a(I237
F110039.3359375
I1
I1
I0
tp467
a(I238
F110519.8046875
I2
I1
I0
tp468
a(I239
F110759.0625
I3
I1
I0
tp469
a(I240
F110999.296875
I1
I0
I0
tp470
a(I241
F111479.765625
I3
I0
I0
tp471
a(I242
F111959.2578125
I1
I1
I0
tp472
a(I243
F112439.7265625
I2
I1
I0
tp473
a(I244
F112679.9609375
I3
I1
I0
tp474
a(I245
F112919.21875
I1
I1
I0
tp475
a(I246
F113399.6875
I4
I1
I0
tp476
a(I247
F113879.1796875
I3
I1
I0
tp477
a(I248
F114359.6484375
I1
I1
I0
tp478
a(I249
F114359.6484375
I2
I1
I0
tp479
a(I250
F115319.609375
I2
I1
I0
tp480
a(I251
F115799.1015625
I1
I0
I0
tp481
a(I252
F116279.5703125
I3
I0
I0
tp482
a(I253
F116519.8046875
I1
I1
I0
tp483
a(I254
F116759.0625
I4
I1
I0
tp484
a(I255
F117239.53125
I2
I0
I0
tp485
a(I256
F117720
I1
I1
I0
tp486
a(I257
F118199.4921875
I3
I1
I0
tp487
a(I258
F118679.9609375
I4
I1
I0
tp488
a(I259
F119159.453125
I3
I0
I0
tp489
a(I260
F119639.921875
I3
I1
I0
tp490
a(I261
F120119.4140625
I4
I1
I0
tp491
a(I262
F120359.6484375
I2
I1
I0
tp492
a(I263
F120599.8828125
I3
I1
I0
tp493
a(I264
F121079.375
I1
I1
I0
tp494
a(I265
F121559.84375
I2
I0
I0
tp495
a(I266
F122039.3359375
I1
I1
I0
tp496
a(I267
F122999.296875
I2
I1
I0
tp497
a(I268
F123479.765625
I1
I0
I0
tp498
a(I269
F123959.2578125
I3
I0
I0
tp499
a(I270
F124199.4921875
I1
I1
I0
tp500
a(I271
F124439.7265625
I4
I1
I0
tp501
a(I272
F124919.21875
I2
I0
I0
tp502
a(I273
F125399.6875
I1
I1
I0
tp503
a(I274
F125879.1796875
I3
I1
I0
tp504
a(I275
F126359.6484375
I4
I1
I0
tp505
a(I276
F126839.140625
I3
I0
I0
tp506
a(I277
F127319.609375
I3
I1
I0
tp507
a(I278
F127799.1015625
I4
I1
I0
tp508
a(I279
F128039.3359375
I2
I1
I0
tp509
a(I280
F128279.5703125
I3
I1
I0
tp510
a(I281
F128759.0625
I1
I1
I0
tp511
a(I282
F129239.53125
I2
I0
I0
tp512
a(I283
F129720
I1
I1
I0
tp513
a(I284
F130679.9609375
I3
I1
I0
tp514
a(I285
F131159.453125
I1
I1
I0
tp515
a(I286
F131399.6875
I4
I1
I0
tp516
a(I287
F132119.4140625
I2
I1
I0
tp517
a(I288
F132599.8828125
I3
I0
I0
tp518
a(I289
F133079.375
I1
I0
I0
tp519
a(I290
F133559.84375
I2
I1
I0
tp520
a(I291
F134519.8046875
I3
I0
I0
tp521
a(I292
F134759.0625
I3
I1
I0
tp522
a(I293
F135239.53125
I1
I1
I0
tp523
a(I294
F135959.2578125
I2
I1
I0
tp524
a(I295
F136439.7265625
I3
I0
I0
tp525
a(I296
F136919.21875
I1
I0
I0
tp526
a(I297
F137399.6875
I4
I1
I0
tp527
a(I298
F137639.921875
I1
I1
I0
tp528
a(I299
F137879.1796875
I2
I1
I0
tp529
a(I300
F138359.6484375
I3
I1
I0
tp530
a(I301
F139079.375
I4
I0
I0
tp531
a(I302
F140279.5703125
I2
I1
I0
tp532
a(I303
F140519.8046875
I3
I0
I0
tp533
a(I304
F140999.296875
I1
I0
I0
tp534
a(I305
F142199.4921875
I3
I0
I0
tp535
a(I306
F142919.21875
I4
I1
I0
tp536
a(I307
F144119.4140625
I2
I0
I0
tp537
a(I308
F144359.6484375
I3
I1
I0
tp538
a(I309
F144839.140625
I1
I1
I0
tp539
aa(lp540
(I0
F220
I3
I1
I0
tp541
a(I1
F839.140625
I4
I0
I0
tp542
a(I2
F2039.3359375
I1
I1
I0
tp543
a(I3
F2039.3359375
I3
I1
I0
tp544
a(I4
F2279.5703125
I1
I0
I0
tp545
a(I5
F2279.5703125
I4
I0
I0
tp546
a(I6
F2759.0625
I1
I0
I0
tp547
a(I7
F3959.2578125
I3
I0
I0
tp548
a(I8
F4679.9609375
I4
I1
I0
tp549
a(I9
F5879.1796875
I1
I0
I0
tp550
a(I10
F5879.1796875
I3
I0
I0
tp551
a(I11
F6119.4140625
I1
I1
I0
tp552
a(I12
F6119.4140625
I4
I1
I0
tp553
a(I13
F6599.8828125
I1
I1
I0
tp554
a(I14
F7799.1015625
I3
I1
I0
tp555
a(I15
F8279.5703125
I1
I1
I0
tp556
a(I16
F8519.8046875
I4
I1
I0
tp557
a(I17
F9239.53125
I2
I1
I0
tp558
a(I18
F9720
I3
I0
I0
tp559
a(I19
F10199.4921875
I1
I0
I0
tp560
a(I20
F10439.7265625
I4
I1
I0
tp561
a(I21
F10679.9609375
I1
I1
I0
tp562
a(I22
F10919.21875
I2
I1
I0
tp563
a(I23
F11639.921875
I3
I0
I0
tp564
a(I24
F11879.1796875
I3
I1
I0
tp565
a(I25
F12359.6484375
I1
I1
I0
tp566
a(I26
F13079.375
I2
I1
I0
tp567
a(I27
F13559.84375
I3
I0
I0
tp568
a(I28
F14039.3359375
I1
I0
I0
tp569
a(I29
F14519.8046875
I4
I1
I0
tp570
a(I30
F14759.0625
I1
I1
I0
tp571
a(I31
F14999.296875
I3
I1
I0
tp572
a(I32
F14999.296875
I4
I1
I0
tp573
a(I33
F15479.765625
I3
I1
I0
tp574
a(I34
F15959.2578125
I1
I1
I0
tp575
a(I35
F16199.4921875
I4
I0
I0
tp576
a(I36
F16679.9609375
I1
I1
I0
tp577
a(I37
F16919.21875
I2
I1
I0
tp578
a(I38
F17399.6875
I3
I0
I0
tp579
a(I39
F17879.1796875
I1
I0
I0
tp580
a(I40
F18119.4140625
I4
I0
I0
tp581
a(I41
F18359.6484375
I1
I1
I0
tp582
a(I42
F18599.8828125
I2
I1
I0
tp583
a(I43
F19319.609375
I3
I0
I0
tp584
a(I44
F19559.84375
I3
I1
I0
tp585
a(I45
F20039.3359375
I1
I1
I0
tp586
a(I46
F20759.0625
I2
I1
I0
tp587
a(I47
F21239.53125
I3
I0
I0
tp588
a(I48
F21720
I1
I0
I0
tp589
a(I49
F22199.4921875
I2
I1
I0
tp590
a(I50
F22439.7265625
I1
I1
I0
tp591
a(I51
F22679.9609375
I3
I1
I0
tp592
a(I52
F22679.9609375
I4
I1
I0
tp593
a(I53
F23159.453125
I1
I1
I0
tp594
a(I54
F23159.453125
I4
I1
I0
tp595
a(I55
F23879.1796875
I4
I1
I0
tp596
a(I56
F24599.8828125
I2
I1
I0
tp597
a(I57
F24599.8828125
I3
I1
I0
tp598
a(I58
F25079.375
I1
I1
I0
tp599
a(I59
F25079.375
I3
I1
I0
tp600
a(I60
F25799.1015625
I4
I0
I0
tp601
a(I61
F26519.8046875
I2
I1
I0
tp602
a(I62
F26519.8046875
I4
I1
I0
tp603
a(I63
F26999.296875
I1
I1
I0
tp604
a(I64
F26999.296875
I4
I1
I0
tp605
a(I65
F27720
I1
I0
I0
tp606
a(I66
F28199.4921875
I2
I0
I0
tp607
a(I67
F28439.7265625
I3
I1
I0
tp608
a(I68
F28919.21875
I2
I1
I0
tp609
a(I69
F28919.21875
I4
I1
I0
tp610
a(I70
F29639.921875
I3
I0
I0
tp611
a(I71
F30119.4140625
I2
I1
I0
tp612
a(I72
F30359.6484375
I1
I1
I0
tp613
a(I73
F30839.140625
I1
I1
I0
tp614
a(I74
F30839.140625
I4
I1
I0
tp615
a(I75
F31559.84375
I4
I1
I0
tp616
a(I76
F32279.5703125
I2
I1
I0
tp617
a(I77
F32279.5703125
I3
I1
I0
tp618
a(I78
F32759.0625
I1
I1
I0
tp619
a(I79
F32759.0625
I3
I1
I0
tp620
a(I80
F33479.765625
I4
I0
I0
tp621
a(I81
F34199.4921875
I2
I1
I0
tp622
a(I82
F34199.4921875
I4
I1
I0
tp623
a(I83
F34679.9609375
I1
I1
I0
tp624
a(I84
F34679.9609375
I4
I1
I0
tp625
a(I85
F35399.6875
I1
I0
I0
tp626
a(I86
F35879.1796875
I2
I0
I0
tp627
a(I87
F36119.4140625
I3
I1
I0
tp628
a(I88
F36599.8828125
I2
I1
I0
tp629
a(I89
F36599.8828125
I4
I1
I0
tp630
a(I90
F37319.609375
I3
I0
I0
tp631
a(I91
F37799.1015625
I2
I1
I0
tp632
a(I92
F38039.3359375
I1
I1
I0
tp633
a(I93
F38519.8046875
I3
I1
I0
tp634
a(I94
F38999.296875
I1
I1
I0
tp635
a(I95
F39239.53125
I3
I1
I0
tp636
a(I96
F39959.2578125
I1
I1
I0
tp637
a(I97
F40439.7265625
I3
I1
I0
tp638
a(I98
F40679.9609375
I2
I0
I0
tp639
a(I99
F40919.21875
I1
I1
I0
tp640
a(I100
F41159.453125
I2
I1
I0
tp641
a(I101
F41879.1796875
I1
I0
I0
tp642
a(I102
F42359.6484375
I1
I1
I0
tp643
a(I103
F42359.6484375
I2
I1
I0
tp644
a(I104
F42839.140625
I1
I1
I0
tp645
a(I105
F43079.375
I3
I0
I0
tp646
a(I106
F43079.375
I4
I0
I0
tp647
a(I107
F43799.1015625
I1
I1
I0
tp648
a(I108
F44279.5703125
I3
I0
I0
tp649
a(I109
F44519.8046875
I4
I1
I0
tp650
a(I110
F44759.0625
I2
I0
I0
tp651
a(I111
F45239.53125
I1
I0
I0
tp652
a(I112
F45479.765625
I4
I1
I0
tp653
a(I113
F46199.4921875
I3
I1
I0
tp654
a(I114
F46679.9609375
I1
I1
I0
tp655
a(I115
F46919.21875
I4
I0
I0
tp656
a(I116
F47399.6875
I1
I1
I0
tp657
a(I117
F47639.921875
I2
I1
I0
tp658
a(I118
F48119.4140625
I3
I0
I0
tp659
a(I119
F48599.8828125
I1
I0
I0
tp660
a(I120
F48839.140625
I4
I0
I0
tp661
a(I121
F49079.375
I1
I1
I0
tp662
a(I122
F49319.609375
I2
I1
I0
tp663
a(I123
F50039.3359375
I3
I0
I0
tp664
a(I124
F50279.5703125
I3
I1
I0
tp665
a(I125
F50759.0625
I1
I1
I0
tp666
a(I126
F51479.765625
I2
I1
I0
tp667
a(I127
F51959.2578125
I3
I0
I0
tp668
a(I128
F52439.7265625
I1
I0
I0
tp669
a(I129
F52919.21875
I2
I1
I0
tp670
a(I130
F53159.453125
I1
I1
I0
tp671
a(I131
F53399.6875
I3
I1
I0
tp672
a(I132
F53399.6875
I4
I1
I0
tp673
a(I133
F53879.1796875
I3
I1
I0
tp674
a(I134
F54359.6484375
I1
I1
I0
tp675
a(I135
F54599.8828125
I4
I0
I0
tp676
a(I136
F55079.375
I1
I1
I0
tp677
a(I137
F55319.609375
I2
I1
I0
tp678
a(I138
F55799.1015625
I3
I0
I0
tp679
a(I139
F56279.5703125
I1
I0
I0
tp680
a(I140
F56519.8046875
I4
I0
I0
tp681
a(I141
F56759.0625
I1
I1
I0
tp682
a(I142
F56999.296875
I2
I1
I0
tp683
a(I143
F57720
I3
I0
I0
tp684
a(I144
F57959.2578125
I3
I1
I0
tp685
a(I145
F58439.7265625
I1
I1
I0
tp686
a(I146
F59159.453125
I2
I1
I0
tp687
a(I147
F59639.921875
I3
I0
I0
tp688
a(I148
F60119.4140625
I1
I0
I0
tp689
a(I149
F60599.8828125
I2
I1
I0
tp690
a(I150
F60839.140625
I1
I1
I0
tp691
a(I151
F61079.375
I3
I1
I0
tp692
a(I152
F61079.375
I4
I1
I0
tp693
a(I153
F61559.84375
I3
I1
I0
tp694
a(I154
F62039.3359375
I1
I1
I0
tp695
a(I155
F62279.5703125
I3
I1
I0
tp696
a(I156
F62999.296875
I1
I1
I0
tp697
a(I157
F63479.765625
I3
I1
I0
tp698
a(I158
F63720
I2
I0
I0
tp699
a(I159
F63959.2578125
I1
I1
I0
tp700
a(I160
F64199.4921875
I2
I1
I0
tp701
a(I161
F64919.21875
I1
I0
I0
tp702
a(I162
F65399.6875
I1
I1
I0
tp703
a(I163
F65399.6875
I2
I1
I0
tp704
a(I164
F65879.1796875
I1
I1
I0
tp705
a(I165
F66119.4140625
I3
I0
I0
tp706
a(I166
F66119.4140625
I4
I0
I0
tp707
a(I167
F66839.140625
I1
I1
I0
tp708
a(I168
F67319.609375
I3
I0
I0
tp709
a(I169
F67559.84375
I4
I1
I0
tp710
a(I170
F67799.1015625
I2
I0
I0
tp711
a(I171
F68279.5703125
I1
I0
I0
tp712
a(I172
F68519.8046875
I4
I1
I0
tp713
a(I173
F69239.53125
I2
I0
I0
tp714
a(I174
F69479.765625
I2
I1
I0
tp715
a(I175
F69720
I2
I1
I0
tp716
a(I176
F69959.2578125
I2
I1
I0
tp717
a(I177
F70199.4921875
I1
I0
I0
tp718
a(I178
F70199.4921875
I2
I0
I0
tp719
a(I179
F70919.21875
I3
I1
I0
tp720
a(I180
F71159.453125
I3
I0
I0
tp721
a(I181
F71159.453125
I4
I0
I0
tp722
a(I182
F72119.4140625
I3
I0
I0
tp723
a(I183
F72359.6484375
I1
I0
I0
tp724
a(I184
F72599.8828125
I2
I0
I0
tp725
a(I185
F72839.140625
I1
I0
I0
tp726
a(I186
F73079.375
I4
I0
I0
tp727
a(I187
F73559.84375
I2
I0
I0
tp728
a(I188
F74039.3359375
I3
I0
I0
tp729
a(I189
F74999.296875
I1
I1
I0
tp730
a(I190
F75239.53125
I2
I1
I0
tp731
a(I191
F75479.765625
I3
I1
I0
tp732
a(I192
F75720
I4
I1
I0
tp733
a(I193
F75959.2578125
I1
I0
I0
tp734
a(I194
F76199.4921875
I2
I1
I0
tp735
a(I195
F76439.7265625
I4
I1
I0
tp736
a(I196
F76919.21875
I2
I0
I0
tp737
a(I197
F77159.453125
I2
I1
I0
tp738
a(I198
F77399.6875
I2
I1
I0
tp739
a(I199
F77639.921875
I2
I1
I0
tp740
a(I200
F77879.1796875
I1
I0
I0
tp741
a(I201
F77879.1796875
I2
I0
I0
tp742
a(I202
F78599.8828125
I3
I1
I0
tp743
a(I203
F78839.140625
I3
I0
I0
tp744
a(I204
F78839.140625
I4
I0
I0
tp745
a(I205
F79799.1015625
I3
I0
I0
tp746
a(I206
F80039.3359375
I1
I0
I0
tp747
a(I207
F80279.5703125
I2
I0
I0
tp748
a(I208
F80519.8046875
I1
I0
I0
tp749
a(I209
F80759.0625
I4
I0
I0
tp750
a(I210
F81239.53125
I2
I0
I0
tp751
a(I211
F81720
I3
I0
I0
tp752
a(I212
F82679.9609375
I1
I1
I0
tp753
a(I213
F82919.21875
I2
I1
I0
tp754
a(I214
F83159.453125
I3
I1
I0
tp755
a(I215
F83399.6875
I4
I1
I0
tp756
a(I216
F83639.921875
I1
I0
I0
tp757
a(I217
F83879.1796875
I2
I1
I0
tp758
a(I218
F84119.4140625
I4
I1
I0
tp759
a(I219
F84599.8828125
I1
I1
I0
tp760
a(I220
F84599.8828125
I4
I1
I0
tp761
a(I221
F85319.609375
I4
I1
I0
tp762
a(I222
F86039.3359375
I2
I1
I0
tp763
a(I223
F86039.3359375
I3
I1
I0
tp764
a(I224
F86519.8046875
I1
I1
I0
tp765
a(I225
F86519.8046875
I3
I1
I0
tp766
a(I226
F87239.53125
I4
I0
I0
tp767
a(I227
F87959.2578125
I2
I1
I0
tp768
a(I228
F87959.2578125
I4
I1
I0
tp769
a(I229
F88439.7265625
I1
I1
I0
tp770
a(I230
F88439.7265625
I4
I1
I0
tp771
a(I231
F89159.453125
I1
I0
I0
tp772
a(I232
F89639.921875
I2
I0
I0
tp773
a(I233
F89879.1796875
I3
I1
I0
tp774
a(I234
F90359.6484375
I2
I1
I0
tp775
a(I235
F90359.6484375
I4
I1
I0
tp776
a(I236
F91079.375
I3
I0
I0
tp777
a(I237
F91559.84375
I2
I1
I0
tp778
a(I238
F91799.1015625
I1
I1
I0
tp779
a(I239
F92279.5703125
I1
I1
I0
tp780
a(I240
F92279.5703125
I4
I1
I0
tp781
a(I241
F92999.296875
I4
I1
I0
tp782
a(I242
F93720
I2
I1
I0
tp783
a(I243
F93720
I3
I1
I0
tp784
a(I244
F94199.4921875
I1
I1
I0
tp785
a(I245
F94199.4921875
I3
I1
I0
tp786
a(I246
F94919.21875
I4
I0
I0
tp787
a(I247
F95639.921875
I2
I1
I0
tp788
a(I248
F95639.921875
I4
I1
I0
tp789
a(I249
F96119.4140625
I1
I1
I0
tp790
a(I250
F96119.4140625
I4
I1
I0
tp791
a(I251
F96839.140625
I1
I0
I0
tp792
a(I252
F97319.609375
I2
I0
I0
tp793
a(I253
F97559.84375
I3
I1
I0
tp794
a(I254
F98039.3359375
I2
I1
I0
tp795
a(I255
F98039.3359375
I4
I1
I0
tp796
a(I256
F98759.0625
I3
I0
I0
tp797
a(I257
F99239.53125
I2
I1
I0
tp798
a(I258
F99479.765625
I1
I1
I0
tp799
a(I259
F99959.2578125
I3
I1
I0
tp800
a(I260
F100439.7265625
I1
I1
I0
tp801
a(I261
F100919.21875
I2
I0
I0
tp802
a(I262
F101159.453125
I3
I1
I0
tp803
a(I263
F101399.6875
I1
I0
I0
tp804
a(I264
F101639.921875
I3
I1
I0
tp805
a(I265
F101879.1796875
I4
I1
I0
tp806
a(I266
F102359.6484375
I1
I1
I0
tp807
a(I267
F102839.140625
I2
I1
I0
tp808
a(I268
F103079.375
I3
I1
I0
tp809
a(I269
F103319.609375
I1
I0
I0
tp810
a(I270
F103559.84375
I4
I1
I0
tp811
a(I271
F103799.1015625
I3
I0
I0
tp812
a(I272
F104279.5703125
I1
I1
I0
tp813
a(I273
F104759.0625
I2
I1
I0
tp814
a(I274
F104999.296875
I3
I1
I0
tp815
a(I275
F105239.53125
I1
I1
I0
tp816
a(I276
F105720
I4
I1
I0
tp817
a(I277
F106199.4921875
I3
I1
I0
tp818
a(I278
F106679.9609375
I1
I1
I0
tp819
a(I279
F106679.9609375
I2
I1
I0
tp820
a(I280
F107639.921875
I3
I1
I0
tp821
a(I281
F108119.4140625
I1
I1
I0
tp822
a(I282
F108599.8828125
I2
I0
I0
tp823
a(I283
F108839.140625
I3
I1
I0
tp824
a(I284
F109079.375
I1
I0
I0
tp825
a(I285
F109319.609375
I3
I1
I0
tp826
a(I286
F109559.84375
I4
I1
I0
tp827
a(I287
F110039.3359375
I1
I1
I0
tp828
a(I288
F110519.8046875
I2
I1
I0
tp829
a(I289
F110759.0625
I3
I1
I0
tp830
a(I290
F110999.296875
I1
I0
I0
tp831
a(I291
F111239.53125
I4
I1
I0
tp832
a(I292
F111479.765625
I3
I0
I0
tp833
a(I293
F111959.2578125
I1
I1
I0
tp834
a(I294
F112439.7265625
I2
I1
I0
tp835
a(I295
F112679.9609375
I3
I1
I0
tp836
a(I296
F112919.21875
I1
I1
I0
tp837
a(I297
F113399.6875
I4
I1
I0
tp838
a(I298
F113879.1796875
I3
I1
I0
tp839
a(I299
F114359.6484375
I1
I1
I0
tp840
a(I300
F114359.6484375
I2
I1
I0
tp841
a(I301
F115319.609375
I2
I1
I0
tp842
a(I302
F115799.1015625
I1
I0
I0
tp843
a(I303
F116279.5703125
I3
I0
I0
tp844
a(I304
F116519.8046875
I1
I1
I0
tp845
a(I305
F116759.0625
I4
I1
I0
tp846
a(I306
F116999.296875
I1
I1
I0
tp847
a(I307
F117239.53125
I2
I0
I0
tp848
a(I308
F117720
I1
I1
I0
tp849
a(I309
F118199.4921875
I3
I1
I0
tp850
a(I310
F118439.7265625
I2
I0
I0
tp851
a(I311
F118679.9609375
I4
I0
I0
tp852
a(I312
F119159.453125
I3
I0
I0
tp853
a(I313
F119639.921875
I3
I1
I0
tp854
a(I314
F120119.4140625
I4
I0
I0
tp855
a(I315
F120359.6484375
I2
I0
I0
tp856
a(I316
F120599.8828125
I3
I0
I0
tp857
a(I317
F120839.140625
I1
I0
I0
tp858
a(I318
F121079.375
I2
I1
I0
tp859
a(I319
F121559.84375
I2
I1
I0
tp860
a(I320
F122039.3359375
I3
I1
I0
tp861
a(I321
F122999.296875
I2
I1
I0
tp862
a(I322
F123479.765625
I1
I0
I0
tp863
a(I323
F123959.2578125
I3
I0
I0
tp864
a(I324
F124199.4921875
I1
I1
I0
tp865
a(I325
F124439.7265625
I4
I1
I0
tp866
a(I326
F124679.9609375
I1
I1
I0
tp867
a(I327
F124919.21875
I2
I0
I0
tp868
a(I328
F125399.6875
I1
I1
I0
tp869
a(I329
F125879.1796875
I3
I1
I0
tp870
a(I330
F126119.4140625
I2
I0
I0
tp871
a(I331
F126359.6484375
I4
I0
I0
tp872
a(I332
F126839.140625
I3
I0
I0
tp873
a(I333
F127319.609375
I3
I1
I0
tp874
a(I334
F127799.1015625
I4
I0
I0
tp875
a(I335
F128039.3359375
I2
I0
I0
tp876
a(I336
F128279.5703125
I3
I0
I0
tp877
a(I337
F128519.8046875
I1
I0
I0
tp878
a(I338
F128759.0625
I2
I1
I0
tp879
a(I339
F129239.53125
I2
I1
I0
tp880
a(I340
F129720
I3
I1
I0
tp881
a(I341
F130679.9609375
I3
I1
I0
tp882
a(I342
F131159.453125
I1
I1
I0
tp883
a(I343
F131399.6875
I4
I0
I0
tp884
a(I344
F131879.1796875
I1
I1
I0
tp885
a(I345
F132119.4140625
I2
I1
I0
tp886
a(I346
F132599.8828125
I3
I0
I0
tp887
a(I347
F133079.375
I1
I0
I0
tp888
a(I348
F133319.609375
I4
I0
I0
tp889
a(I349
F133559.84375
I1
I1
I0
tp890
a(I350
F133799.1015625
I2
I1
I0
tp891
a(I351
F134519.8046875
I3
I0
I0
tp892
a(I352
F134759.0625
I3
I1
I0
tp893
a(I353
F135239.53125
I1
I1
I0
tp894
a(I354
F135959.2578125
I2
I1
I0
tp895
a(I355
F136439.7265625
I3
I0
I0
tp896
a(I356
F136919.21875
I1
I0
I0
tp897
a(I357
F137399.6875
I2
I1
I0
tp898
a(I358
F137639.921875
I1
I1
I0
tp899
a(I359
F137879.1796875
I3
I1
I0
tp900
a(I360
F137879.1796875
I4
I1
I0
tp901
a(I361
F138359.6484375
I3
I1
I0
tp902
a(I362
F139079.375
I4
I0
I0
tp903
a(I363
F140279.5703125
I1
I1
I0
tp904
a(I364
F140279.5703125
I3
I1
I0
tp905
a(I365
F140519.8046875
I1
I0
I0
tp906
a(I366
F140519.8046875
I4
I0
I0
tp907
a(I367
F140999.296875
I1
I0
I0
tp908
a(I368
F142199.4921875
I3
I0
I0
tp909
a(I369
F142919.21875
I4
I1
I0
tp910
a(I370
F144119.4140625
I1
I0
I0
tp911
a(I371
F144119.4140625
I3
I0
I0
tp912
a(I372
F144359.6484375
I1
I1
I0
tp913
a(I373
F144359.6484375
I4
I1
I0
tp914
a(I374
F144839.140625
I1
I1
I0
tp915
aa.