(lp1
(lp2
(I0
F162.846
I4
I0
I0
tp3
a(I1
F759.90459375
I3
I1
I0
tp4
a(I2
F1387.2063515625
I2
I0
I0
tp5
a(I3
F1700.3694375
I1
I1
I0
tp6
a(I4
F2013.5325234375
I2
I1
I0
tp7
a(I5
F2640.83428125
I3
I0
I0
tp8
a(I6
F3267.160453125
I4
I1
I0
tp9
a(I7
F3894.4622109375
I1
I1
I0
tp10
a(I8
F4207.6252968749995
I2
I0
I0
tp11
a(I9
F4520.7883828124995
I1
I0
I0
tp12
a(I10
F5148.0901406249995
I1
I1
I0
tp13
a(I11
F5774.4163124999995
I2
I1
I0
tp14
a(I12
F6401.7180703124995
I3
I1
I0
tp15
a(I13
F7028.0442421874995
I4
I1
I0
tp16
a(I14
F7655.3459999999995
I1
I0
I0
tp17
a(I15
F8281.6721718749995
I2
I0
I0
tp18
a(I16
F8908.9739296874995
I3
I0
I0
tp19
a(I17
F9535.3001015624995
I4
I0
I0
tp20
a(I18
F10162.601859375
I4
I0
I0
tp21
a(I19
F10788.92803125
I3
I1
I0
tp22
a(I20
F11416.2297890625
I2
I0
I0
tp23
a(I21
F11729.392875
I1
I1
I0
tp24
a(I22
F12042.5559609375
I2
I1
I0
tp25
a(I23
F12669.85771875
I3
I0
I0
tp26
a(I24
F13296.183890625
I4
I1
I0
tp27
a(I25
F13923.4856484375
I1
I1
I0
tp28
a(I26
F14236.648734375
I2
I0
I0
tp29
a(I27
F14549.8118203125
I1
I0
I0
tp30
a(I28
F15177.113578125
I1
I1
I0
tp31
a(I29
F15803.43975
I2
I1
I0
tp32
a(I30
F16430.741507812501
I3
I1
I0
tp33
a(I31
F17057.067679687501
I4
I1
I0
tp34
a(I32
F17684.369437500001
I1
I0
I0
tp35
a(I33
F18310.695609375001
I2
I0
I0
tp36
a(I34
F18937.997367187501
I3
I0
I0
tp37
a(I35
F19564.323539062501
I4
I0
I0
tp38
a(I36
F20191.625296875001
I3
I0
I0
tp39
a(I37
F21445.253226562501
I2
I0
I0
tp40
a(I38
F22071.579398437501
I4
I0
I0
tp41
a(I39
F22698.881156250001
I1
I0
I0
tp42
a(I40
F23952.509085937501
I3
I1
I0
tp43
a(I41
F24578.835257812501
I2
I1
I0
tp44
a(I42
F25206.137015625001
I1
I0
I0
tp45
a(I43
F25206.137015625001
I2
I0
I0
tp46
a(I44
F27713.392875000001
I3
I0
I0
tp47
a(I45
F27713.392875000001
I4
I0
I0
tp48
a(I46
F29594.322562500001
I3
I1
I0
tp49
a(I47
F29907.485648437501
I4
I1
I0
tp50
a(I48
F30220.648734375001
I4
I0
I0
tp51
a(I49
F30847.950492187501
I3
I1
I0
tp52
a(I50
F31474.276664062501
I2
I0
I0
tp53
a(I51
F31787.439750000001
I1
I1
I0
tp54
a(I52
F32101.578421875001
I2
I1
I0
tp55
a(I53
F32727.904593750001
I3
I0
I0
tp56
a(I54
F33355.206351562498
I4
I1
I0
tp57
a(I55
F33981.532523437498
I1
I1
I0
tp58
a(I56
F34294.695609374998
I2
I0
I0
tp59
a(I57
F34608.834281249998
I1
I0
I0
tp60
a(I58
F35235.160453124998
I1
I1
I0
tp61
a(I59
F35862.462210937498
I2
I1
I0
tp62
a(I60
F36488.788382812498
I3
I1
I0
tp63
a(I61
F37116.090140624998
I4
I1
I0
tp64
a(I62
F37742.416312499998
I1
I0
I0
tp65
a(I63
F38369.718070312498
I2
I0
I0
tp66
a(I64
F38996.044242187498
I3
I0
I0
tp67
a(I65
F39623.345999999998
I4
I0
I0
tp68
a(I66
F40249.672171874998
I4
I0
I0
tp69
a(I67
F40876.973929687498
I3
I1
I0
tp70
a(I68
F41503.300101562498
I2
I0
I0
tp71
a(I69
F41816.463187499998
I1
I1
I0
tp72
a(I70
F42130.601859374998
I2
I1
I0
tp73
a(I71
F42756.928031249998
I3
I0
I0
tp74
a(I72
F43384.229789062498
I4
I1
I0
tp75
a(I73
F44010.555960937498
I1
I1
I0
tp76
a(I74
F44324.694632812498
I2
I0
I0
tp77
a(I75
F44637.857718749998
I1
I0
I0
tp78
a(I76
F45264.183890624998
I1
I0
I0
tp79
a(I77
F45891.485648437498
I4
I1
I0
tp80
a(I78
F46517.811820312498
I3
I0
I0
tp81
a(I79
F46831.950492187498
I2
I1
I0
tp82
a(I80
F47145.113578124998
I3
I1
I0
tp83
a(I81
F47771.439749999998
I4
I0
I0
tp84
a(I82
F48398.741507812498
I1
I1
I0
tp85
a(I83
F49025.067679687498
I2
I1
I0
tp86
a(I84
F49339.206351562498
I3
I0
I0
tp87
a(I85
F49652.369437499998
I2
I1
I0
tp88
a(I86
F50278.695609374998
I1
I0
I0
tp89
a(I87
F50278.695609374998
I2
I0
I0
tp90
a(I88
F52785.951468749998
I3
I0
I0
tp91
a(I89
F52785.951468749998
I4
I0
I0
tp92
a(I90
F54666.881156249998
I3
I1
I0
tp93
a(I91
F54980.044242187498
I4
I1
I0
tp94
aa(lp95
(I0
F162.846
I4
I0
I0
tp96
a(I1
F759.90459375
I3
I1
I0
tp97
a(I2
F1073.0676796875
I2
I0
I0
tp98
a(I3
F1387.2063515625
I1
I0
I0
tp99
a(I4
F1700.3694375
I3
I0
I0
tp100
a(I5
F2013.5325234375
I4
I1
I0
tp101
a(I6
F2640.83428125
I3
I1
I0
tp102
a(I7
F3267.160453125
I1
I1
I0
tp103
a(I8
F3580.3235390625
I2
I1
I0
tp104
a(I9
F3894.4622109375
I3
I0
I0
tp105
a(I10
F4207.6252968749995
I1
I0
I0
tp106
a(I11
F4520.7883828124995
I2
I0
I0
tp107
a(I12
F5148.0901406249995
I1
I1
I0
tp108
a(I13
F5774.4163124999995
I2
I1
I0
tp109
a(I14
F6087.5793984374995
I3
I1
I0
tp110
a(I15
F6401.7180703124995
I4
I1
I0
tp111
a(I16
F6714.8811562499995
I1
I1
I0
tp112
a(I17
F7028.0442421874995
I2
I1
I0
tp113
a(I18
F7655.3459999999995
I1
I0
I0
tp114
a(I19
F8281.6721718749995
I2
I0
I0
tp115
a(I20
F8594.8352578124995
I3
I0
I0
tp116
a(I21
F8908.9739296874995
I4
I0
I0
tp117
a(I22
F9222.1370156249995
I1
I0
I0
tp118
a(I23
F9535.3001015624995
I2
I0
I0
tp119
a(I24
F10162.601859375
I4
I0
I0
tp120
a(I25
F10788.92803125
I3
I1
I0
tp121
a(I26
F11103.066703125
I2
I0
I0
tp122
a(I27
F11416.2297890625
I1
I0
I0
tp123
a(I28
F11729.392875
I3
I0
I0
tp124
a(I29
F12042.5559609375
I4
I1
I0
tp125
a(I30
F12669.85771875
I3
I1
I0
tp126
a(I31
F13296.183890625
I1
I1
I0
tp127
a(I32
F13610.3225625
I2
I1
I0
tp128
a(I33
F13923.4856484375
I3
I0
I0
tp129
a(I34
F14236.648734375
I1
I0
I0
tp130
a(I35
F14549.8118203125
I2
I0
I0
tp131
a(I36
F15177.113578125
I1
I1
I0
tp132
a(I37
F15803.43975
I2
I1
I0
tp133
a(I38
F16117.578421875
I3
I1
I0
tp134
a(I39
F16430.741507812501
I4
I1
I0
tp135
a(I40
F16743.904593750001
I1
I1
I0
tp136
a(I41
F17057.067679687501
I2
I1
I0
tp137
a(I42
F17684.369437500001
I1
I0
I0
tp138
a(I43
F18310.695609375001
I2
I0
I0
tp139
a(I44
F18624.834281250001
I3
I0
I0
tp140
a(I45
F18937.997367187501
I4
I0
I0
tp141
a(I46
F19251.160453125001
I1
I0
I0
tp142
a(I47
F19564.323539062501
I2
I0
I0
tp143
a(I48
F20191.625296875001
I3
I0
I0
tp144
a(I49
F20191.625296875001
I4
I0
I0
tp145
a(I50
F21445.253226562501
I3
I1
I0
tp146
a(I51
F22071.579398437501
I4
I1
I0
tp147
a(I52
F22698.881156250001
I1
I0
I0
tp148
a(I53
F22698.881156250001
I2
I0
I0
tp149
a(I54
F23952.509085937501
I2
I1
I0
tp150
a(I55
F24578.835257812501
I1
I1
I0
tp151
a(I56
F25206.137015625001
I2
I1
I0
tp152
a(I57
F25206.137015625001
I3
I1
I0
tp153
a(I58
F26459.764945312501
I2
I1
I0
tp154
a(I59
F26459.764945312501
I4
I1
I0
tp155
a(I60
F27713.392875000001
I1
I1
I0
tp156
a(I61
F27713.392875000001
I4
I1
I0
tp157
a(I62
F28967.020804687501
I1
I1
I0
tp158
a(I63
F28967.020804687501
I3
I1
I0
tp159
a(I64
F30220.648734375001
I4
I0
I0
tp160
a(I65
F30847.950492187501
I3
I1
I0
tp161
a(I66
F31161.113578125001
I2
I0
I0
tp162
a(I67
F31474.276664062501
I1
I0
I0
tp163
a(I68
F31787.439750000001
I3
I0
I0
tp164
a(I69
F32101.578421875001
I4
I1
I0
tp165
a(I70
F32727.904593750001
I3
I1
I0
tp166
a(I71
F33355.206351562498
I1
I1
I0
tp167
a(I72
F33668.369437499998
I2
I1
I0
tp168
a(I73
F33981.532523437498
I3
I0
I0
tp169
a(I74
F34294.695609374998
I1
I0
I0
tp170
a(I75
F34608.834281249998
I2
I0
I0
tp171
a(I76
F35235.160453124998
I1
I1
I0
tp172
a(I77
F35862.462210937498
I2
I1
I0
tp173
a(I78
F36175.625296874998
I3
I1
I0
tp174
a(I79
F36488.788382812498
I4
I1
I0
tp175
a(I80
F36801.951468749998
I1
I1
I0
tp176
a(I81
F37116.090140624998
I2
I1
I0
tp177
a(I82
F37742.416312499998
I1
I0
I0
tp178
a(I83
F38369.718070312498
I2
I0
I0
tp179
a(I84
F38682.881156249998
I3
I0
I0
tp180
a(I85
F38996.044242187498
I4
I0
I0
tp181
a(I86
F39309.207328124998
I1
I0
I0
tp182
a(I87
F39623.345999999998
I2
I0
I0
tp183
a(I88
F40249.672171874998
I4
I0
I0
tp184
a(I89
F40876.973929687498
I3
I1
I0
tp185
a(I90
F41190.137015624998
I2
I0
I0
tp186
a(I91
F41503.300101562498
I1
I0
I0
tp187
a(I92
F41816.463187499998
I3
I0
I0
tp188
a(I93
F42130.601859374998
I4
I1
I0
tp189
a(I94
F42756.928031249998
I3
I1
I0
tp190
a(I95
F43384.229789062498
I1
I1
I0
tp191
a(I96
F43697.392874999998
I2
I1
I0
tp192
a(I97
F44010.555960937498
I3
I0
I0
tp193
a(I98
F44324.694632812498
I1
I0
I0
tp194
a(I99
F44637.857718749998
I2
I0
I0
tp195
a(I100
F45264.183890624998
I1
I0
I0
tp196
a(I101
F45891.485648437498
I4
I1
I0
tp197
a(I102
F46204.648734374998
I3
I1
I0
tp198
a(I103
F46517.811820312498
I2
I0
I0
tp199
a(I104
F46831.950492187498
I4
I0
I0
tp200
a(I105
F47145.113578124998
I1
I1
I0
tp201
a(I106
F47771.439749999998
I4
I1
I0
tp202
a(I107
F48398.741507812498
I2
I1
I0
tp203
a(I108
F48711.904593749998
I3
I1
I0
tp204
a(I109
F49025.067679687498
I4
I0
I0
tp205
a(I110
F49339.206351562498
I2
I0
I0
tp206
a(I111
F49652.369437499998
I3
I0
I0
tp207
a(I112
F50278.695609374998
I2
I1
I0
tp208
a(I113
F50278.695609374998
I3
I1
I0
tp209
a(I114
F51532.323539062498
I2
I1
I0
tp210
a(I115
F51532.323539062498
I4
I1
I0
tp211
a(I116
F52785.951468749998
I1
I1
I0
tp212
a(I117
F52785.951468749998
I4
I1
I0
tp213
a(I118
F54039.579398437498
I1
I1
I0
tp214
a(I119
F54039.579398437498
I3
I1
I0
tp215
aa(lp216
(I0
F162.846
I4
I1
I0
tp217
a(I1
F759.90459375
I3
I1
I0
tp218
a(I2
F1073.0676796875
I2
I0
I0
tp219
a(I3
F1387.2063515625
I1
I0
I0
tp220
a(I4
F1700.3694375
I3
I1
I0
tp221
a(I5
F2013.5325234375
I1
I0
I0
tp222
a(I6
F2013.5325234375
I3
I0
I0
tp223
a(I7
F2640.83428125
I3
I0
I0
tp224
a(I8
F3267.160453125
I1
I1
I0
tp225
a(I9
F3580.3235390625
I2
I1
I0
tp226
a(I10
F3894.4622109375
I3
I0
I0
tp227
a(I11
F4207.6252968749995
I1
I1
I0
tp228
a(I12
F4520.7883828124995
I1
I0
I0
tp229
a(I13
F4520.7883828124995
I4
I0
I0
tp230
a(I14
F5148.0901406249995
I1
I1
I0
tp231
a(I15
F5148.0901406249995
I4
I1
I0
tp232
a(I16
F5774.4163124999995
I2
I1
I0
tp233
a(I17
F6087.5793984374995
I3
I1
I0
tp234
a(I18
F6401.7180703124995
I4
I1
I0
tp235
a(I19
F6714.8811562499995
I1
I1
I0
tp236
a(I20
F7028.0442421874995
I1
I1
I0
tp237
a(I21
F7028.0442421874995
I3
I1
I0
tp238
a(I22
F7655.3459999999995
I2
I0
I0
tp239
a(I23
F7655.3459999999995
I4
I0
I0
tp240
a(I24
F8281.6721718749995
I2
I0
I0
tp241
a(I25
F8594.8352578124995
I3
I0
I0
tp242
a(I26
F8908.9739296874995
I4
I0
I0
tp243
a(I27
F9222.1370156249995
I1
I0
I0
tp244
a(I28
F9535.3001015624995
I2
I0
I0
tp245
a(I29
F9535.3001015624995
I3
I0
I0
tp246
a(I30
F10162.601859375
I4
I1
I0
tp247
a(I31
F10788.92803125
I3
I1
I0
tp248
a(I32
F11103.066703125
I2
I0
I0
tp249
a(I33
F11416.2297890625
I1
I0
I0
tp250
a(I34
F11729.392875
I3
I1
I0
tp251
a(I35
F12042.5559609375
I1
I0
I0
tp252
a(I36
F12042.5559609375
I3
I0
I0
tp253
a(I37
F12669.85771875
I3
I0
I0
tp254
a(I38
F13296.183890625
I1
I1
I0
tp255
a(I39
F13610.3225625
I2
I1
I0
tp256
a(I40
F13923.4856484375
I3
I0
I0
tp257
a(I41
F14236.648734375
I1
I1
I0
tp258
a(I42
F14549.8118203125
I1
I0
I0
tp259
a(I43
F14549.8118203125
I4
I0
I0
tp260
a(I44
F15177.113578125
I1
I1
I0
tp261
a(I45
F15177.113578125
I4
I1
I0
tp262
a(I46
F15803.43975
I2
I1
I0
tp263
a(I47
F16117.578421875
I3
I1
I0
tp264
a(I48
F16430.741507812501
I4
I1
I0
tp265
a(I49
F16743.904593750001
I1
I1
I0
tp266
a(I50
F17057.067679687501
I1
I1
I0
tp267
a(I51
F17057.067679687501
I3
I1
I0
tp268
a(I52
F17684.369437500001
I2
I0
I0
tp269
a(I53
F17684.369437500001
I4
I0
I0
tp270
a(I54
F18310.695609375001
I2
I0
I0
tp271
a(I55
F18624.834281250001
I3
I0
I0
tp272
a(I56
F18937.997367187501
I4
I0
I0
tp273
a(I57
F19251.160453125001
I1
I0
I0
tp274
a(I58
F19564.323539062501
I2
I0
I0
tp275
a(I59
F19564.323539062501
I3
I0
I0
tp276
a(I60
F20191.625296875001
I3
I0
I0
tp277
a(I61
F20191.625296875001
I4
I0
I0
tp278
a(I62
F21445.253226562501
I3
I1
I0
tp279
a(I63
F22071.579398437501
I4
I1
I0
tp280
a(I64
F22698.881156250001
I1
I0
I0
tp281
a(I65
F22698.881156250001
I2
I0
I0
tp282
a(I66
F23952.509085937501
I2
I1
I0
tp283
a(I67
F24578.835257812501
I1
I1
I0
tp284
a(I68
F25206.137015625001
I2
I1
I0
tp285
a(I69
F25206.137015625001
I3
I1
I0
tp286
a(I70
F25832.463187500001
I1
I1
I0
tp287
a(I71
F25832.463187500001
I4
I1
I0
tp288
a(I72
F26459.764945312501
I2
I1
I0
tp289
a(I73
F26459.764945312501
I4
I1
I0
tp290
a(I74
F27087.066703125001
I1
I1
I0
tp291
a(I75
F27087.066703125001
I3
I1
I0
tp292
a(I76
F27713.392875000001
I1
I0
I0
tp293
a(I77
F27713.392875000001
I4
I0
I0
tp294
a(I78
F28340.694632812501
I2
I0
I0
tp295
a(I79
F28340.694632812501
I4
I0
I0
tp296
a(I80
F28967.020804687501
I1
I0
I0
tp297
a(I81
F28967.020804687501
I3
I0
I0
tp298
a(I82
F29594.322562500001
I2
I0
I0
tp299
a(I83
F29594.322562500001
I3
I0
I0
tp300
a(I84
F30220.648734375001
I4
I1
I0
tp301
a(I85
F30847.950492187501
I3
I1
I0
tp302
a(I86
F31161.113578125001
I2
I0
I0
tp303
a(I87
F31474.276664062501
I1
I0
I0
tp304
a(I88
F31787.439750000001
I3
I1
I0
tp305
a(I89
F32101.578421875001
I1
I0
I0
tp306
a(I90
F32101.578421875001
I3
I0
I0
tp307
a(I91
F32727.904593750001
I3
I0
I0
tp308
a(I92
F33355.206351562498
I1
I1
I0
tp309
a(I93
F33668.369437499998
I2
I1
I0
tp310
a(I94
F33981.532523437498
I3
I0
I0
tp311
a(I95
F34294.695609374998
I1
I1
I0
tp312
a(I96
F34608.834281249998
I1
I0
I0
tp313
a(I97
F34608.834281249998
I4
I0
I0
tp314
a(I98
F35235.160453124998
I1
I1
I0
tp315
a(I99
F35235.160453124998
I4
I1
I0
tp316
a(I100
F35862.462210937498
I2
I1
I0
tp317
a(I101
F36175.625296874998
I3
I1
I0
tp318
a(I102
F36488.788382812498
I4
I1
I0
tp319
a(I103
F36801.951468749998
I1
I1
I0
tp320
a(I104
F37116.090140624998
I1
I1
I0
tp321
a(I105
F37116.090140624998
I3
I1
I0
tp322
a(I106
F37742.416312499998
I2
I0
I0
tp323
a(I107
F37742.416312499998
I4
I0
I0
tp324
a(I108
F38369.718070312498
I2
I0
I0
tp325
a(I109
F38682.881156249998
I3
I0
I0
tp326
a(I110
F38996.044242187498
I4
I0
I0
tp327
a(I111
F39309.207328124998
I1
I0
I0
tp328
a(I112
F39623.345999999998
I2
I0
I0
tp329
a(I113
F39623.345999999998
I3
I0
I0
tp330
a(I114
F40249.672171874998
I4
I1
I0
tp331
a(I115
F40876.973929687498
I3
I1
I0
tp332
a(I116
F41190.137015624998
I2
I0
I0
tp333
a(I117
F41503.300101562498
I1
I0
I0
tp334
a(I118
F41816.463187499998
I3
I1
I0
tp335
a(I119
F42130.601859374998
I1
I0
I0
tp336
a(I120
F42130.601859374998
I3
I0
I0
tp337
a(I121
F42756.928031249998
I3
I0
I0
tp338
a(I122
F43384.229789062498
I1
I1
I0
tp339
a(I123
F43697.392874999998
I2
I1
I0
tp340
a(I124
F44010.555960937498
I3
I0
I0
tp341
a(I125
F44324.694632812498
I1
I1
I0
tp342
a(I126
F44637.857718749998
I1
I0
I0
tp343
a(I127
F44637.857718749998
I4
I0
I0
tp344
a(I128
F45264.183890624998
I1
I1
I0
tp345
a(I129
F45891.485648437498
I4
I1
I0
tp346
a(I130
F46204.648734374998
I3
I0
I0
tp347
a(I131
F46517.811820312498
I2
I0
I0
tp348
a(I132
F46831.950492187498
I4
I1
I0
tp349
a(I133
F47145.113578124998
I1
I0
I0
tp350
a(I134
F47145.113578124998
I4
I0
I0
tp351
a(I135
F47771.439749999998
I4
I0
I0
tp352
a(I136
F48398.741507812498
I2
I1
I0
tp353
a(I137
F48711.904593749998
I3
I1
I0
tp354
a(I138
F49025.067679687498
I4
I0
I0
tp355
a(I139
F49339.206351562498
I2
I1
I0
tp356
a(I140
F49652.369437499998
I2
I1
I0
tp357
a(I141
F49652.369437499998
I4
I1
I0
tp358
a(I142
F50278.695609374998
I2
I1
I0
tp359
a(I143
F50278.695609374998
I3
I1
I0
tp360
a(I144
F50905.997367187498
I1
I1
I0
tp361
a(I145
F50905.997367187498
I4
I1
I0
tp362
a(I146
F51532.323539062498
I2
I1
I0
tp363
a(I147
F51532.323539062498
I4
I1
I0
tp364
a(I148
F52159.625296874998
I1
I1
I0
tp365
a(I149
F52159.625296874998
I3
I1
I0
tp366
a(I150
F52785.951468749998
I1
I0
I0
tp367
a(I151
F52785.951468749998
I4
I0
I0
tp368
a(I152
F53413.253226562498
I2
I0
I0
tp369
a(I153
F53413.253226562498
I4
I0
I0
tp370
a(I154
F54039.579398437498
I1
I0
I0
tp371
a(I155
F54039.579398437498
I3
I0
I0
tp372
a(I156
F54666.881156249998
I2
I0
I0
tp373
a(I157
F54666.881156249998
I3
I0
I0
tp374
aa.