(lp1
(lp2
(I0
F4218.9330937499999
I4
I0
I0
tp3
a(I1
F5256.9565312499999
I2
I0
I0
tp4
a(I2
F6294.9799687499999
I3
I0
I0
tp5
a(I3
F7333.0034062499999
I1
I0
I0
tp6
a(I4
F8371.0268437499999
I2
I1
I0
tp7
a(I5
F8760.2856328124999
I3
I1
I0
tp8
a(I6
F8760.2856328124999
I4
I1
I0
tp9
a(I7
F9928.0619999999999
I3
I0
I0
tp10
a(I8
F10447.07371875
I1
I0
I0
tp11
a(I9
F10836.3325078125
I2
I0
I0
tp12
a(I10
F11225.591296875
I3
I1
I0
tp13
a(I11
F12523.12059375
I2
I0
I0
tp14
a(I12
F12912.3793828125
I3
I0
I0
tp15
a(I13
F12912.3793828125
I4
I0
I0
tp16
a(I14
F14080.15575
I1
I1
I0
tp17
a(I15
F14598.1918828125
I1
I0
I0
tp18
a(I16
F14987.450671875
I3
I1
I0
tp19
a(I17
F15636.2153203125
I2
I0
I0
tp20
a(I18
F16025.474109375
I1
I1
I0
tp21
a(I19
F16674.238757812502
I2
I1
I0
tp22
a(I20
F17063.497546875002
I3
I1
I0
tp23
a(I21
F17063.497546875002
I4
I1
I0
tp24
a(I22
F18231.273914062502
I3
I0
I0
tp25
a(I23
F18750.285632812502
I1
I0
I0
tp26
a(I24
F19139.544421875002
I2
I0
I0
tp27
a(I25
F19528.803210937502
I3
I0
I0
tp28
a(I26
F20826.332507812502
I2
I0
I0
tp29
a(I27
F21215.591296875002
I3
I0
I0
tp30
a(I28
F21215.591296875002
I4
I0
I0
tp31
a(I29
F22383.367664062502
I1
I1
I0
tp32
a(I30
F22902.379382812502
I1
I0
I0
tp33
a(I31
F23291.638171875002
I3
I0
I0
tp34
a(I32
F23940.402820312502
I2
I0
I0
tp35
a(I33
F24328.686023437502
I1
I1
I0
tp36
a(I34
F24977.450671875002
I4
I1
I0
tp37
a(I35
F26015.474109375002
I2
I1
I0
tp38
a(I36
F27053.497546875002
I3
I1
I0
tp39
a(I37
F28091.520984375002
I1
I1
I0
tp40
a(I38
F29129.544421875002
I4
I0
I0
tp41
a(I39
F30167.567859375002
I2
I0
I0
tp42
a(I40
F31205.591296875002
I3
I0
I0
tp43
a(I41
F32243.614734375002
I1
I0
I0
tp44
a(I42
F33281.638171874998
I2
I1
I0
tp45
a(I43
F33670.896960937498
I3
I1
I0
tp46
a(I44
F33670.896960937498
I4
I1
I0
tp47
a(I45
F34837.697742187498
I1
I1
I0
tp48
a(I46
F35356.709460937498
I1
I0
I0
tp49
a(I47
F35745.968249999998
I2
I0
I0
tp50
a(I48
F36135.227039062498
I3
I1
I0
tp51
a(I49
F37432.756335937498
I2
I0
I0
tp52
a(I50
F37822.015124999998
I3
I0
I0
tp53
a(I51
F37822.015124999998
I4
I0
I0
tp54
a(I52
F38989.791492187498
I1
I1
I0
tp55
a(I53
F39508.803210937498
I1
I0
I0
tp56
a(I54
F39898.061999999998
I3
I1
I0
tp57
a(I55
F40546.826648437498
I2
I0
I0
tp58
a(I56
F40936.085437499998
I1
I1
I0
tp59
a(I57
F41584.850085937498
I2
I1
I0
tp60
a(I58
F41974.108874999998
I3
I1
I0
tp61
a(I59
F41974.108874999998
I4
I1
I0
tp62
a(I60
F43141.885242187498
I1
I1
I0
tp63
a(I61
F43660.896960937498
I1
I0
I0
tp64
a(I62
F44050.155749999998
I2
I0
I0
tp65
a(I63
F44438.438953124998
I3
I1
I0
tp66
a(I64
F45735.968249999998
I2
I0
I0
tp67
a(I65
F46125.227039062498
I3
I0
I0
tp68
a(I66
F46125.227039062498
I4
I0
I0
tp69
a(I67
F47293.003406249998
I1
I1
I0
tp70
a(I68
F47812.015124999998
I1
I0
I0
tp71
a(I69
F48201.273914062498
I3
I1
I0
tp72
a(I70
F48850.038562499998
I3
I0
I0
tp73
a(I71
F49369.050281249998
I2
I1
I0
tp74
a(I72
F49888.061999999998
I4
I0
I0
tp75
a(I73
F50277.320789062498
I2
I1
I0
tp76
a(I74
F50926.085437499998
I4
I0
I0
tp77
a(I75
F51315.344226562498
I1
I1
I0
tp78
a(I76
F51964.108874999998
I4
I1
I0
tp79
a(I77
F52353.367664062498
I3
I0
I0
tp80
a(I78
F53002.132312499998
I1
I1
I0
tp81
a(I79
F53002.132312499998
I2
I1
I0
tp82
a(I80
F54040.155749999998
I3
I0
I0
tp83
a(I81
F54428.438953124998
I2
I1
I0
tp84
a(I82
F55088.910632812498
I3
I0
I0
tp85
a(I83
F55508.412585937498
I1
I0
I0
tp86
a(I84
F56255.711414062498
I3
I1
I0
tp87
a(I85
F56734.724109374998
I2
I1
I0
tp88
a(I86
F57595.190906249998
I1
I1
I0
tp89
a(I87
F57595.190906249998
I2
I1
I0
tp90
a(I88
F58349.318835937498
I1
I0
I0
tp91
a(I89
F58349.318835937498
I2
I0
I0
tp92
a(I90
F61407.780749999998
I3
I1
I0
tp93
a(I91
F61926.792468749998
I4
I1
I0
tp94
a(I92
F62444.828601562498
I3
I0
I0
tp95
a(I93
F62963.840320312498
I4
I0
I0
tp96
a(I94
F63482.852039062498
I1
I1
I0
tp97
a(I95
F64001.863757812498
I2
I1
I0
tp98
a(I96
F64520.875476562498
I1
I0
I0
tp99
a(I97
F65039.887195312498
I2
I0
I0
tp100
aa(lp101
(I0
F4218.9330937499999
I4
I0
I0
tp102
a(I1
F4737.9448124999999
I2
I0
I0
tp103
a(I2
F5256.9565312499999
I4
I1
I0
tp104
a(I3
F5516.4623906249999
I2
I1
I0
tp105
a(I4
F5775.9682499999999
I3
I1
I0
tp106
a(I5
F6035.4741093749999
I1
I1
I0
tp107
a(I6
F6294.9799687499999
I4
I0
I0
tp108
a(I7
F6813.9916874999999
I2
I0
I0
tp109
a(I8
F7333.0034062499999
I1
I1
I0
tp110
a(I9
F7592.5092656249999
I3
I1
I0
tp111
a(I10
F7852.0151249999999
I2
I1
I0
tp112
a(I11
F8111.5209843749999
I4
I1
I0
tp113
a(I12
F8371.0268437499999
I2
I1
I0
tp114
a(I13
F8760.2856328124999
I3
I1
I0
tp115
a(I14
F8760.2856328124999
I4
I1
I0
tp116
a(I15
F9928.0619999999999
I1
I1
I0
tp117
a(I16
F10187.567859375
I3
I0
I0
tp118
a(I17
F10447.07371875
I1
I0
I0
tp119
a(I18
F10836.3325078125
I2
I0
I0
tp120
a(I19
F11225.591296875
I1
I1
I0
tp121
a(I20
F11225.591296875
I2
I1
I0
tp122
a(I21
F12004.108875
I3
I0
I0
tp123
a(I22
F12263.614734375
I1
I0
I0
tp124
a(I23
F12523.12059375
I2
I0
I0
tp125
a(I24
F12912.3793828125
I3
I0
I0
tp126
a(I25
F12912.3793828125
I4
I0
I0
tp127
a(I26
F14080.15575
I1
I1
I0
tp128
a(I27
F14338.6860234375
I3
I0
I0
tp129
a(I28
F14598.1918828125
I1
I0
I0
tp130
a(I29
F14987.450671875
I3
I1
I0
tp131
a(I30
F14987.450671875
I4
I1
I0
tp132
a(I31
F15636.2153203125
I2
I0
I0
tp133
a(I32
F16025.474109375
I3
I1
I0
tp134
a(I33
F16674.238757812502
I2
I0
I0
tp135
a(I34
F17063.497546875002
I3
I1
I0
tp136
a(I35
F17063.497546875002
I4
I1
I0
tp137
a(I36
F18231.273914062502
I1
I1
I0
tp138
a(I37
F18490.779773437502
I3
I0
I0
tp139
a(I38
F18750.285632812502
I1
I0
I0
tp140
a(I39
F19139.544421875002
I2
I1
I0
tp141
a(I40
F19528.803210937502
I1
I1
I0
tp142
a(I41
F19528.803210937502
I2
I1
I0
tp143
a(I42
F20307.320789062502
I3
I0
I0
tp144
a(I43
F20566.826648437502
I1
I0
I0
tp145
a(I44
F20826.332507812502
I2
I0
I0
tp146
a(I45
F21215.591296875002
I3
I0
I0
tp147
a(I46
F21215.591296875002
I4
I0
I0
tp148
a(I47
F22383.367664062502
I1
I1
I0
tp149
a(I48
F22642.873523437502
I3
I0
I0
tp150
a(I49
F22902.379382812502
I1
I0
I0
tp151
a(I50
F23291.638171875002
I3
I1
I0
tp152
a(I51
F23291.638171875002
I4
I1
I0
tp153
a(I52
F23940.402820312502
I2
I0
I0
tp154
a(I53
F24458.438953125002
I3
I1
I0
tp155
a(I54
F24977.450671875002
I4
I0
I0
tp156
a(I55
F25496.462390625002
I2
I0
I0
tp157
a(I56
F26015.474109375002
I4
I1
I0
tp158
a(I57
F26274.979968750002
I2
I1
I0
tp159
a(I58
F26534.485828125002
I3
I1
I0
tp160
a(I59
F26793.991687500002
I1
I1
I0
tp161
a(I60
F27053.497546875002
I4
I0
I0
tp162
a(I61
F27442.756335937502
I2
I0
I0
tp163
a(I62
F28091.520984375002
I1
I1
I0
tp164
a(I63
F28351.026843750002
I3
I1
I0
tp165
a(I64
F28610.532703125002
I2
I1
I0
tp166
a(I65
F28870.038562500002
I4
I1
I0
tp167
a(I66
F29129.544421875002
I4
I0
I0
tp168
a(I67
F29518.803210937502
I2
I0
I0
tp169
a(I68
F30167.567859375002
I4
I1
I0
tp170
a(I69
F30427.073718750002
I2
I1
I0
tp171
a(I70
F30686.579578125002
I3
I1
I0
tp172
a(I71
F30946.085437500002
I1
I1
I0
tp173
a(I72
F31205.591296875002
I4
I0
I0
tp174
a(I73
F31594.850085937502
I2
I0
I0
tp175
a(I74
F32243.614734375002
I1
I1
I0
tp176
a(I75
F32503.120593750002
I3
I1
I0
tp177
a(I76
F32762.626453125002
I2
I1
I0
tp178
a(I77
F32892.379382812498
I4
I1
I0
tp179
a(I78
F33281.638171874998
I2
I1
I0
tp180
a(I79
F33670.896960937498
I3
I1
I0
tp181
a(I80
F33670.896960937498
I4
I1
I0
tp182
a(I81
F34837.697742187498
I1
I1
I0
tp183
a(I82
F35097.203601562498
I3
I0
I0
tp184
a(I83
F35356.709460937498
I1
I0
I0
tp185
a(I84
F35745.968249999998
I2
I0
I0
tp186
a(I85
F36135.227039062498
I1
I1
I0
tp187
a(I86
F36135.227039062498
I2
I1
I0
tp188
a(I87
F36913.744617187498
I3
I0
I0
tp189
a(I88
F37173.250476562498
I1
I0
I0
tp190
a(I89
F37432.756335937498
I2
I0
I0
tp191
a(I90
F37822.015124999998
I3
I0
I0
tp192
a(I91
F37822.015124999998
I4
I0
I0
tp193
a(I92
F38989.791492187498
I1
I1
I0
tp194
a(I93
F39249.297351562498
I3
I0
I0
tp195
a(I94
F39508.803210937498
I1
I0
I0
tp196
a(I95
F39898.061999999998
I3
I1
I0
tp197
a(I96
F39898.061999999998
I4
I1
I0
tp198
a(I97
F40546.826648437498
I2
I0
I0
tp199
a(I98
F40936.085437499998
I3
I1
I0
tp200
a(I99
F41584.850085937498
I2
I0
I0
tp201
a(I100
F41974.108874999998
I3
I1
I0
tp202
a(I101
F41974.108874999998
I4
I1
I0
tp203
a(I102
F43141.885242187498
I1
I1
I0
tp204
a(I103
F43401.391101562498
I3
I0
I0
tp205
a(I104
F43660.896960937498
I1
I0
I0
tp206
a(I105
F44050.155749999998
I3
I0
I0
tp207
a(I106
F44438.438953124998
I1
I1
I0
tp208
a(I107
F44438.438953124998
I2
I1
I0
tp209
a(I108
F45216.956531249998
I3
I0
I0
tp210
a(I109
F45476.462390624998
I1
I0
I0
tp211
a(I110
F45735.968249999998
I2
I0
I0
tp212
a(I111
F46125.227039062498
I3
I0
I0
tp213
a(I112
F46125.227039062498
I4
I0
I0
tp214
a(I113
F47293.003406249998
I1
I1
I0
tp215
a(I114
F47552.509265624998
I3
I0
I0
tp216
a(I115
F47812.015124999998
I1
I0
I0
tp217
a(I116
F48201.273914062498
I3
I1
I0
tp218
a(I117
F48201.273914062498
I4
I1
I0
tp219
a(I118
F48850.038562499998
I2
I0
I0
tp220
a(I119
F49369.050281249998
I3
I1
I0
tp221
a(I120
F49888.061999999998
I4
I0
I0
tp222
a(I121
F50277.320789062498
I2
I1
I0
tp223
a(I122
F50926.085437499998
I4
I0
I0
tp224
a(I123
F51315.344226562498
I1
I1
I0
tp225
a(I124
F51964.108874999998
I4
I1
I0
tp226
a(I125
F52353.367664062498
I2
I1
I0
tp227
a(I126
F53002.132312499998
I1
I1
I0
tp228
a(I127
F53002.132312499998
I2
I1
I0
tp229
a(I128
F53261.638171874998
I3
I0
I0
tp230
a(I129
F53521.144031249998
I2
I1
I0
tp231
a(I130
F53780.649890624998
I3
I0
I0
tp232
a(I131
F54040.155749999998
I3
I1
I0
tp233
a(I132
F54428.438953124998
I2
I1
I0
tp234
a(I133
F55088.910632812498
I3
I1
I0
tp235
a(I134
F55508.412585937498
I1
I0
I0
tp236
a(I135
F56255.711414062498
I3
I1
I0
tp237
a(I136
F56734.724109374998
I2
I1
I0
tp238
a(I137
F57595.190906249998
I1
I1
I0
tp239
a(I138
F57595.190906249998
I2
I1
I0
tp240
a(I139
F58349.318835937498
I1
I0
I0
tp241
a(I140
F58349.318835937498
I2
I0
I0
tp242
a(I141
F61407.780749999998
I3
I1
I0
tp243
a(I142
F61926.792468749998
I3
I0
I0
tp244
a(I143
F62444.828601562498
I4
I1
I0
tp245
a(I144
F62704.334460937498
I2
I1
I0
tp246
a(I145
F62963.840320312498
I3
I1
I0
tp247
a(I146
F63223.346179687498
I1
I1
I0
tp248
a(I147
F63482.852039062498
I4
I0
I0
tp249
a(I148
F64001.863757812498
I2
I0
I0
tp250
a(I149
F64520.875476562498
I1
I1
I0
tp251
a(I150
F65039.887195312498
I2
I1
I0
tp252
aa(lp253
(I0
F4218.9330937499999
I4
I0
I0
tp254
a(I1
F4737.9448124999999
I2
I0
I0
tp255
a(I2
F5256.9565312499999
I4
I1
I0
tp256
a(I3
F5516.4623906249999
I2
I1
I0
tp257
a(I4
F5775.9682499999999
I3
I1
I0
tp258
a(I5
F6035.4741093749999
I1
I1
I0
tp259
a(I6
F6294.9799687499999
I4
I0
I0
tp260
a(I7
F6813.9916874999999
I2
I0
I0
tp261
a(I8
F7333.0034062499999
I1
I1
I0
tp262
a(I9
F7592.5092656249999
I3
I1
I0
tp263
a(I10
F7852.0151249999999
I2
I1
I0
tp264
a(I11
F8111.5209843749999
I4
I1
I0
tp265
a(I12
F8371.0268437499999
I2
I1
I0
tp266
a(I13
F8630.5327031249999
I3
I1
I0
tp267
a(I14
F8760.2856328124999
I3
I1
I0
tp268
a(I15
F8760.2856328124999
I4
I1
I0
tp269
a(I16
F9928.0619999999999
I1
I1
I0
tp270
a(I17
F10187.567859375
I3
I0
I0
tp271
a(I18
F10447.07371875
I1
I0
I0
tp272
a(I19
F10836.3325078125
I2
I0
I0
tp273
a(I20
F11225.591296875
I1
I1
I0
tp274
a(I21
F11225.591296875
I2
I1
I0
tp275
a(I22
F12004.108875
I3
I0
I0
tp276
a(I23
F12263.614734375
I1
I0
I0
tp277
a(I24
F12523.12059375
I2
I0
I0
tp278
a(I25
F12782.626453125
I3
I1
I0
tp279
a(I26
F12912.3793828125
I3
I0
I0
tp280
a(I27
F12912.3793828125
I4
I0
I0
tp281
a(I28
F14080.15575
I1
I1
I0
tp282
a(I29
F14338.6860234375
I3
I0
I0
tp283
a(I30
F14598.1918828125
I1
I0
I0
tp284
a(I31
F14987.450671875
I3
I1
I0
tp285
a(I32
F14987.450671875
I4
I1
I0
tp286
a(I33
F15636.2153203125
I2
I0
I0
tp287
a(I34
F16025.474109375
I3
I1
I0
tp288
a(I35
F16674.238757812502
I2
I0
I0
tp289
a(I36
F16933.744617187502
I3
I0
I0
tp290
a(I37
F17063.497546875002
I3
I1
I0
tp291
a(I38
F17063.497546875002
I4
I1
I0
tp292
a(I39
F18231.273914062502
I1
I1
I0
tp293
a(I40
F18490.779773437502
I3
I0
I0
tp294
a(I41
F18750.285632812502
I1
I0
I0
tp295
a(I42
F19139.544421875002
I2
I1
I0
tp296
a(I43
F19528.803210937502
I1
I1
I0
tp297
a(I44
F19528.803210937502
I2
I1
I0
tp298
a(I45
F20307.320789062502
I3
I0
I0
tp299
a(I46
F20566.826648437502
I1
I0
I0
tp300
a(I47
F20826.332507812502
I2
I0
I0
tp301
a(I48
F21085.838367187502
I3
I0
I0
tp302
a(I49
F21215.591296875002
I3
I0
I0
tp303
a(I50
F21215.591296875002
I4
I0
I0
tp304
a(I51
F22383.367664062502
I1
I1
I0
tp305
a(I52
F22642.873523437502
I3
I0
I0
tp306
a(I53
F22902.379382812502
I1
I0
I0
tp307
a(I54
F23291.638171875002
I3
I1
I0
tp308
a(I55
F23291.638171875002
I4
I1
I0
tp309
a(I56
F23940.402820312502
I2
I0
I0
tp310
a(I57
F24458.438953125002
I3
I1
I0
tp311
a(I58
F24977.450671875002
I1
I0
I0
tp312
a(I59
F24977.450671875002
I3
I0
I0
tp313
a(I60
F25496.462390625002
I2
I1
I0
tp314
a(I61
F25496.462390625002
I4
I1
I0
tp315
a(I62
F26015.474109375002
I4
I1
I0
tp316
a(I63
F26274.979968750002
I2
I1
I0
tp317
a(I64
F26534.485828125002
I3
I1
I0
tp318
a(I65
F26793.991687500002
I1
I1
I0
tp319
a(I66
F27053.497546875002
I1
I0
I0
tp320
a(I67
F27053.497546875002
I3
I0
I0
tp321
a(I68
F27442.756335937502
I2
I1
I0
tp322
a(I69
F27442.756335937502
I4
I1
I0
tp323
a(I70
F28091.520984375002
I1
I1
I0
tp324
a(I71
F28351.026843750002
I3
I1
I0
tp325
a(I72
F28610.532703125002
I2
I1
I0
tp326
a(I73
F28870.038562500002
I4
I1
I0
tp327
a(I74
F29129.544421875002
I1
I1
I0
tp328
a(I75
F29129.544421875002
I3
I1
I0
tp329
a(I76
F29518.803210937502
I2
I0
I0
tp330
a(I77
F29518.803210937502
I4
I0
I0
tp331
a(I78
F30167.567859375002
I4
I1
I0
tp332
a(I79
F30427.073718750002
I2
I1
I0
tp333
a(I80
F30686.579578125002
I3
I1
I0
tp334
a(I81
F30946.085437500002
I1
I1
I0
tp335
a(I82
F31205.591296875002
I1
I0
I0
tp336
a(I83
F31205.591296875002
I3
I0
I0
tp337
a(I84
F31594.850085937502
I2
I1
I0
tp338
a(I85
F31594.850085937502
I4
I1
I0
tp339
a(I86
F32243.614734375002
I1
I1
I0
tp340
a(I87
F32503.120593750002
I3
I1
I0
tp341
a(I88
F32762.626453125002
I2
I1
I0
tp342
a(I89
F32892.379382812498
I4
I1
I0
tp343
a(I90
F33281.638171874998
I2
I1
I0
tp344
a(I91
F33541.144031249998
I1
I1
I0
tp345
a(I92
F33670.896960937498
I3
I1
I0
tp346
a(I93
F33670.896960937498
I4
I1
I0
tp347
a(I94
F34837.697742187498
I1
I1
I0
tp348
a(I95
F35097.203601562498
I3
I0
I0
tp349
a(I96
F35356.709460937498
I1
I0
I0
tp350
a(I97
F35745.968249999998
I2
I0
I0
tp351
a(I98
F36135.227039062498
I1
I1
I0
tp352
a(I99
F36135.227039062498
I2
I1
I0
tp353
a(I100
F36913.744617187498
I3
I0
I0
tp354
a(I101
F37173.250476562498
I1
I0
I0
tp355
a(I102
F37432.756335937498
I2
I0
I0
tp356
a(I103
F37692.262195312498
I1
I0
I0
tp357
a(I104
F37822.015124999998
I3
I0
I0
tp358
a(I105
F37822.015124999998
I4
I0
I0
tp359
a(I106
F38989.791492187498
I1
I1
I0
tp360
a(I107
F39249.297351562498
I3
I0
I0
tp361
a(I108
F39508.803210937498
I1
I0
I0
tp362
a(I109
F39898.061999999998
I3
I1
I0
tp363
a(I110
F39898.061999999998
I4
I1
I0
tp364
a(I111
F40546.826648437498
I2
I0
I0
tp365
a(I112
F40936.085437499998
I3
I1
I0
tp366
a(I113
F41584.850085937498
I2
I0
I0
tp367
a(I114
F41844.355945312498
I1
I1
I0
tp368
a(I115
F41974.108874999998
I3
I1
I0
tp369
a(I116
F41974.108874999998
I4
I1
I0
tp370
a(I117
F43141.885242187498
I1
I1
I0
tp371
a(I118
F43401.391101562498
I3
I0
I0
tp372
a(I119
F43660.896960937498
I1
I0
I0
tp373
a(I120
F44050.155749999998
I3
I0
I0
tp374
a(I121
F44438.438953124998
I1
I1
I0
tp375
a(I122
F44438.438953124998
I2
I1
I0
tp376
a(I123
F45216.956531249998
I3
I0
I0
tp377
a(I124
F45476.462390624998
I1
I0
I0
tp378
a(I125
F45735.968249999998
I2
I0
I0
tp379
a(I126
F45995.474109374998
I1
I0
I0
tp380
a(I127
F46125.227039062498
I3
I0
I0
tp381
a(I128
F46125.227039062498
I4
I0
I0
tp382
a(I129
F47293.003406249998
I1
I1
I0
tp383
a(I130
F47552.509265624998
I3
I0
I0
tp384
a(I131
F47812.015124999998
I1
I0
I0
tp385
a(I132
F48201.273914062498
I3
I1
I0
tp386
a(I133
F48201.273914062498
I4
I1
I0
tp387
a(I134
F48850.038562499998
I2
I0
I0
tp388
a(I135
F49369.050281249998
I3
I1
I0
tp389
a(I136
F49888.061999999998
I4
I0
I0
tp390
a(I137
F50277.320789062498
I2
I1
I0
tp391
a(I138
F50926.085437499998
I4
I0
I0
tp392
a(I139
F51315.344226562498
I1
I0
I0
tp393
a(I140
F51964.108874999998
I4
I1
I0
tp394
a(I141
F52353.367664062498
I2
I1
I0
tp395
a(I142
F53002.132312499998
I1
I1
I0
tp396
a(I143
F53002.132312499998
I2
I1
I0
tp397
a(I144
F53261.638171874998
I3
I0
I0
tp398
a(I145
F53521.144031249998
I2
I1
I0
tp399
a(I146
F53780.649890624998
I1
I1
I0
tp400
a(I147
F53780.649890624998
I4
I1
I0
tp401
a(I148
F54040.155749999998
I3
I1
I0
tp402
a(I149
F54428.438953124998
I2
I1
I0
tp403
a(I150
F55088.910632812498
I3
I1
I0
tp404
a(I151
F55508.412585937498
I1
I0
I0
tp405
a(I152
F56255.711414062498
I3
I1
I0
tp406
a(I153
F56734.724109374998
I2
I1
I0
tp407
a(I154
F57595.190906249998
I1
I1
I0
tp408
a(I155
F57595.190906249998
I2
I1
I0
tp409
a(I156
F58349.318835937498
I1
I0
I0
tp410
a(I157
F58349.318835937498
I2
I0
I0
tp411
a(I158
F61407.780749999998
I3
I1
I0
tp412
a(I159
F61926.792468749998
I3
I0
I0
tp413
a(I160
F62444.828601562498
I4
I1
I0
tp414
a(I161
F62704.334460937498
I2
I1
I0
tp415
a(I162
F62963.840320312498
I3
I1
I0
tp416
a(I163
F63223.346179687498
I1
I1
I0
tp417
a(I164
F63482.852039062498
I4
I0
I0
tp418
a(I165
F64001.863757812498
I2
I0
I0
tp419
a(I166
F64520.875476562498
I1
I1
I0
tp420
a(I167
F65039.887195312498
I2
I1
I0
tp421
aa.