(lp1
(lp2
(I0
F3324.140625
I3
I0
I0
tp3
a(I1
F4124.921875
I2
I1
I0
tp4
a(I2
F4924.7265625
I3
I1
I0
tp5
a(I3
F5324.140625
I1
I0
I0
tp6
a(I4
F5724.53125
I4
I1
I0
tp7
a(I5
F6524.3359375
I1
I1
I0
tp8
a(I6
F6924.7265625
I3
I0
I0
tp9
a(I7
F7324.140625
I2
I1
I0
tp10
a(I8
F8124.921875
I4
I1
I0
tp11
a(I9
F8524.3359375
I2
I0
I0
tp12
a(I10
F8924.7265625
I1
I1
I0
tp13
a(I11
F8924.7265625
I2
I1
I0
tp14
a(I12
F9724.53125
I3
I1
I0
tp15
a(I13
F10524.3359375
I3
I0
I0
tp16
a(I14
F11324.140625
I1
I1
I0
tp17
a(I15
F11724.53125
I2
I1
I0
tp18
a(I16
F12124.921875
I1
I0
I0
tp19
a(I17
F12124.921875
I2
I0
I0
tp20
a(I18
F12924.7265625
I1
I1
I0
tp21
a(I19
F13324.140625
I3
I0
I0
tp22
a(I20
F13724.53125
I2
I1
I0
tp23
a(I21
F14524.3359375
I4
I1
I0
tp24
a(I22
F14924.7265625
I2
I0
I0
tp25
a(I23
F15324.140625
I1
I1
I0
tp26
a(I24
F15324.140625
I2
I1
I0
tp27
a(I25
F16124.921875
I3
I1
I0
tp28
a(I26
F16524.3359375
I4
I1
I0
tp29
a(I27
F16924.7265625
I3
I0
I0
tp30
a(I28
F17724.53125
I1
I1
I0
tp31
a(I29
F18124.921875
I2
I1
I0
tp32
a(I30
F18524.3359375
I1
I0
I0
tp33
a(I31
F18524.3359375
I2
I0
I0
tp34
a(I32
F19324.140625
I1
I0
I0
tp35
a(I33
F19324.140625
I3
I0
I0
tp36
a(I34
F20124.921875
I3
I1
I0
tp37
a(I35
F20924.7265625
I1
I0
I0
tp38
a(I36
F20924.7265625
I4
I0
I0
tp39
a(I37
F21724.53125
I3
I1
I0
tp40
a(I38
F22524.3359375
I2
I0
I0
tp41
a(I39
F22524.3359375
I3
I0
I0
tp42
a(I40
F23324.140625
I3
I1
I0
tp43
a(I41
F24124.921875
I2
I0
I0
tp44
a(I42
F24124.921875
I4
I0
I0
tp45
a(I43
F24924.7265625
I3
I1
I0
tp46
a(I44
F25724.53125
I2
I0
I0
tp47
a(I45
F26324.140625
I1
I0
I0
tp48
a(I46
F26724.53125
I4
I0
I0
tp49
a(I47
F26924.7265625
I3
I0
I0
tp50
a(I48
F27324.140625
I1
I1
I0
tp51
a(I49
F27324.140625
I2
I1
I0
tp52
a(I50
F28924.7265625
I2
I0
I0
tp53
a(I51
F29524.3359375
I1
I0
I0
tp54
a(I52
F30124.921875
I2
I0
I0
tp55
a(I53
F30524.3359375
I3
I1
I0
tp56
a(I54
F30524.3359375
I4
I1
I0
tp57
a(I55
F32124.921875
I1
I0
I0
tp58
a(I56
F32124.921875
I3
I0
I0
tp59
a(I57
F32924.7265625
I3
I1
I0
tp60
a(I58
F33724.53125
I1
I0
I0
tp61
a(I59
F33724.53125
I4
I0
I0
tp62
a(I60
F34524.3359375
I3
I1
I0
tp63
a(I61
F35324.140625
I2
I0
I0
tp64
a(I62
F35324.140625
I3
I0
I0
tp65
a(I63
F36124.921875
I3
I1
I0
tp66
a(I64
F36924.7265625
I2
I0
I0
tp67
a(I65
F36924.7265625
I4
I0
I0
tp68
a(I66
F37724.53125
I3
I1
I0
tp69
a(I67
F38524.3359375
I2
I0
I0
tp70
a(I68
F39124.921875
I1
I0
I0
tp71
a(I69
F39524.3359375
I4
I0
I0
tp72
a(I70
F39724.53125
I3
I0
I0
tp73
a(I71
F40124.921875
I1
I1
I0
tp74
a(I72
F40124.921875
I2
I1
I0
tp75
a(I73
F41724.53125
I2
I0
I0
tp76
a(I74
F42324.140625
I1
I0
I0
tp77
a(I75
F42924.7265625
I2
I0
I0
tp78
a(I76
F43324.140625
I3
I1
I0
tp79
a(I77
F43324.140625
I4
I1
I0
tp80
a(I78
F44924.7265625
I1
I1
I0
tp81
aa(lp82
(I0
F3324.140625
I3
I0
I0
tp83
a(I1
F4124.921875
I2
I0
I0
tp84
a(I2
F4924.7265625
I3
I0
I0
tp85
a(I3
F5324.140625
I1
I0
I0
tp86
a(I4
F5724.53125
I4
I0
I0
tp87
a(I5
F6124.921875
I2
I0
I0
tp88
a(I6
F6524.3359375
I1
I1
I0
tp89
a(I7
F6924.7265625
I3
I0
I0
tp90
a(I8
F7324.140625
I2
I1
I0
tp91
a(I9
F7724.53125
I3
I0
I0
tp92
a(I10
F8124.921875
I4
I1
I0
tp93
a(I11
F8524.3359375
I2
I0
I0
tp94
a(I12
F8624.921875
I1
I0
I0
tp95
a(I13
F8924.7265625
I1
I1
I0
tp96
a(I14
F8924.7265625
I2
I1
I0
tp97
a(I15
F9724.53125
I3
I0
I0
tp98
a(I16
F10124.921875
I4
I1
I0
tp99
a(I17
F10524.3359375
I3
I0
I0
tp100
a(I18
F10924.7265625
I2
I1
I0
tp101
a(I19
F11324.140625
I1
I0
I0
tp102
a(I20
F11724.53125
I2
I1
I0
tp103
a(I21
F12124.921875
I1
I0
I0
tp104
a(I22
F12124.921875
I2
I0
I0
tp105
a(I23
F12524.3359375
I3
I0
I0
tp106
a(I24
F12924.7265625
I1
I0
I0
tp107
a(I25
F13324.140625
I3
I1
I0
tp108
a(I26
F13724.53125
I2
I0
I0
tp109
a(I27
F14124.921875
I3
I1
I0
tp110
a(I28
F14524.3359375
I4
I0
I0
tp111
a(I29
F14924.7265625
I2
I1
I0
tp112
a(I30
F15024.3359375
I1
I1
I0
tp113
a(I31
F15324.140625
I1
I0
I0
tp114
a(I32
F15324.140625
I2
I0
I0
tp115
a(I33
F16124.921875
I3
I1
I0
tp116
a(I34
F16524.3359375
I4
I0
I0
tp117
a(I35
F16924.7265625
I3
I1
I0
tp118
a(I36
F17324.140625
I2
I0
I0
tp119
a(I37
F17724.53125
I1
I1
I0
tp120
a(I38
F18124.921875
I2
I0
I0
tp121
a(I39
F18224.53125
I1
I0
I0
tp122
a(I40
F18524.3359375
I1
I1
I0
tp123
a(I41
F18524.3359375
I2
I1
I0
tp124
a(I42
F18924.7265625
I3
I1
I0
tp125
a(I43
F19324.140625
I1
I1
I0
tp126
a(I44
F19324.140625
I3
I1
I0
tp127
a(I45
F20124.921875
I3
I0
I0
tp128
a(I46
F20524.3359375
I1
I0
I0
tp129
a(I47
F20924.7265625
I1
I1
I0
tp130
a(I48
F20924.7265625
I4
I1
I0
tp131
a(I49
F21724.53125
I3
I0
I0
tp132
a(I50
F22124.921875
I2
I0
I0
tp133
a(I51
F22524.3359375
I2
I1
I0
tp134
a(I52
F22524.3359375
I3
I1
I0
tp135
a(I53
F23324.140625
I3
I1
I0
tp136
a(I54
F23724.53125
I1
I0
I0
tp137
a(I55
F24124.921875
I2
I0
I0
tp138
a(I56
F24124.921875
I4
I0
I0
tp139
a(I57
F24924.7265625
I3
I1
I0
tp140
a(I58
F25724.53125
I2
I0
I0
tp141
a(I59
F26324.140625
I1
I1
I0
tp142
a(I60
F26724.53125
I4
I0
I0
tp143
a(I61
F26924.7265625
I3
I1
I0
tp144
a(I62
F27324.140625
I1
I0
I0
tp145
a(I63
F27324.140625
I2
I0
I0
tp146
a(I64
F28924.7265625
I2
I1
I0
tp147
a(I65
F29524.3359375
I1
I0
I0
tp148
a(I66
F30124.921875
I2
I1
I0
tp149
a(I67
F30524.3359375
I3
I0
I0
tp150
a(I68
F30524.3359375
I4
I0
I0
tp151
a(I69
F32124.921875
I1
I1
I0
tp152
a(I70
F32124.921875
I3
I1
I0
tp153
a(I71
F32924.7265625
I3
I0
I0
tp154
a(I72
F33324.140625
I1
I0
I0
tp155
a(I73
F33724.53125
I1
I1
I0
tp156
a(I74
F33724.53125
I4
I1
I0
tp157
a(I75
F34524.3359375
I3
I0
I0
tp158
a(I76
F34924.7265625
I2
I0
I0
tp159
a(I77
F35324.140625
I2
I1
I0
tp160
a(I78
F35324.140625
I3
I1
I0
tp161
a(I79
F36124.921875
I3
I1
I0
tp162
a(I80
F36524.3359375
I1
I0
I0
tp163
a(I81
F36924.7265625
I2
I0
I0
tp164
a(I82
F36924.7265625
I4
I0
I0
tp165
a(I83
F37724.53125
I3
I1
I0
tp166
a(I84
F38524.3359375
I2
I0
I0
tp167
a(I85
F38724.53125
I4
I1
I0
tp168
a(I86
F39124.921875
I1
I0
I0
tp169
a(I87
F39524.3359375
I4
I1
I0
tp170
a(I88
F39724.53125
I3
I0
I0
tp171
a(I89
F40124.921875
I1
I1
I0
tp172
a(I90
F40124.921875
I2
I1
I0
tp173
a(I91
F41724.53125
I2
I0
I0
tp174
a(I92
F42324.140625
I1
I1
I0
tp175
a(I93
F42724.53125
I3
I0
I0
tp176
a(I94
F42924.7265625
I2
I1
I0
tp177
a(I95
F43124.921875
I3
I0
I0
tp178
a(I96
F43324.140625
I3
I1
I0
tp179
a(I97
F43324.140625
I4
I1
I0
tp180
aa(lp181
(I0
F3324.140625
I3
I0
I0
tp182
a(I1
F4124.921875
I2
I0
I0
tp183
a(I2
F4924.7265625
I3
I0
I0
tp184
a(I3
F5324.140625
I1
I0
I0
tp185
a(I4
F5724.53125
I4
I0
I0
tp186
a(I5
F6124.921875
I2
I0
I0
tp187
a(I6
F6524.3359375
I1
I1
I0
tp188
a(I7
F6924.7265625
I3
I0
I0
tp189
a(I8
F7324.140625
I2
I1
I0
tp190
a(I9
F7724.53125
I3
I0
I0
tp191
a(I10
F8124.921875
I4
I1
I0
tp192
a(I11
F8524.3359375
I2
I0
I0
tp193
a(I12
F8624.921875
I1
I0
I0
tp194
a(I13
F8924.7265625
I1
I1
I0
tp195
a(I14
F8924.7265625
I2
I1
I0
tp196
a(I15
F9724.53125
I3
I0
I0
tp197
a(I16
F10124.921875
I4
I1
I0
tp198
a(I17
F10524.3359375
I3
I0
I0
tp199
a(I18
F10924.7265625
I2
I1
I0
tp200
a(I19
F11324.140625
I1
I0
I0
tp201
a(I20
F11724.53125
I2
I1
I0
tp202
a(I21
F11824.140625
I1
I1
I0
tp203
a(I22
F12124.921875
I1
I0
I0
tp204
a(I23
F12124.921875
I2
I0
I0
tp205
a(I24
F12324.140625
I3
I1
I0
tp206
a(I25
F12324.140625
I4
I1
I0
tp207
a(I26
F12524.3359375
I1
I1
I0
tp208
a(I27
F12524.3359375
I2
I1
I0
tp209
a(I28
F12924.7265625
I1
I0
I0
tp210
a(I29
F13324.140625
I3
I1
I0
tp211
a(I30
F13724.53125
I2
I0
I0
tp212
a(I31
F14124.921875
I3
I1
I0
tp213
a(I32
F14524.3359375
I4
I0
I0
tp214
a(I33
F14924.7265625
I2
I1
I0
tp215
a(I34
F15024.3359375
I1
I1
I0
tp216
a(I35
F15324.140625
I1
I0
I0
tp217
a(I36
F15324.140625
I2
I0
I0
tp218
a(I37
F15924.7265625
I1
I0
I0
tp219
a(I38
F16024.3359375
I2
I1
I0
tp220
a(I39
F16124.921875
I3
I1
I0
tp221
a(I40
F16524.3359375
I4
I0
I0
tp222
a(I41
F16924.7265625
I3
I1
I0
tp223
a(I42
F17324.140625
I2
I0
I0
tp224
a(I43
F17724.53125
I1
I1
I0
tp225
a(I44
F18124.921875
I2
I0
I0
tp226
a(I45
F18224.53125
I1
I0
I0
tp227
a(I46
F18524.3359375
I1
I1
I0
tp228
a(I47
F18524.3359375
I2
I1
I0
tp229
a(I48
F18724.53125
I3
I1
I0
tp230
a(I49
F18724.53125
I4
I1
I0
tp231
a(I50
F18924.7265625
I1
I1
I0
tp232
a(I51
F18924.7265625
I2
I1
I0
tp233
a(I52
F19324.140625
I1
I1
I0
tp234
a(I53
F19324.140625
I3
I1
I0
tp235
a(I54
F20324.140625
I1
I1
I0
tp236
a(I55
F20524.3359375
I3
I0
I0
tp237
a(I56
F20724.53125
I2
I1
I0
tp238
a(I57
F20924.7265625
I1
I0
I0
tp239
a(I58
F20924.7265625
I2
I0
I0
tp240
a(I59
F21924.7265625
I3
I1
I0
tp241
a(I60
F22124.921875
I2
I0
I0
tp242
a(I61
F22324.140625
I4
I1
I0
tp243
a(I62
F22524.3359375
I3
I0
I0
tp244
a(I63
F22524.3359375
I4
I0
I0
tp245
a(I64
F23524.3359375
I2
I1
I0
tp246
a(I65
F23724.53125
I4
I0
I0
tp247
a(I66
F23924.7265625
I1
I1
I0
tp248
a(I67
F24124.921875
I1
I0
I0
tp249
a(I68
F24124.921875
I2
I0
I0
tp250
a(I69
F25124.921875
I4
I1
I0
tp251
a(I70
F25324.140625
I1
I0
I0
tp252
a(I71
F25524.3359375
I3
I1
I0
tp253
a(I72
F25724.53125
I3
I1
I0
tp254
a(I73
F25724.53125
I4
I1
I0
tp255
a(I74
F25924.7265625
I1
I1
I0
tp256
a(I75
F25924.7265625
I2
I1
I0
tp257
a(I76
F26324.140625
I3
I1
I0
tp258
a(I77
F26324.140625
I4
I1
I0
tp259
a(I78
F26724.53125
I4
I0
I0
tp260
a(I79
F26924.7265625
I3
I1
I0
tp261
a(I80
F27324.140625
I1
I0
I0
tp262
a(I81
F27324.140625
I2
I0
I0
tp263
a(I82
F28924.7265625
I2
I1
I0
tp264
a(I83
F29524.3359375
I1
I0
I0
tp265
a(I84
F30124.921875
I2
I1
I0
tp266
a(I85
F30524.3359375
I3
I0
I0
tp267
a(I86
F30524.3359375
I4
I0
I0
tp268
a(I87
F32124.921875
I1
I1
I0
tp269
a(I88
F32124.921875
I3
I1
I0
tp270
a(I89
F33124.921875
I1
I1
I0
tp271
a(I90
F33324.140625
I3
I0
I0
tp272
a(I91
F33524.3359375
I2
I1
I0
tp273
a(I92
F33724.53125
I1
I0
I0
tp274
a(I93
F33724.53125
I2
I0
I0
tp275
a(I94
F34724.53125
I3
I1
I0
tp276
a(I95
F34924.7265625
I2
I0
I0
tp277
a(I96
F35124.921875
I4
I1
I0
tp278
a(I97
F35324.140625
I3
I0
I0
tp279
a(I98
F35324.140625
I4
I0
I0
tp280
a(I99
F36324.140625
I2
I1
I0
tp281
a(I100
F36524.3359375
I4
I0
I0
tp282
a(I101
F36724.53125
I1
I1
I0
tp283
a(I102
F36924.7265625
I1
I0
I0
tp284
a(I103
F36924.7265625
I2
I0
I0
tp285
a(I104
F37924.7265625
I4
I1
I0
tp286
a(I105
F38124.921875
I1
I0
I0
tp287
a(I106
F38324.140625
I3
I1
I0
tp288
a(I107
F38524.3359375
I3
I1
I0
tp289
a(I108
F38524.3359375
I4
I1
I0
tp290
a(I109
F38724.53125
I1
I1
I0
tp291
a(I110
F38724.53125
I2
I1
I0
tp292
a(I111
F39124.921875
I3
I1
I0
tp293
a(I112
F39124.921875
I4
I1
I0
tp294
a(I113
F39524.3359375
I4
I0
I0
tp295
a(I114
F39724.53125
I3
I1
I0
tp296
a(I115
F40124.921875
I1
I0
I0
tp297
a(I116
F40124.921875
I2
I0
I0
tp298
a(I117
F41724.53125
I2
I1
I0
tp299
a(I118
F42324.140625
I1
I0
I0
tp300
a(I119
F42924.7265625
I2
I1
I0
tp301
a(I120
F43324.140625
I3
I0
I0
tp302
a(I121
F43324.140625
I4
I0
I0
tp303
a(I122
F44924.7265625
I1
I1
I0
tp304
aa.