(lp1
(lp2
(I0
F6397.2905347656251
I3
I1
I0
tp3
a(I1
F7976.407888281251
I2
I1
I0
tp4
a(I2
F9555.525241796875
I4
I1
I0
tp5
a(I3
F11134.6425953125
I1
I1
I0
tp6
a(I4
F12713.759948828127
I3
I1
I0
tp7
a(I5
F14291.900730078127
I2
I1
I0
tp8
a(I6
F15871.018083593752
I4
I1
I0
tp9
a(I7
F17450.135437109377
I1
I1
I0
tp10
a(I8
F19029.252790625
I3
I1
F700
tp11
a(I9
F20608.370144140627
I2
I1
F700
tp12
a(I10
F22187.487497656253
I4
I1
F700
tp13
a(I11
F23765.62827890625
I1
I1
F700
tp14
a(I12
F25344.745632421877
I3
I1
F700
tp15
a(I13
F26923.862985937503
I2
I1
F700
tp16
a(I14
F28502.980339453126
I4
I1
F700
tp17
a(I15
F30082.097692968753
I1
I1
F700
tp18
a(I16
F31661.215046484376
I3
I1
I0
tp19
a(I17
F33240.332399999999
I2
I1
I0
tp20
a(I18
F34818.473181250003
I4
I1
I0
tp21
a(I19
F36397.59053476563
I1
I1
I0
tp22
a(I20
F37976.707888281249
I3
I1
I0
tp23
a(I21
F39555.825241796876
I2
I1
I0
tp24
a(I22
F41134.942595312503
I4
I1
I0
tp25
a(I23
F42714.05994882813
I1
I1
I0
tp26
aa(lp27
(I0
F6397.2905347656251
I3
I1
I0
tp28
a(I1
F7976.407888281251
I2
I1
I0
tp29
a(I2
F9555.525241796875
I4
I1
I0
tp30
a(I3
F11134.6425953125
I1
I1
I0
tp31
a(I4
F12713.759948828127
I3
I1
I0
tp32
a(I5
F14291.900730078127
I2
I1
I0
tp33
a(I6
F15871.018083593752
I4
I1
I0
tp34
a(I7
F17450.135437109377
I1
I1
I0
tp35
a(I8
F19029.252790625
I3
I1
F700
tp36
a(I9
F20608.370144140627
I2
I1
F700
tp37
a(I10
F22187.487497656253
I4
I1
F700
tp38
a(I11
F23765.62827890625
I1
I1
F700
tp39
a(I12
F25344.745632421877
I3
I1
F700
tp40
a(I13
F26923.862985937503
I2
I1
F700
tp41
a(I14
F28502.980339453126
I4
I1
F700
tp42
a(I15
F30082.097692968753
I1
I1
F700
tp43
a(I16
F31661.215046484376
I3
I1
I0
tp44
a(I17
F33240.332399999999
I2
I1
I0
tp45
a(I18
F34818.473181250003
I4
I1
I0
tp46
a(I19
F36397.59053476563
I1
I1
I0
tp47
a(I20
F37976.707888281249
I3
I1
I0
tp48
a(I21
F39555.825241796876
I2
I1
I0
tp49
a(I22
F41134.942595312503
I4
I1
I0
tp50
a(I23
F42714.05994882813
I1
I1
I0
tp51
aa(lp52
(I0
F6397.2905347656251
I3
I1
I0
tp53
a(I1
F7976.407888281251
I2
I1
I0
tp54
a(I2
F9555.525241796875
I4
I1
I0
tp55
a(I3
F11134.6425953125
I1
I1
I0
tp56
a(I4
F12713.759948828127
I3
I1
I0
tp57
a(I5
F14291.900730078127
I2
I1
I0
tp58
a(I6
F15871.018083593752
I4
I1
I0
tp59
a(I7
F17450.135437109377
I1
I1
I0
tp60
a(I8
F19029.252790625
I3
I1
F700
tp61
a(I9
F20608.370144140627
I2
I1
F700
tp62
a(I10
F22187.487497656253
I4
I1
F700
tp63
a(I11
F23765.62827890625
I1
I1
F700
tp64
a(I12
F25344.745632421877
I3
I1
F700
tp65
a(I13
F26923.862985937503
I2
I1
F700
tp66
a(I14
F28502.980339453126
I4
I1
F700
tp67
a(I15
F30082.097692968753
I1
I1
F700
tp68
a(I16
F31661.215046484376
I3
I1
I0
tp69
a(I17
F33240.332399999999
I2
I1
I0
tp70
a(I18
F34818.473181250003
I4
I1
I0
tp71
a(I19
F36397.59053476563
I1
I1
I0
tp72
a(I20
F37976.707888281249
I3
I1
I0
tp73
a(I21
F39555.825241796876
I2
I1
I0
tp74
a(I22
F41134.942595312503
I4
I1
I0
tp75
a(I23
F42714.05994882813
I1
I1
I0
tp76
aa.