(lp1
(lp2
(I0
F6362.2265625
I3
I1
I0
tp3
a(I1
F7941.328125
I2
I1
I0
tp4
a(I2
F9520.4296875
I4
I1
I0
tp5
a(I3
F11099.53125
I1
I1
I0
tp6
a(I4
F12678.6328125
I3
I1
I0
tp7
a(I5
F14256.7578125
I2
I1
I0
tp8
a(I6
F15835.859375
I4
I1
I0
tp9
a(I7
F17414.9609375
I1
I1
I0
tp10
a(I8
F18994.0625
I3
I1
F700
tp11
a(I9
F20573.1640625
I2
I1
F700
tp12
a(I10
F22152.265625
I4
I1
F700
tp13
a(I11
F23730.390625
I1
I1
F700
tp14
a(I12
F25309.4921875
I3
I1
F700
tp15
a(I13
F26888.59375
I2
I1
F700
tp16
a(I14
F28467.6953125
I4
I1
F700
tp17
a(I15
F30046.796875
I1
I1
F700
tp18
a(I16
F31625.8984375
I3
I1
I0
tp19
a(I17
F33205
I2
I1
I0
tp20
a(I18
F34783.125
I4
I1
I0
tp21
a(I19
F36362.2265625
I1
I1
I0
tp22
a(I20
F37941.328125
I3
I1
I0
tp23
a(I21
F39520.4296875
I2
I1
I0
tp24
a(I22
F41099.53125
I4
I1
I0
tp25
a(I23
F42678.6328125
I1
I1
I0
tp26
aa(lp27
(I0
F6362.2265625
I3
I1
I0
tp28
a(I1
F7941.328125
I2
I1
I0
tp29
a(I2
F9520.4296875
I4
I1
I0
tp30
a(I3
F11099.53125
I1
I1
I0
tp31
a(I4
F12678.6328125
I3
I1
I0
tp32
a(I5
F14256.7578125
I2
I1
I0
tp33
a(I6
F15835.859375
I4
I1
I0
tp34
a(I7
F17414.9609375
I1
I1
I0
tp35
a(I8
F18994.0625
I3
I1
F700
tp36
a(I9
F20573.1640625
I2
I1
F700
tp37
a(I10
F22152.265625
I4
I1
F700
tp38
a(I11
F23730.390625
I1
I1
F700
tp39
a(I12
F25309.4921875
I3
I1
F700
tp40
a(I13
F26888.59375
I2
I1
F700
tp41
a(I14
F28467.6953125
I4
I1
F700
tp42
a(I15
F30046.796875
I1
I1
F700
tp43
a(I16
F31625.8984375
I3
I1
I0
tp44
a(I17
F33205
I2
I1
I0
tp45
a(I18
F34783.125
I4
I1
I0
tp46
a(I19
F36362.2265625
I1
I1
I0
tp47
a(I20
F37941.328125
I3
I1
I0
tp48
a(I21
F39520.4296875
I2
I1
I0
tp49
a(I22
F41099.53125
I4
I1
I0
tp50
a(I23
F42678.6328125
I1
I1
I0
tp51
aa(lp52
(I0
F6362.2265625
I3
I1
I0
tp53
a(I1
F7941.328125
I2
I1
I0
tp54
a(I2
F9520.4296875
I4
I1
I0
tp55
a(I3
F11099.53125
I1
I1
I0
tp56
a(I4
F12678.6328125
I3
I1
I0
tp57
a(I5
F14256.7578125
I2
I1
I0
tp58
a(I6
F15835.859375
I4
I1
I0
tp59
a(I7
F17414.9609375
I1
I1
I0
tp60
a(I8
F18994.0625
I3
I1
F700
tp61
a(I9
F20573.1640625
I2
I1
F700
tp62
a(I10
F22152.265625
I4
I1
F700
tp63
a(I11
F23730.390625
I1
I1
F700
tp64
a(I12
F25309.4921875
I3
I1
F700
tp65
a(I13
F26888.59375
I2
I1
F700
tp66
a(I14
F28467.6953125
I4
I1
F700
tp67
a(I15
F30046.796875
I1
I1
F700
tp68
a(I16
F31625.8984375
I3
I1
I0
tp69
a(I17
F33205
I2
I1
I0
tp70
a(I18
F34783.125
I4
I1
I0
tp71
a(I19
F36362.2265625
I1
I1
I0
tp72
a(I20
F37941.328125
I3
I1
I0
tp73
a(I21
F39520.4296875
I2
I1
I0
tp74
a(I22
F41099.53125
I4
I1
I0
tp75
a(I23
F42678.6328125
I1
I1
I0
tp76
aa.