(lp1
(lp2
(I0
F1712.3750239251731
I3
I0
I0
tp3
a(I1
F2084.4568691704549
I4
I1
I0
tp4
a(I2
F2478.5435547259422
I3
I0
I0
tp5
a(I3
F3290.7222061753205
I2
I1
I0
tp6
a(I4
F4128.9065779913053
I4
I0
I0
tp7
a(I5
F4822.0590477627575
I3
I1
I0
tp8
a(I6
F5239.1507936425487
I2
I0
I0
tp9
a(I7
F5690.2500200017494
I3
I1
I0
tp10
a(I8
F6671.4658538340645
I3
I1
I0
tp11
a(I9
F7334.6117231825101
I1
I0
I0
tp12
a(I10
F8098.7798139550787
I3
I1
I0
tp13
a(I11
F8918.9602255172595
I4
I0
I0
tp14
a(I12
F9306.0453709740432
I2
I0
I0
tp15
a(I13
F9717.1357967692347
I1
I1
I0
tp16
a(I14
F10547.318408472416
I4
I1
I0
tp17
a(I15
F11270.477478666875
I3
I1
I0
tp18
a(I16
F11681.567904462067
I2
I1
I0
tp19
a(I17
F12104.660970426461
I3
I1
I0
tp20
a(I18
F12862.827741114428
I3
I0
I0
tp21
a(I19
F13707.013433015012
I1
I0
I0
tp22
a(I20
F14457.178443590177
I3
I0
I0
tp23
a(I21
F14871.269529427669
I4
I1
I0
tp24
a(I22
F15292.36215536386
I3
I0
I0
tp25
a(I23
F16079.535306460735
I2
I1
I0
tp26
a(I24
F16896.715057980611
I4
I0
I0
tp27
a(I25
F17626.875668273777
I3
I1
I0
tp28
a(I26
F18038.966314083063
I2
I0
I0
tp29
a(I27
F18445.055639807757
I3
I1
I0
tp30
a(I28
F19465.280054189978
I3
I1
I0
tp31
a(I29
F20136.427683651229
I1
I0
I0
tp32
a(I30
F20868.588733972585
I3
I1
I0
tp33
a(I31
F21717.775525943674
I4
I0
I0
tp34
a(I32
F22087.856931160757
I2
I0
I0
tp35
a(I33
F22533.955057449461
I1
I1
I0
tp36
a(I34
F23291.121608123321
I4
I1
I0
tp37
a(I35
F24017.281338360081
I3
I1
I0
tp38
a(I36
F24463.37946464878
I2
I1
I0
tp39
a(I37
F24913.478470993879
I3
I1
I0
tp40
a(I38
F25646.639741329338
I3
I1
I0
tp41
a(I39
F26469.82081293382
I4
I1
I0
tp42
a(I40
F27255.993744016596
I2
I1
I0
tp43
a(I41
F27256.993964030695
I1
I1
I0
tp44
a(I42
F28085.176135705671
I3
I1
I0
tp45
a(I43
F28085.176135705671
I4
I1
I0
tp46
a(I44
F28856.345766576946
I3
I0
I0
tp47
a(I45
F29705.532558548031
I4
I0
I0
tp48
a(I46
F30508.709229870514
I2
I0
I0
tp49
a(I47
F30509.709449884613
I1
I0
I0
tp50
a(I48
F31267.876220572576
I4
I0
I0
tp51
a(I49
F31275.877980685382
I3
I0
I0
tp52
a(I50
F32072.053111909154
I1
I1
I0
tp53
a(I51
F32889.232863429032
I2
I1
I0
tp54
a(I52
F33628.395453849102
I3
I1
I0
tp55
a(I53
F34463.579165622781
I4
I1
I0
tp56
a(I54
F34464.579385636884
I3
I1
I0
tp57
a(I55
F35213.744176197943
I3
I1
I0
tp58
a(I56
F36059.930308126735
I1
I1
I0
tp59
a(I57
F36826.098838927501
I2
I1
I0
tp60
a(I58
F36837.101259082607
I1
I1
I0
tp61
aa(lp62
(I0
F1740.3811843199792
I3
I0
I0
tp63
a(I1
F2145.4702900305683
I4
I1
I0
tp64
a(I2
F2499.5481750220461
I3
I0
I0
tp65
a(I3
F3319.7285865842268
I2
I1
I0
tp66
a(I4
F4091.898437469596
I4
I0
I0
tp67
a(I5
F4508.9901833493877
I1
I0
I0
tp68
a(I6
F4888.0735686933713
I3
I1
I0
tp69
a(I7
F5291.1622343757599
I2
I0
I0
tp70
a(I8
F5715.2555203542533
I3
I1
I0
tp71
a(I9
F6690.4700341019688
I3
I1
I0
tp72
a(I10
F7273.5983023223971
I1
I0
I0
tp73
a(I11
F7711.6946684982931
I4
I1
I0
tp74
a(I12
F8123.7853143075845
I3
I1
I0
tp75
a(I13
F8921.9608855595598
I4
I0
I0
tp76
a(I14
F9326.0497712560482
I2
I0
I0
tp77
a(I15
F9745.1419571640417
I1
I1
I0
tp78
a(I16
F10544.317748430118
I4
I1
I0
tp79
a(I17
F10921.4006937459
I1
I1
I0
tp80
a(I18
F11303.484739132184
I3
I1
I0
tp81
a(I19
F11722.576925040175
I2
I1
I0
tp82
a(I20
F12094.658770285458
I3
I1
I0
tp83
a(I21
F12852.825540973425
I3
I0
I0
tp84
a(I22
F13716.015413141915
I1
I1
I0
tp85
a(I23
F14102.100338584602
I2
I1
I0
tp86
a(I24
F14480.183503914483
I3
I0
I0
tp87
a(I25
F14921.280530132681
I4
I1
I0
tp88
a(I26
F15299.363695462562
I3
I0
I0
tp89
a(I27
F16128.546087151644
I2
I1
I0
tp90
a(I28
F16889.713517881915
I4
I0
I0
tp91
a(I29
F17300.803943677103
I1
I0
I0
tp92
a(I30
F17681.887769049288
I3
I1
I0
tp93
a(I31
F18098.97951492908
I2
I0
I0
tp94
a(I32
F18481.063560315361
I3
I1
I0
tp95
a(I33
F19490.28555454249
I3
I1
I0
tp96
a(I34
F20067.412502678311
I1
I0
I0
tp97
a(I35
F20512.510408952909
I4
I1
I0
tp98
a(I36
F20895.594674353295
I3
I1
I0
tp99
a(I37
F21711.774205859077
I4
I0
I0
tp100
a(I38
F22115.863091555562
I2
I0
I0
tp101
a(I39
F22524.953077322549
I1
I1
I0
tp102
a(I40
F23253.113247587513
I4
I1
I0
tp103
a(I41
F23665.203893396803
I1
I1
I0
tp104
a(I42
F24085.296299318896
I3
I1
I0
tp105
a(I43
F24494.38628508589
I2
I1
I0
tp106
a(I44
F24912.478250979777
I3
I1
I0
tp107
a(I45
F25679.647001794649
I2
I1
I0
tp108
a(I46
F26092.737867618038
I2
I1
I0
tp109
a(I47
F26093.73808763214
I1
I1
I0
tp110
a(I48
F26474.821913004322
I2
I0
I0
tp111
a(I49
F26886.912558813616
I2
I0
I0
tp112
a(I50
F26898.915198982817
I1
I0
I0
tp113
a(I51
F27302.003864665206
I2
I1
I0
tp114
a(I52
F27686.088350079688
I2
I0
I0
tp115
a(I53
F27704.092310333494
I1
I0
I0
tp116
a(I54
F28073.173495536474
I2
I1
I0
tp117
a(I55
F28074.173715550573
I1
I1
I0
tp118
a(I56
F28877.350386873048
I3
I1
I0
tp119
a(I57
F29259.434432259335
I3
I1
I0
tp120
a(I58
F29289.441032682342
I4
I1
I0
tp121
a(I59
F29646.519577716121
I3
I0
I0
tp122
a(I60
F30055.609563483107
I4
I0
I0
tp123
a(I61
F30066.611983638213
I3
I0
I0
tp124
a(I62
F30409.687448474586
I3
I1
I0
tp125
a(I63
F30834.78095446718
I3
I0
I0
tp126
a(I64
F30865.787774904289
I4
I0
I0
tp127
a(I65
F31211.863899782962
I3
I1
I0
tp128
a(I66
F31241.870500205972
I4
I1
I0
tp129
a(I67
F32082.055312050154
I4
I0
I0
tp130
a(I68
F32092.057512191157
I2
I0
I0
tp131
a(I69
F32888.232643414936
I3
I0
I0
tp132
a(I70
F32921.23990388024
I1
I0
I0
tp133
a(I71
F33659.402274286207
I3
I1
I0
tp134
a(I72
F33692.40953475151
I2
I1
I0
tp135
a(I73
F34529.593686553395
I4
I1
I0
tp136
a(I74
F34530.59390656749
I1
I1
I0
tp137
a(I75
F35259.75429684655
I3
I0
I0
tp138
a(I76
F35670.844722641741
I4
I0
I0
tp139
a(I77
F36056.929648084428
I3
I0
I0
tp140
a(I78
F36877.11005964662
I4
I1
I0
tp141
a(I79
F36878.110279660708
I3
I1
I0
tp142
aa(lp143
(I0
F1751.3836044750815
I4
I1
I0
tp144
a(I1
F1754.3842645173825
I3
I1
I0
tp145
a(I2
F2136.4683099036661
I4
I1
I0
tp146
a(I3
F2334.5118726955097
I1
I0
I0
tp147
a(I4
F2496.5475149797458
I3
I0
I0
tp148
a(I5
F2904.6372807326352
I2
I1
I0
tp149
a(I6
F3329.7307867252289
I2
I1
I0
tp150
a(I7
F3338.7327668521311
I1
I1
I0
tp151
a(I8
F3933.8636752417624
I3
I1
I0
tp152
a(I9
F4127.9063579772046
I4
I0
I0
tp153
a(I10
F4507.9899633352888
I1
I0
I0
tp154
a(I11
F4888.0735686933713
I3
I1
I0
tp155
a(I12
F5264.1562939950545
I2
I0
I0
tp156
a(I13
F5684.248699917147
I3
I1
I0
tp157
a(I14
F6693.4706941442701
I3
I1
I0
tp158
a(I15
F7072.5540794882518
I2
I1
I0
tp159
a(I16
F7295.6031426326017
I1
I0
I0
tp160
a(I17
F7738.7006088789985
I4
I1
I0
tp161
a(I18
F7943.7457117695449
I1
I1
I0
tp162
a(I19
F8110.7824541242799
I3
I1
I0
tp163
a(I20
F8937.9644057851619
I4
I1
I0
tp164
a(I21
F8938.9646257992645
I1
I1
I0
tp165
a(I22
F9342.0532914816504
I2
I0
I0
tp166
a(I23
F9727.1379969102381
I1
I1
I0
tp167
a(I24
F10518.312028063512
I1
I1
I0
tp168
a(I25
F10518.312028063512
I3
I1
I0
tp169
a(I26
F10897.395413407494
I4
I0
I0
tp170
a(I27
F11287.48121890658
I1
I1
I0
tp171
a(I28
F11702.57252475817
I2
I0
I0
tp172
a(I29
F12078.655250059854
I2
I1
I0
tp173
a(I30
F12903.836761692537
I3
I0
I0
tp174
a(I31
F13318.928067544126
I2
I1
I0
tp175
a(I32
F13511.970530265467
I3
I1
I0
tp176
a(I33
F13734.019373395719
I1
I1
I0
tp177
a(I34
F14108.1016586692
I2
I1
I0
tp178
a(I35
F14532.194944647694
I4
I1
I0
tp179
a(I36
F14535.195604689994
I3
I1
I0
tp180
a(I37
F14925.28141018908
I4
I1
I0
tp181
a(I38
F15129.326293065526
I1
I0
I0
tp182
a(I39
F15312.366555645865
I3
I0
I0
tp183
a(I40
F15687.44906093345
I2
I1
I0
tp184
a(I41
F16132.546967208047
I2
I1
I0
tp185
a(I42
F16142.549167349051
I1
I1
I0
tp186
a(I43
F16746.682055865582
I3
I1
I0
tp187
a(I44
F16938.724298572823
I4
I0
I0
tp188
a(I45
F17316.807463902711
I1
I0
I0
tp189
a(I46
F17671.885568908281
I3
I1
I0
tp190
a(I47
F18124.985235295688
I2
I0
I0
tp191
a(I48
F18497.067080540968
I3
I1
I0
tp192
a(I49
F19447.27609393618
I3
I1
I0
tp193
a(I50
F19850.364759618566
I2
I1
I0
tp194
a(I51
F20054.409642495011
I1
I0
I0
tp195
a(I52
F20501.50798879781
I4
I1
I0
tp196
a(I53
F20703.552431646051
I1
I1
I0
tp197
a(I54
F20892.594014310995
I3
I1
I0
tp198
a(I55
F21753.783446451282
I4
I1
I0
tp199
a(I56
F21754.783666465384
I1
I1
I0
tp200
a(I57
F22134.86727182347
I2
I0
I0
tp201
a(I58
F22518.951757237952
I1
I1
I0
tp202
a(I59
F23286.120508052823
I3
I1
I0
tp203
a(I60
F23315.126888461728
I1
I1
I0
tp204
a(I61
F23667.204333425005
I4
I0
I0
tp205
a(I62
F24050.288598825384
I1
I1
I0
tp206
a(I63
F24434.373084239873
I2
I0
I0
tp207
a(I64
F24856.465930190167
I2
I1
I0
tp208
a(I65
F25614.63270087813
I2
I1
I0
tp209
a(I66
F26088.736987561631
I2
I1
I0
tp210
a(I67
F26099.739407716741
I1
I1
I0
tp211
a(I68
F26471.821252962021
I2
I0
I0
tp212
a(I69
F26926.921359377619
I2
I0
I0
tp213
a(I70
F26927.921579391725
I1
I0
I0
tp214
a(I71
F27288.0007844678
I2
I1
I0
tp215
a(I72
F27666.083949797685
I2
I0
I0
tp216
a(I73
F27677.086369952787
I1
I0
I0
tp217
a(I74
F28058.170195324972
I2
I1
I0
tp218
a(I75
F28062.171075381375
I1
I1
I0
tp219
a(I76
F28856.345766576946
I3
I1
I0
tp220
a(I77
F29239.430031977332
I3
I1
I0
tp221
a(I78
F29283.439712597741
I4
I1
I0
tp222
a(I79
F29656.52177785712
I3
I0
I0
tp223
a(I80
F30068.612423666407
I3
I0
I0
tp224
a(I81
F30101.619684131721
I4
I0
I0
tp225
a(I82
F30461.698889207797
I3
I1
I0
tp226
a(I83
F30842.782714579986
I4
I0
I0
tp227
a(I84
F30843.782934594085
I3
I0
I0
tp228
a(I85
F31236.869400135471
I3
I1
I0
tp229
a(I86
F31268.876440586679
I4
I1
I0
tp230
a(I87
F32066.05179182455
I4
I0
I0
tp231
a(I88
F32067.052011838652
I2
I0
I0
tp232
a(I89
F32857.225822977831
I1
I0
I0
tp233
a(I90
F32871.22890317523
I3
I0
I0
tp234
a(I91
F33632.396333905497
I2
I1
I0
tp235
a(I92
F33633.3965539196
I3
I1
I0
tp236
a(I93
F34466.579825665081
I4
I1
I0
tp237
a(I94
F34471.580925735587
I1
I1
I0
tp238
a(I95
F35233.748576479949
I3
I0
I0
tp239
a(I96
F35649.840102345646
I4
I0
I0
tp240
a(I97
F36004.91820735122
I3
I0
I0
tp241
a(I98
F36856.105439350504
I4
I1
I0
tp242
a(I99
F36867.107859505602
I3
I1
I0
tp243
aa.