(lp1
(lp2
(I0
F115.93041275234609
I1
I0
I0
tp3
a(I1
F898.66370197801257
I3
I0
I0
tp4
a(I2
F1297.8381599497052
I2
I0
I0
tp5
a(I3
F1697.9885945912554
I4
I0
I0
tp6
a(I4
F2497.3134872044984
I2
I1
I0
tp7
a(I5
F2897.4639218460484
I3
I1
I0
tp8
a(I6
F3296.6383798177412
I1
I0
I0
tp9
a(I7
F4095.9632724309849
I3
I0
I0
tp10
a(I8
F4496.1137070725345
I2
I0
I0
tp11
a(I9
F4896.2641417140849
I4
I1
I0
tp12
a(I10
F5695.5890343273268
I1
I1
I0
tp13
a(I11
F5695.5890343273268
I2
I1
I0
tp14
a(I12
F6094.7634922990201
I1
I1
I0
tp15
a(I13
F6094.7634922990201
I2
I1
I0
tp16
a(I14
F6494.9139269405696
I3
I1
I0
tp17
a(I15
F7294.2388195538124
I4
I0
I0
tp18
a(I16
F8093.5637121670561
I3
I1
I0
tp19
a(I17
F8893.8645814501579
I1
I1
I0
tp20
a(I18
F9693.1894740633979
I3
I0
I0
tp21
a(I19
F9893.2646913841745
I4
I1
I0
tp22
a(I20
F10092.36393203509
I3
I1
I0
tp23
a(I21
F11291.839259289884
I2
I0
I0
tp24
a(I22
F12091.164151903127
I1
I0
I0
tp25
a(I23
F12891.465021186228
I3
I1
I0
tp26
a(I24
F13690.789913799468
I4
I0
I0
tp27
a(I25
F14490.114806412714
I3
I1
I0
tp28
a(I26
F15289.439699025956
I1
I1
I0
tp29
a(I27
F16088.764591639199
I3
I0
I0
tp30
a(I28
F16288.839808959974
I4
I1
I0
tp31
a(I29
F16488.915026280749
I3
I1
I0
tp32
a(I30
F17688.390353535542
I2
I0
I0
tp33
a(I31
F18487.715246148789
I1
I0
I0
tp34
a(I32
F19287.04013876203
I1
I0
I0
tp35
a(I33
F19687.190573403583
I3
I0
I0
tp36
a(I34
F20886.665900658372
I1
I1
I0
tp37
a(I35
F21285.840358630063
I3
I1
I0
tp38
a(I36
F21685.990793271616
I2
I1
I0
tp39
a(I37
F22085.165251243307
I4
I1
I0
tp40
a(I38
F22485.315685884856
I1
I0
I0
tp41
a(I39
F22885.466120526409
I3
I0
I0
tp42
a(I40
F24083.965471111347
I1
I1
I0
tp43
a(I41
F24484.115905752893
I3
I1
I0
tp44
a(I42
F24884.266340394443
I2
I1
I0
tp45
a(I43
F25283.44079836614
I4
I1
I0
tp46
a(I44
F25683.591233007686
I1
I1
I0
tp47
a(I45
F26482.916125620934
I2
I1
I0
tp48
a(I46
F27282.241018234174
I1
I1
I0
tp49
a(I47
F27282.241018234174
I2
I1
I0
tp50
a(I48
F28081.565910847417
I3
I1
I0
tp51
a(I49
F28081.565910847417
I4
I1
I0
tp52
a(I50
F28881.866780130516
I2
I0
I0
tp53
a(I51
F29681.19167274376
I1
I0
I0
tp54
a(I52
F30480.516565357
I1
I0
I0
tp55
a(I53
F30480.516565357
I2
I0
I0
tp56
a(I54
F31279.841457970248
I3
I1
I0
tp57
a(I55
F31279.841457970248
I4
I1
I0
tp58
a(I56
F31679.991892611793
I3
I0
I0
tp59
a(I57
F31679.991892611793
I4
I0
I0
tp60
a(I58
F32079.166350583488
I3
I1
I0
tp61
a(I59
F32879.467219866579
I4
I0
I0
tp62
a(I60
F33678.79211247983
I3
I1
I0
tp63
a(I61
F34478.117005093067
I1
I1
I0
tp64
a(I62
F35277.441897706318
I3
I0
I0
tp65
a(I63
F35477.517115027091
I4
I1
I0
tp66
a(I64
F35677.592332347864
I3
I1
I0
tp67
a(I65
F36877.067659602653
I2
I0
I0
tp68
a(I66
F37676.392552215897
I1
I0
I0
tp69
a(I67
F38475.717444829148
I3
I1
I0
tp70
a(I68
F39275.042337442384
I4
I0
I0
tp71
a(I69
F40074.367230055635
I3
I1
I0
tp72
a(I70
F40874.668099338734
I1
I1
I0
tp73
a(I71
F41673.992991951971
I3
I0
I0
tp74
a(I72
F41874.068209272751
I4
I1
I0
tp75
a(I73
F42073.167449923669
I3
I1
I0
tp76
a(I74
F43272.642777178458
I2
I0
I0
tp77
a(I75
F44071.967669791702
I1
I0
I0
tp78
a(I76
F44872.268539074801
I1
I0
I0
tp79
a(I77
F45271.442997046492
I3
I0
I0
tp80
a(I78
F46470.918324301289
I1
I1
I0
tp81
a(I79
F46871.068758942842
I3
I1
I0
tp82
a(I80
F47270.243216914532
I2
I1
I0
tp83
a(I81
F47670.393651556085
I4
I1
I0
tp84
a(I82
F48069.568109527776
I1
I0
I0
tp85
a(I83
F48469.718544169322
I3
I0
I0
tp86
a(I84
F49669.193871424119
I1
I1
I0
tp87
a(I85
F50068.368329395809
I3
I1
I0
tp88
a(I86
F50468.518764037362
I2
I1
I0
tp89
a(I87
F50868.669198678908
I4
I1
I0
tp90
a(I88
F51267.843656650606
I1
I1
I0
tp91
a(I89
F52067.168549263843
I2
I1
I0
tp92
a(I90
F52867.469418546949
I1
I1
I0
tp93
a(I91
F52867.469418546949
I2
I1
I0
tp94
a(I92
F53666.794311160193
I3
I1
I0
tp95
a(I93
F53666.794311160193
I4
I1
I0
tp96
a(I94
F54466.119203773429
I2
I0
I0
tp97
a(I95
F55265.44409638668
I1
I0
I0
tp98
a(I96
F56064.768988999924
I1
I0
I0
tp99
a(I97
F56064.768988999924
I2
I0
I0
tp100
a(I98
F56865.069858283023
I3
I1
I0
tp101
a(I99
F56865.069858283023
I4
I1
I0
tp102
a(I100
F57264.244316254713
I3
I0
I0
tp103
a(I101
F57264.244316254713
I4
I0
I0
tp104
a(I102
F57664.394750896266
I1
I0
I0
tp105
aa(lp106
(I0
F115.93041275234609
I1
I0
I0
tp107
a(I1
F898.66370197801257
I3
I0
I0
tp108
a(I2
F1297.8381599497052
I2
I0
I0
tp109
a(I3
F1697.9885945912554
I4
I0
I0
tp110
a(I4
F2497.3134872044984
I2
I1
I0
tp111
a(I5
F2897.4639218460484
I3
I1
I0
tp112
a(I6
F3296.6383798177412
I1
I0
I0
tp113
a(I7
F4095.9632724309849
I3
I0
I0
tp114
a(I8
F4496.1137070725345
I2
I0
I0
tp115
a(I9
F4896.2641417140849
I4
I1
I0
tp116
a(I10
F5695.5890343273268
I1
I1
I0
tp117
a(I11
F5695.5890343273268
I2
I1
I0
tp118
a(I12
F6094.7634922990201
I3
I0
I0
tp119
a(I13
F6094.7634922990201
I4
I0
I0
tp120
a(I14
F6294.8387096197948
I1
I0
I0
tp121
a(I15
F6294.8387096197948
I2
I0
I0
tp122
a(I16
F6494.9139269405696
I3
I1
I0
tp123
a(I17
F6895.06436158212
I1
I0
I0
tp124
a(I18
F7294.2388195538124
I4
I1
I0
tp125
a(I19
F8093.5637121670561
I3
I1
I0
tp126
a(I20
F8493.7141468086065
I4
I0
I0
tp127
a(I21
F8893.8645814501579
I1
I1
I0
tp128
a(I22
F9693.1894740633979
I3
I0
I0
tp129
a(I23
F9893.2646913841745
I4
I1
I0
tp130
a(I24
F10092.36393203509
I3
I1
I0
tp131
a(I25
F10492.514366676642
I1
I0
I0
tp132
a(I26
F11291.839259289884
I2
I0
I0
tp133
a(I27
F11491.91447661066
I1
I0
I0
tp134
a(I28
F11691.989693931435
I2
I0
I0
tp135
a(I29
F12091.164151903127
I1
I1
I0
tp136
a(I30
F12891.465021186228
I3
I1
I0
tp137
a(I31
F13290.639479157922
I1
I0
I0
tp138
a(I32
F13690.789913799468
I4
I1
I0
tp139
a(I33
F14490.114806412714
I3
I1
I0
tp140
a(I34
F14890.265241054265
I4
I0
I0
tp141
a(I35
F15289.439699025956
I1
I1
I0
tp142
a(I36
F16088.764591639199
I3
I0
I0
tp143
a(I37
F16288.839808959974
I4
I1
I0
tp144
a(I38
F16488.915026280749
I3
I1
I0
tp145
a(I39
F16889.065460922302
I1
I0
I0
tp146
a(I40
F17688.390353535542
I2
I0
I0
tp147
a(I41
F17888.465570856319
I1
I0
I0
tp148
a(I42
F18087.564811507236
I2
I0
I0
tp149
a(I43
F18487.715246148789
I1
I1
I0
tp150
a(I44
F19287.04013876203
I2
I1
I0
tp151
a(I45
F19487.115356082802
I1
I0
I0
tp152
a(I46
F19687.190573403583
I3
I0
I0
tp153
a(I47
F20086.365031375273
I1
I1
I0
tp154
a(I48
F20086.365031375273
I2
I1
I0
tp155
a(I49
F20886.665900658372
I3
I0
I0
tp156
a(I50
F21085.76514130929
I4
I0
I0
tp157
a(I51
F21285.840358630063
I1
I1
I0
tp158
a(I52
F21685.990793271616
I3
I1
I0
tp159
a(I53
F21685.990793271616
I4
I1
I0
tp160
a(I54
F22485.315685884856
I2
I0
I0
tp161
a(I55
F22685.390903205633
I1
I0
I0
tp162
a(I56
F22885.466120526409
I3
I0
I0
tp163
a(I57
F24083.965471111347
I3
I0
I0
tp164
a(I58
F24284.04068843212
I4
I0
I0
tp165
a(I59
F24484.115905752893
I1
I0
I0
tp166
a(I60
F25683.591233007686
I1
I0
I0
tp167
a(I61
F26082.76569097938
I4
I0
I0
tp168
a(I62
F26482.916125620934
I2
I1
I0
tp169
a(I63
F26883.066560262483
I3
I0
I0
tp170
a(I64
F27282.241018234174
I2
I1
I0
tp171
a(I65
F27682.391452875727
I4
I1
I0
tp172
a(I66
F28081.565910847417
I1
I1
I0
tp173
a(I67
F28481.716345488967
I3
I1
I0
tp174
a(I68
F28881.866780130516
I2
I0
I0
tp175
a(I69
F29681.19167274376
I1
I0
I0
tp176
a(I70
F30480.516565357
I1
I0
I0
tp177
a(I71
F30480.516565357
I2
I0
I0
tp178
a(I72
F31279.841457970248
I3
I1
I0
tp179
a(I73
F31279.841457970248
I4
I1
I0
tp180
a(I74
F31679.991892611793
I3
I0
I0
tp181
a(I75
F31679.991892611793
I4
I0
I0
tp182
a(I76
F32079.166350583488
I3
I1
I0
tp183
a(I77
F32479.316785225041
I1
I0
I0
tp184
a(I78
F32879.467219866579
I4
I1
I0
tp185
a(I79
F33678.79211247983
I3
I1
I0
tp186
a(I80
F34077.966570451521
I4
I0
I0
tp187
a(I81
F34478.117005093067
I1
I1
I0
tp188
a(I82
F35277.441897706318
I3
I0
I0
tp189
a(I83
F35477.517115027091
I4
I1
I0
tp190
a(I84
F35677.592332347864
I3
I1
I0
tp191
a(I85
F36076.766790319554
I1
I0
I0
tp192
a(I86
F36877.067659602653
I2
I0
I0
tp193
a(I87
F37076.166900253578
I1
I0
I0
tp194
a(I88
F37276.242117574351
I2
I0
I0
tp195
a(I89
F37676.392552215897
I1
I1
I0
tp196
a(I90
F38475.717444829148
I3
I1
I0
tp197
a(I91
F38875.867879470694
I1
I0
I0
tp198
a(I92
F39275.042337442384
I4
I1
I0
tp199
a(I93
F40074.367230055635
I3
I1
I0
tp200
a(I94
F40474.517664697181
I4
I0
I0
tp201
a(I95
F40874.668099338734
I1
I1
I0
tp202
a(I96
F41673.992991951971
I3
I0
I0
tp203
a(I97
F41874.068209272751
I4
I1
I0
tp204
a(I98
F42073.167449923669
I3
I1
I0
tp205
a(I99
F42473.317884565215
I1
I0
I0
tp206
a(I100
F43272.642777178458
I2
I0
I0
tp207
a(I101
F43472.717994499231
I1
I0
I0
tp208
a(I102
F43672.793211820004
I2
I0
I0
tp209
a(I103
F44071.967669791702
I1
I1
I0
tp210
a(I104
F44872.268539074801
I2
I1
I0
tp211
a(I105
F45071.367779725726
I1
I0
I0
tp212
a(I106
F45271.442997046492
I3
I0
I0
tp213
a(I107
F45671.593431688045
I1
I1
I0
tp214
a(I108
F45671.593431688045
I2
I1
I0
tp215
a(I109
F46470.918324301289
I3
I0
I0
tp216
a(I110
F46670.993541622069
I4
I0
I0
tp217
a(I111
F46871.068758942842
I1
I1
I0
tp218
a(I112
F47270.243216914532
I3
I1
I0
tp219
a(I113
F47270.243216914532
I4
I1
I0
tp220
a(I114
F48069.568109527776
I2
I0
I0
tp221
a(I115
F48269.643326848549
I1
I0
I0
tp222
a(I116
F48469.718544169322
I3
I0
I0
tp223
a(I117
F49669.193871424119
I3
I0
I0
tp224
a(I118
F49869.269088744892
I4
I0
I0
tp225
a(I119
F50068.368329395809
I1
I0
I0
tp226
a(I120
F51267.843656650606
I1
I0
I0
tp227
a(I121
F51667.994091292159
I4
I0
I0
tp228
a(I122
F52067.168549263843
I2
I1
I0
tp229
a(I123
F52467.318983905396
I3
I0
I0
tp230
a(I124
F52867.469418546949
I2
I1
I0
tp231
a(I125
F53266.643876518639
I4
I1
I0
tp232
a(I126
F53666.794311160193
I1
I1
I0
tp233
a(I127
F54065.968769131883
I3
I1
I0
tp234
a(I128
F54466.119203773429
I2
I0
I0
tp235
a(I129
F55265.44409638668
I1
I0
I0
tp236
a(I130
F56064.768988999924
I1
I0
I0
tp237
a(I131
F56064.768988999924
I2
I0
I0
tp238
a(I132
F56865.069858283023
I3
I1
I0
tp239
a(I133
F56865.069858283023
I4
I1
I0
tp240
a(I134
F57264.244316254713
I3
I0
I0
tp241
a(I135
F57264.244316254713
I4
I0
I0
tp242
a(I136
F57664.394750896266
I1
I0
I0
tp243
aa(lp244
(I0
F115.93041275234609
I1
I0
I0
tp245
a(I1
F898.66370197801257
I3
I0
I0
tp246
a(I2
F1297.8381599497052
I2
I0
I0
tp247
a(I3
F1697.9885945912554
I4
I0
I0
tp248
a(I4
F2497.3134872044984
I2
I1
I0
tp249
a(I5
F2897.4639218460484
I3
I1
I0
tp250
a(I6
F3296.6383798177412
I1
I0
I0
tp251
a(I7
F4095.9632724309849
I3
I0
I0
tp252
a(I8
F4496.1137070725345
I2
I0
I0
tp253
a(I9
F4896.2641417140849
I4
I1
I0
tp254
a(I10
F5695.5890343273268
I1
I1
I0
tp255
a(I11
F5695.5890343273268
I2
I1
I0
tp256
a(I12
F6094.7634922990201
I1
I0
I0
tp257
a(I13
F6094.7634922990201
I3
I0
I0
tp258
a(I14
F6494.9139269405696
I3
I1
I0
tp259
a(I15
F6895.06436158212
I1
I0
I0
tp260
a(I16
F7294.2388195538124
I4
I1
I0
tp261
a(I17
F7694.3892541953628
I2
I0
I0
tp262
a(I18
F8093.5637121670561
I3
I1
I0
tp263
a(I19
F8493.7141468086065
I4
I0
I0
tp264
a(I20
F8893.8645814501579
I1
I1
I0
tp265
a(I21
F9293.0390394218502
I2
I0
I0
tp266
a(I22
F9693.1894740633979
I3
I0
I0
tp267
a(I23
F9893.2646913841745
I4
I1
I0
tp268
a(I24
F10092.36393203509
I3
I1
I0
tp269
a(I25
F10492.514366676642
I1
I0
I0
tp270
a(I26
F10892.664801318191
I3
I1
I0
tp271
a(I27
F11291.839259289884
I2
I0
I0
tp272
a(I28
F11491.91447661066
I1
I0
I0
tp273
a(I29
F11691.989693931435
I2
I0
I0
tp274
a(I30
F12091.164151903127
I2
I1
I0
tp275
a(I31
F12091.164151903127
I4
I1
I0
tp276
a(I32
F12891.465021186228
I3
I1
I0
tp277
a(I33
F13290.639479157922
I1
I0
I0
tp278
a(I34
F13690.789913799468
I4
I1
I0
tp279
a(I35
F14089.964371771162
I2
I0
I0
tp280
a(I36
F14490.114806412714
I3
I1
I0
tp281
a(I37
F14890.265241054265
I4
I0
I0
tp282
a(I38
F15289.439699025956
I1
I1
I0
tp283
a(I39
F15689.590133667507
I2
I0
I0
tp284
a(I40
F16088.764591639199
I3
I0
I0
tp285
a(I41
F16288.839808959974
I4
I1
I0
tp286
a(I42
F16488.915026280749
I3
I1
I0
tp287
a(I43
F16889.065460922302
I1
I0
I0
tp288
a(I44
F17288.239918893993
I3
I1
I0
tp289
a(I45
F17688.390353535542
I2
I0
I0
tp290
a(I46
F17888.465570856319
I1
I0
I0
tp291
a(I47
F18087.564811507236
I2
I0
I0
tp292
a(I48
F18487.715246148789
I2
I1
I0
tp293
a(I49
F18487.715246148789
I4
I1
I0
tp294
a(I50
F19287.04013876203
I2
I1
I0
tp295
a(I51
F19487.115356082802
I1
I0
I0
tp296
a(I52
F19687.190573403583
I3
I0
I0
tp297
a(I53
F20086.365031375273
I1
I1
I0
tp298
a(I54
F20086.365031375273
I4
I1
I0
tp299
a(I55
F20886.665900658372
I3
I0
I0
tp300
a(I56
F21085.76514130929
I4
I0
I0
tp301
a(I57
F21285.840358630063
I1
I0
I0
tp302
a(I58
F21685.990793271616
I2
I1
I0
tp303
a(I59
F21685.990793271616
I4
I1
I0
tp304
a(I60
F22485.315685884856
I2
I0
I0
tp305
a(I61
F22685.390903205633
I1
I0
I0
tp306
a(I62
F22885.466120526409
I3
I0
I0
tp307
a(I63
F22885.466120526409
I4
I0
I0
tp308
a(I64
F24083.965471111347
I3
I0
I0
tp309
a(I65
F24284.04068843212
I4
I0
I0
tp310
a(I66
F24484.115905752893
I1
I1
I0
tp311
a(I67
F24484.115905752893
I2
I1
I0
tp312
a(I68
F25683.591233007686
I1
I0
I0
tp313
a(I69
F26082.76569097938
I4
I0
I0
tp314
a(I70
F26482.916125620934
I2
I0
I0
tp315
a(I71
F26682.991342941707
I1
I1
I0
tp316
a(I72
F26883.066560262483
I3
I0
I0
tp317
a(I73
F27282.241018234174
I2
I1
I0
tp318
a(I74
F27682.391452875727
I4
I1
I0
tp319
a(I75
F28081.565910847417
I1
I1
I0
tp320
a(I76
F28281.641128168194
I2
I1
I0
tp321
a(I77
F28481.716345488967
I3
I1
I0
tp322
a(I78
F28881.866780130516
I2
I0
I0
tp323
a(I79
F29681.19167274376
I1
I0
I0
tp324
a(I80
F30480.516565357
I1
I1
I0
tp325
a(I81
F30480.516565357
I2
I1
I0
tp326
a(I82
F31279.841457970248
I3
I1
I0
tp327
a(I83
F31279.841457970248
I4
I1
I0
tp328
a(I84
F31679.991892611793
I3
I0
I0
tp329
a(I85
F31679.991892611793
I4
I0
I0
tp330
a(I86
F32079.166350583488
I3
I1
I0
tp331
a(I87
F32479.316785225041
I1
I0
I0
tp332
a(I88
F32879.467219866579
I4
I1
I0
tp333
a(I89
F33278.641677838277
I2
I0
I0
tp334
a(I90
F33678.79211247983
I3
I1
I0
tp335
a(I91
F34077.966570451521
I4
I0
I0
tp336
a(I92
F34478.117005093067
I1
I1
I0
tp337
a(I93
F34878.26743973462
I2
I0
I0
tp338
a(I94
F35277.441897706318
I3
I0
I0
tp339
a(I95
F35477.517115027091
I4
I1
I0
tp340
a(I96
F35677.592332347864
I3
I1
I0
tp341
a(I97
F36076.766790319554
I1
I0
I0
tp342
a(I98
F36476.917224961107
I3
I1
I0
tp343
a(I99
F36877.067659602653
I2
I0
I0
tp344
a(I100
F37076.166900253578
I1
I0
I0
tp345
a(I101
F37276.242117574351
I2
I0
I0
tp346
a(I102
F37676.392552215897
I2
I1
I0
tp347
a(I103
F37676.392552215897
I4
I1
I0
tp348
a(I104
F38475.717444829148
I3
I1
I0
tp349
a(I105
F38875.867879470694
I1
I0
I0
tp350
a(I106
F39275.042337442384
I4
I1
I0
tp351
a(I107
F39675.192772083938
I2
I0
I0
tp352
a(I108
F40074.367230055635
I3
I1
I0
tp353
a(I109
F40474.517664697181
I4
I0
I0
tp354
a(I110
F40874.668099338734
I1
I1
I0
tp355
a(I111
F41273.842557310425
I2
I0
I0
tp356
a(I112
F41673.992991951971
I3
I0
I0
tp357
a(I113
F41874.068209272751
I4
I1
I0
tp358
a(I114
F42073.167449923669
I3
I1
I0
tp359
a(I115
F42473.317884565215
I1
I0
I0
tp360
a(I116
F42873.468319206768
I3
I1
I0
tp361
a(I117
F43272.642777178458
I2
I0
I0
tp362
a(I118
F43472.717994499231
I1
I0
I0
tp363
a(I119
F43672.793211820004
I2
I0
I0
tp364
a(I120
F44071.967669791702
I2
I1
I0
tp365
a(I121
F44071.967669791702
I4
I1
I0
tp366
a(I122
F44872.268539074801
I2
I1
I0
tp367
a(I123
F45071.367779725726
I1
I0
I0
tp368
a(I124
F45271.442997046492
I3
I0
I0
tp369
a(I125
F45671.593431688045
I1
I1
I0
tp370
a(I126
F45671.593431688045
I4
I1
I0
tp371
a(I127
F46470.918324301289
I3
I0
I0
tp372
a(I128
F46670.993541622069
I4
I0
I0
tp373
a(I129
F46871.068758942842
I1
I0
I0
tp374
a(I130
F47270.243216914532
I2
I1
I0
tp375
a(I131
F47270.243216914532
I4
I1
I0
tp376
a(I132
F48069.568109527776
I2
I0
I0
tp377
a(I133
F48269.643326848549
I1
I0
I0
tp378
a(I134
F48469.718544169322
I3
I0
I0
tp379
a(I135
F48469.718544169322
I4
I0
I0
tp380
a(I136
F49669.193871424119
I3
I0
I0
tp381
a(I137
F49869.269088744892
I4
I0
I0
tp382
a(I138
F50068.368329395809
I1
I1
I0
tp383
a(I139
F50068.368329395809
I2
I1
I0
tp384
a(I140
F51267.843656650606
I1
I0
I0
tp385
a(I141
F51667.994091292159
I4
I0
I0
tp386
a(I142
F52067.168549263843
I2
I0
I0
tp387
a(I143
F52267.243766584623
I1
I1
I0
tp388
a(I144
F52467.318983905396
I3
I0
I0
tp389
a(I145
F52867.469418546949
I2
I1
I0
tp390
a(I146
F53266.643876518639
I4
I1
I0
tp391
a(I147
F53666.794311160193
I1
I1
I0
tp392
a(I148
F53866.869528480966
I2
I1
I0
tp393
a(I149
F54065.968769131883
I3
I1
I0
tp394
a(I150
F54466.119203773429
I2
I0
I0
tp395
a(I151
F55265.44409638668
I1
I0
I0
tp396
a(I152
F56064.768988999924
I1
I1
I0
tp397
a(I153
F56064.768988999924
I2
I1
I0
tp398
a(I154
F56865.069858283023
I3
I1
I0
tp399
a(I155
F56865.069858283023
I4
I1
I0
tp400
a(I156
F57264.244316254713
I3
I0
I0
tp401
a(I157
F57264.244316254713
I4
I0
I0
tp402
a(I158
F57664.394750896266
I1
I0
I0
tp403
aa.