(lp1
(lp2
(I0
F115.96520231304
I1
I0
I0
tp3
a(I1
F898.93338199261029
I3
I0
I0
tp4
a(I2
F1298.2276282381765
I2
I0
I0
tp5
a(I3
F1698.4981440344657
I4
I0
I0
tp6
a(I4
F2498.0629060763213
I2
I1
I0
tp7
a(I5
F2898.33342187261
I3
I1
I0
tp8
a(I6
F3297.6276681181766
I1
I0
I0
tp9
a(I7
F4097.1924301600329
I3
I0
I0
tp10
a(I8
F4497.4629459563212
I2
I0
I0
tp11
a(I9
F4897.7334617526103
I4
I1
I0
tp12
a(I10
F5697.2982237944652
I1
I1
I0
tp13
a(I11
F5697.2982237944652
I2
I1
I0
tp14
a(I12
F6096.5924700400319
I1
I1
I0
tp15
a(I13
F6096.5924700400319
I2
I1
I0
tp16
a(I14
F6496.8629858363201
I3
I1
I0
tp17
a(I15
F7296.427747878176
I4
I0
I0
tp18
a(I16
F8095.9925099200318
I3
I1
I0
tp19
a(I17
F8896.5335415126119
I1
I1
I0
tp20
a(I18
F9696.0983035544632
I3
I0
I0
tp21
a(I19
F9896.2335614526091
I4
I1
I0
tp22
a(I20
F10095.39254980003
I3
I1
I0
tp23
a(I21
F11295.227827638175
I2
I0
I0
tp24
a(I22
F12094.792589680032
I1
I0
I0
tp25
a(I23
F12895.33362127261
I3
I1
I0
tp26
a(I24
F13694.898383314463
I4
I0
I0
tp27
a(I25
F14494.46314535632
I3
I1
I0
tp28
a(I26
F15294.027907398175
I1
I1
I0
tp29
a(I27
F16093.592669440031
I3
I0
I0
tp30
a(I28
F16293.727927338176
I4
I1
I0
tp31
a(I29
F16493.863185236318
I3
I1
I0
tp32
a(I30
F17693.698463074463
I2
I0
I0
tp33
a(I31
F18493.263225116323
I1
I0
I0
tp34
a(I32
F19292.827987158176
I1
I0
I0
tp35
a(I33
F19693.098502954468
I3
I0
I0
tp36
a(I34
F20892.933780792609
I1
I1
I0
tp37
a(I35
F21292.228027038174
I3
I1
I0
tp38
a(I36
F21692.498542834466
I2
I1
I0
tp39
a(I37
F22091.792789080031
I4
I1
I0
tp40
a(I38
F22492.063304876319
I1
I0
I0
tp41
a(I39
F22892.333820672611
I3
I0
I0
tp42
a(I40
F24091.192828960033
I1
I1
I0
tp43
a(I41
F24491.463344756317
I3
I1
I0
tp44
a(I42
F24891.733860552609
I2
I1
I0
tp45
a(I43
F25291.028106798178
I4
I1
I0
tp46
a(I44
F25691.298622594462
I1
I1
I0
tp47
a(I45
F26490.863384636323
I2
I1
I0
tp48
a(I46
F27290.428146678176
I1
I1
I0
tp49
a(I47
F27290.428146678176
I2
I1
I0
tp50
a(I48
F28089.992908720033
I3
I1
I0
tp51
a(I49
F28089.992908720033
I4
I1
I0
tp52
a(I50
F28890.533940312609
I2
I0
I0
tp53
a(I51
F29690.098702354466
I1
I0
I0
tp54
a(I52
F30489.663464396319
I1
I0
I0
tp55
a(I53
F30489.663464396319
I2
I0
I0
tp56
a(I54
F31289.228226438179
I3
I1
I0
tp57
a(I55
F31289.228226438179
I4
I1
I0
tp58
a(I56
F31689.498742234464
I3
I0
I0
tp59
a(I57
F31689.498742234464
I4
I0
I0
tp60
a(I58
F32088.792988480032
I3
I1
I0
tp61
a(I59
F32889.334020072602
I4
I0
I0
tp62
a(I60
F33688.898782114462
I3
I1
I0
tp63
a(I61
F34488.463544156315
I1
I1
I0
tp64
a(I62
F35288.028306198175
I3
I0
I0
tp65
a(I63
F35488.163564096321
I4
I1
I0
tp66
a(I64
F35688.29882199446
I3
I1
I0
tp67
a(I65
F36888.134099832605
I2
I0
I0
tp68
a(I66
F37687.698861874458
I1
I0
I0
tp69
a(I67
F38487.263623916318
I3
I1
I0
tp70
a(I68
F39286.828385958172
I4
I0
I0
tp71
a(I69
F40086.393148000032
I3
I1
I0
tp72
a(I70
F40886.934179592608
I1
I1
I0
tp73
a(I71
F41686.498941634462
I3
I0
I0
tp74
a(I72
F41886.634199532607
I4
I1
I0
tp75
a(I73
F42085.79318788003
I3
I1
I0
tp76
a(I74
F43285.628465718175
I2
I0
I0
tp77
a(I75
F44085.193227760028
I1
I0
I0
tp78
a(I76
F44885.734259352605
I1
I0
I0
tp79
a(I77
F45285.028505598173
I3
I0
I0
tp80
a(I78
F46484.863783436318
I1
I1
I0
tp81
a(I79
F46885.13429923261
I3
I1
I0
tp82
a(I80
F47284.428545478171
I2
I1
I0
tp83
a(I81
F47684.699061274463
I4
I1
I0
tp84
a(I82
F48083.993307520032
I1
I0
I0
tp85
a(I83
F48484.263823316316
I3
I0
I0
tp86
a(I84
F49684.099101154461
I1
I1
I0
tp87
a(I85
F50083.39334740003
I3
I1
I0
tp88
a(I86
F50483.663863196321
I2
I1
I0
tp89
a(I87
F50883.934378992606
I4
I1
I0
tp90
a(I88
F51283.228625238175
I1
I1
I0
tp91
a(I89
F52082.793387280028
I2
I1
I0
tp92
a(I90
F52883.334418872611
I1
I1
I0
tp93
a(I91
F52883.334418872611
I2
I1
I0
tp94
a(I92
F53682.899180914465
I3
I1
I0
tp95
a(I93
F53682.899180914465
I4
I1
I0
tp96
a(I94
F54482.463942956318
I2
I0
I0
tp97
a(I95
F55282.028704998178
I1
I0
I0
tp98
a(I96
F56081.593467040031
I1
I0
I0
tp99
a(I97
F56081.593467040031
I2
I0
I0
tp100
a(I98
F56882.134498632608
I3
I1
I0
tp101
a(I99
F56882.134498632608
I4
I1
I0
tp102
a(I100
F57281.428744878176
I3
I0
I0
tp103
a(I101
F57281.428744878176
I4
I0
I0
tp104
a(I102
F57681.699260674468
I1
I0
I0
tp105
aa(lp106
(I0
F115.96520231304
I1
I0
I0
tp107
a(I1
F898.93338199261029
I3
I0
I0
tp108
a(I2
F1298.2276282381765
I2
I0
I0
tp109
a(I3
F1698.4981440344657
I4
I0
I0
tp110
a(I4
F2498.0629060763213
I2
I1
I0
tp111
a(I5
F2898.33342187261
I3
I1
I0
tp112
a(I6
F3297.6276681181766
I1
I0
I0
tp113
a(I7
F4097.1924301600329
I3
I0
I0
tp114
a(I8
F4497.4629459563212
I2
I0
I0
tp115
a(I9
F4897.7334617526103
I4
I1
I0
tp116
a(I10
F5697.2982237944652
I1
I1
I0
tp117
a(I11
F5697.2982237944652
I2
I1
I0
tp118
a(I12
F6096.5924700400319
I3
I0
I0
tp119
a(I13
F6096.5924700400319
I4
I0
I0
tp120
a(I14
F6296.727727938176
I1
I0
I0
tp121
a(I15
F6296.727727938176
I2
I0
I0
tp122
a(I16
F6496.8629858363201
I3
I1
I0
tp123
a(I17
F6897.1335016326093
I1
I0
I0
tp124
a(I18
F7296.427747878176
I4
I1
I0
tp125
a(I19
F8095.9925099200318
I3
I1
I0
tp126
a(I20
F8496.2630257163219
I4
I0
I0
tp127
a(I21
F8896.5335415126119
I1
I1
I0
tp128
a(I22
F9696.0983035544632
I3
I0
I0
tp129
a(I23
F9896.2335614526091
I4
I1
I0
tp130
a(I24
F10095.39254980003
I3
I1
I0
tp131
a(I25
F10495.66306559632
I1
I0
I0
tp132
a(I26
F11295.227827638175
I2
I0
I0
tp133
a(I27
F11495.363085536321
I1
I0
I0
tp134
a(I28
F11695.498343434465
I2
I0
I0
tp135
a(I29
F12094.792589680032
I1
I1
I0
tp136
a(I30
F12895.33362127261
I3
I1
I0
tp137
a(I31
F13294.627867518177
I1
I0
I0
tp138
a(I32
F13694.898383314463
I4
I1
I0
tp139
a(I33
F14494.46314535632
I3
I1
I0
tp140
a(I34
F14894.73366115261
I4
I0
I0
tp141
a(I35
F15294.027907398175
I1
I1
I0
tp142
a(I36
F16093.592669440031
I3
I0
I0
tp143
a(I37
F16293.727927338176
I4
I1
I0
tp144
a(I38
F16493.863185236318
I3
I1
I0
tp145
a(I39
F16894.13370103261
I1
I0
I0
tp146
a(I40
F17693.698463074463
I2
I0
I0
tp147
a(I41
F17893.833720972609
I1
I0
I0
tp148
a(I42
F18092.992709320031
I2
I0
I0
tp149
a(I43
F18493.263225116323
I1
I1
I0
tp150
a(I44
F19292.827987158176
I2
I1
I0
tp151
a(I45
F19492.963245056319
I1
I0
I0
tp152
a(I46
F19693.098502954468
I3
I0
I0
tp153
a(I47
F20092.392749200033
I1
I1
I0
tp154
a(I48
F20092.392749200033
I2
I1
I0
tp155
a(I49
F20892.933780792609
I3
I0
I0
tp156
a(I50
F21092.092769140032
I4
I0
I0
tp157
a(I51
F21292.228027038174
I1
I1
I0
tp158
a(I52
F21692.498542834466
I3
I1
I0
tp159
a(I53
F21692.498542834466
I4
I1
I0
tp160
a(I54
F22492.063304876319
I2
I0
I0
tp161
a(I55
F22692.198562774465
I1
I0
I0
tp162
a(I56
F22892.333820672611
I3
I0
I0
tp163
a(I57
F24091.192828960033
I3
I0
I0
tp164
a(I58
F24291.328086858175
I4
I0
I0
tp165
a(I59
F24491.463344756317
I1
I0
I0
tp166
a(I60
F25691.298622594462
I1
I0
I0
tp167
a(I61
F26090.592868840031
I4
I0
I0
tp168
a(I62
F26490.863384636323
I2
I1
I0
tp169
a(I63
F26891.133900432611
I3
I0
I0
tp170
a(I64
F27290.428146678176
I2
I1
I0
tp171
a(I65
F27690.698662474468
I4
I1
I0
tp172
a(I66
F28089.992908720033
I1
I1
I0
tp173
a(I67
F28490.263424516321
I3
I1
I0
tp174
a(I68
F28890.533940312609
I2
I0
I0
tp175
a(I69
F29690.098702354466
I1
I0
I0
tp176
a(I70
F30489.663464396319
I1
I0
I0
tp177
a(I71
F30489.663464396319
I2
I0
I0
tp178
a(I72
F31289.228226438179
I3
I1
I0
tp179
a(I73
F31289.228226438179
I4
I1
I0
tp180
a(I74
F31689.498742234464
I3
I0
I0
tp181
a(I75
F31689.498742234464
I4
I0
I0
tp182
a(I76
F32088.792988480032
I3
I1
I0
tp183
a(I77
F32489.063504276324
I1
I0
I0
tp184
a(I78
F32889.334020072602
I4
I1
I0
tp185
a(I79
F33688.898782114462
I3
I1
I0
tp186
a(I80
F34088.19302836003
I4
I0
I0
tp187
a(I81
F34488.463544156315
I1
I1
I0
tp188
a(I82
F35288.028306198175
I3
I0
I0
tp189
a(I83
F35488.163564096321
I4
I1
I0
tp190
a(I84
F35688.29882199446
I3
I1
I0
tp191
a(I85
F36087.593068240029
I1
I0
I0
tp192
a(I86
F36888.134099832605
I2
I0
I0
tp193
a(I87
F37087.293088180028
I1
I0
I0
tp194
a(I88
F37287.428346078173
I2
I0
I0
tp195
a(I89
F37687.698861874458
I1
I1
I0
tp196
a(I90
F38487.263623916318
I3
I1
I0
tp197
a(I91
F38887.534139712603
I1
I0
I0
tp198
a(I92
F39286.828385958172
I4
I1
I0
tp199
a(I93
F40086.393148000032
I3
I1
I0
tp200
a(I94
F40486.663663796317
I4
I0
I0
tp201
a(I95
F40886.934179592608
I1
I1
I0
tp202
a(I96
F41686.498941634462
I3
I0
I0
tp203
a(I97
F41886.634199532607
I4
I1
I0
tp204
a(I98
F42085.79318788003
I3
I1
I0
tp205
a(I99
F42486.063703676315
I1
I0
I0
tp206
a(I100
F43285.628465718175
I2
I0
I0
tp207
a(I101
F43485.763723616314
I1
I0
I0
tp208
a(I102
F43685.89898151446
I2
I0
I0
tp209
a(I103
F44085.193227760028
I1
I1
I0
tp210
a(I104
F44885.734259352605
I2
I1
I0
tp211
a(I105
F45084.893247700034
I1
I0
I0
tp212
a(I106
F45285.028505598173
I3
I0
I0
tp213
a(I107
F45685.299021394465
I1
I1
I0
tp214
a(I108
F45685.299021394465
I2
I1
I0
tp215
a(I109
F46484.863783436318
I3
I0
I0
tp216
a(I110
F46684.999041334464
I4
I0
I0
tp217
a(I111
F46885.13429923261
I1
I1
I0
tp218
a(I112
F47284.428545478171
I3
I1
I0
tp219
a(I113
F47284.428545478171
I4
I1
I0
tp220
a(I114
F48083.993307520032
I2
I0
I0
tp221
a(I115
F48284.12856541817
I1
I0
I0
tp222
a(I116
F48484.263823316316
I3
I0
I0
tp223
a(I117
F49684.099101154461
I3
I0
I0
tp224
a(I118
F49884.234359052607
I4
I0
I0
tp225
a(I119
F50083.39334740003
I1
I0
I0
tp226
a(I120
F51283.228625238175
I1
I0
I0
tp227
a(I121
F51683.499141034466
I4
I0
I0
tp228
a(I122
F52082.793387280028
I2
I1
I0
tp229
a(I123
F52483.06390307632
I3
I0
I0
tp230
a(I124
F52883.334418872611
I2
I1
I0
tp231
a(I125
F53282.628665118173
I4
I1
I0
tp232
a(I126
F53682.899180914465
I1
I1
I0
tp233
a(I127
F54082.193427160033
I3
I1
I0
tp234
a(I128
F54482.463942956318
I2
I0
I0
tp235
a(I129
F55282.028704998178
I1
I0
I0
tp236
a(I130
F56081.593467040031
I1
I0
I0
tp237
a(I131
F56081.593467040031
I2
I0
I0
tp238
a(I132
F56882.134498632608
I3
I1
I0
tp239
a(I133
F56882.134498632608
I4
I1
I0
tp240
a(I134
F57281.428744878176
I3
I0
I0
tp241
a(I135
F57281.428744878176
I4
I0
I0
tp242
a(I136
F57681.699260674468
I1
I0
I0
tp243
aa(lp244
(I0
F115.96520231304
I1
I0
I0
tp245
a(I1
F898.93338199261029
I3
I0
I0
tp246
a(I2
F1298.2276282381765
I2
I0
I0
tp247
a(I3
F1698.4981440344657
I4
I0
I0
tp248
a(I4
F2498.0629060763213
I2
I1
I0
tp249
a(I5
F2898.33342187261
I3
I1
I0
tp250
a(I6
F3297.6276681181766
I1
I0
I0
tp251
a(I7
F4097.1924301600329
I3
I0
I0
tp252
a(I8
F4497.4629459563212
I2
I0
I0
tp253
a(I9
F4897.7334617526103
I4
I1
I0
tp254
a(I10
F5697.2982237944652
I1
I1
I0
tp255
a(I11
F5697.2982237944652
I2
I1
I0
tp256
a(I12
F6096.5924700400319
I1
I0
I0
tp257
a(I13
F6096.5924700400319
I3
I0
I0
tp258
a(I14
F6496.8629858363201
I3
I1
I0
tp259
a(I15
F6897.1335016326093
I1
I0
I0
tp260
a(I16
F7296.427747878176
I4
I1
I0
tp261
a(I17
F7696.6982636744651
I2
I0
I0
tp262
a(I18
F8095.9925099200318
I3
I1
I0
tp263
a(I19
F8496.2630257163219
I4
I0
I0
tp264
a(I20
F8896.5335415126119
I1
I1
I0
tp265
a(I21
F9295.8277877581768
I2
I0
I0
tp266
a(I22
F9696.0983035544632
I3
I0
I0
tp267
a(I23
F9896.2335614526091
I4
I1
I0
tp268
a(I24
F10095.39254980003
I3
I1
I0
tp269
a(I25
F10495.66306559632
I1
I0
I0
tp270
a(I26
F10895.933581392608
I3
I1
I0
tp271
a(I27
F11295.227827638175
I2
I0
I0
tp272
a(I28
F11495.363085536321
I1
I0
I0
tp273
a(I29
F11695.498343434465
I2
I0
I0
tp274
a(I30
F12094.792589680032
I2
I1
I0
tp275
a(I31
F12094.792589680032
I4
I1
I0
tp276
a(I32
F12895.33362127261
I3
I1
I0
tp277
a(I33
F13294.627867518177
I1
I0
I0
tp278
a(I34
F13694.898383314463
I4
I1
I0
tp279
a(I35
F14094.19262956003
I2
I0
I0
tp280
a(I36
F14494.46314535632
I3
I1
I0
tp281
a(I37
F14894.73366115261
I4
I0
I0
tp282
a(I38
F15294.027907398175
I1
I1
I0
tp283
a(I39
F15694.298423194465
I2
I0
I0
tp284
a(I40
F16093.592669440031
I3
I0
I0
tp285
a(I41
F16293.727927338176
I4
I1
I0
tp286
a(I42
F16493.863185236318
I3
I1
I0
tp287
a(I43
F16894.13370103261
I1
I0
I0
tp288
a(I44
F17293.427947278175
I3
I1
I0
tp289
a(I45
F17693.698463074463
I2
I0
I0
tp290
a(I46
F17893.833720972609
I1
I0
I0
tp291
a(I47
F18092.992709320031
I2
I0
I0
tp292
a(I48
F18493.263225116323
I2
I1
I0
tp293
a(I49
F18493.263225116323
I4
I1
I0
tp294
a(I50
F19292.827987158176
I2
I1
I0
tp295
a(I51
F19492.963245056319
I1
I0
I0
tp296
a(I52
F19693.098502954468
I3
I0
I0
tp297
a(I53
F20092.392749200033
I1
I1
I0
tp298
a(I54
F20092.392749200033
I4
I1
I0
tp299
a(I55
F20892.933780792609
I3
I0
I0
tp300
a(I56
F21092.092769140032
I4
I0
I0
tp301
a(I57
F21292.228027038174
I1
I0
I0
tp302
a(I58
F21692.498542834466
I2
I1
I0
tp303
a(I59
F21692.498542834466
I4
I1
I0
tp304
a(I60
F22492.063304876319
I2
I0
I0
tp305
a(I61
F22692.198562774465
I1
I0
I0
tp306
a(I62
F22892.333820672611
I3
I0
I0
tp307
a(I63
F22892.333820672611
I4
I0
I0
tp308
a(I64
F24091.192828960033
I3
I0
I0
tp309
a(I65
F24291.328086858175
I4
I0
I0
tp310
a(I66
F24491.463344756317
I1
I1
I0
tp311
a(I67
F24491.463344756317
I2
I1
I0
tp312
a(I68
F25691.298622594462
I1
I0
I0
tp313
a(I69
F26090.592868840031
I4
I0
I0
tp314
a(I70
F26490.863384636323
I2
I0
I0
tp315
a(I71
F26690.998642534465
I1
I1
I0
tp316
a(I72
F26891.133900432611
I3
I0
I0
tp317
a(I73
F27290.428146678176
I2
I1
I0
tp318
a(I74
F27690.698662474468
I4
I1
I0
tp319
a(I75
F28089.992908720033
I1
I1
I0
tp320
a(I76
F28290.128166618179
I2
I1
I0
tp321
a(I77
F28490.263424516321
I3
I1
I0
tp322
a(I78
F28890.533940312609
I2
I0
I0
tp323
a(I79
F29690.098702354466
I1
I0
I0
tp324
a(I80
F30489.663464396319
I1
I1
I0
tp325
a(I81
F30489.663464396319
I2
I1
I0
tp326
a(I82
F31289.228226438179
I3
I1
I0
tp327
a(I83
F31289.228226438179
I4
I1
I0
tp328
a(I84
F31689.498742234464
I3
I0
I0
tp329
a(I85
F31689.498742234464
I4
I0
I0
tp330
a(I86
F32088.792988480032
I3
I1
I0
tp331
a(I87
F32489.063504276324
I1
I0
I0
tp332
a(I88
F32889.334020072602
I4
I1
I0
tp333
a(I89
F33288.62826631817
I2
I0
I0
tp334
a(I90
F33688.898782114462
I3
I1
I0
tp335
a(I91
F34088.19302836003
I4
I0
I0
tp336
a(I92
F34488.463544156315
I1
I1
I0
tp337
a(I93
F34888.734059952607
I2
I0
I0
tp338
a(I94
F35288.028306198175
I3
I0
I0
tp339
a(I95
F35488.163564096321
I4
I1
I0
tp340
a(I96
F35688.29882199446
I3
I1
I0
tp341
a(I97
F36087.593068240029
I1
I0
I0
tp342
a(I98
F36487.86358403632
I3
I1
I0
tp343
a(I99
F36888.134099832605
I2
I0
I0
tp344
a(I100
F37087.293088180028
I1
I0
I0
tp345
a(I101
F37287.428346078173
I2
I0
I0
tp346
a(I102
F37687.698861874458
I2
I1
I0
tp347
a(I103
F37687.698861874458
I4
I1
I0
tp348
a(I104
F38487.263623916318
I3
I1
I0
tp349
a(I105
F38887.534139712603
I1
I0
I0
tp350
a(I106
F39286.828385958172
I4
I1
I0
tp351
a(I107
F39687.098901754463
I2
I0
I0
tp352
a(I108
F40086.393148000032
I3
I1
I0
tp353
a(I109
F40486.663663796317
I4
I0
I0
tp354
a(I110
F40886.934179592608
I1
I1
I0
tp355
a(I111
F41286.228425838177
I2
I0
I0
tp356
a(I112
F41686.498941634462
I3
I0
I0
tp357
a(I113
F41886.634199532607
I4
I1
I0
tp358
a(I114
F42085.79318788003
I3
I1
I0
tp359
a(I115
F42486.063703676315
I1
I0
I0
tp360
a(I116
F42886.334219472606
I3
I1
I0
tp361
a(I117
F43285.628465718175
I2
I0
I0
tp362
a(I118
F43485.763723616314
I1
I0
I0
tp363
a(I119
F43685.89898151446
I2
I0
I0
tp364
a(I120
F44085.193227760028
I2
I1
I0
tp365
a(I121
F44085.193227760028
I4
I1
I0
tp366
a(I122
F44885.734259352605
I2
I1
I0
tp367
a(I123
F45084.893247700034
I1
I0
I0
tp368
a(I124
F45285.028505598173
I3
I0
I0
tp369
a(I125
F45685.299021394465
I1
I1
I0
tp370
a(I126
F45685.299021394465
I4
I1
I0
tp371
a(I127
F46484.863783436318
I3
I0
I0
tp372
a(I128
F46684.999041334464
I4
I0
I0
tp373
a(I129
F46885.13429923261
I1
I0
I0
tp374
a(I130
F47284.428545478171
I2
I1
I0
tp375
a(I131
F47284.428545478171
I4
I1
I0
tp376
a(I132
F48083.993307520032
I2
I0
I0
tp377
a(I133
F48284.12856541817
I1
I0
I0
tp378
a(I134
F48484.263823316316
I3
I0
I0
tp379
a(I135
F48484.263823316316
I4
I0
I0
tp380
a(I136
F49684.099101154461
I3
I0
I0
tp381
a(I137
F49884.234359052607
I4
I0
I0
tp382
a(I138
F50083.39334740003
I1
I1
I0
tp383
a(I139
F50083.39334740003
I2
I1
I0
tp384
a(I140
F51283.228625238175
I1
I0
I0
tp385
a(I141
F51683.499141034466
I4
I0
I0
tp386
a(I142
F52082.793387280028
I2
I0
I0
tp387
a(I143
F52282.928645178174
I1
I1
I0
tp388
a(I144
F52483.06390307632
I3
I0
I0
tp389
a(I145
F52883.334418872611
I2
I1
I0
tp390
a(I146
F53282.628665118173
I4
I1
I0
tp391
a(I147
F53682.899180914465
I1
I1
I0
tp392
a(I148
F53883.03443881261
I2
I1
I0
tp393
a(I149
F54082.193427160033
I3
I1
I0
tp394
a(I150
F54482.463942956318
I2
I0
I0
tp395
a(I151
F55282.028704998178
I1
I0
I0
tp396
a(I152
F56081.593467040031
I1
I1
I0
tp397
a(I153
F56081.593467040031
I2
I1
I0
tp398
a(I154
F56882.134498632608
I3
I1
I0
tp399
a(I155
F56882.134498632608
I4
I1
I0
tp400
a(I156
F57281.428744878176
I3
I0
I0
tp401
a(I157
F57281.428744878176
I4
I0
I0
tp402
a(I158
F57681.699260674468
I1
I0
I0
tp403
aa.