(lp1
(lp2
(I0
F316.51910156249994
I2
I1
I0
tp3
a(I1
F767.23980468750005
I3
I1
I0
tp4
a(I2
F1217.9605078125001
I4
I0
I0
tp5
a(I3
F2119.4019140624996
I2
I1
I0
tp6
a(I4
F2570.1226171874996
I1
I0
I0
tp7
a(I5
F3922.2847265624996
I2
I0
I0
tp8
a(I6
F4373.0054296874987
I4
I0
I0
tp9
a(I7
F5274.4468359374987
I3
I0
I0
tp10
a(I8
F5725.1675390624987
I3
I1
I0
tp11
a(I9
F6175.8882421874987
I1
I0
I0
tp12
a(I10
F7077.3296484374987
I1
I1
I0
tp13
a(I11
F7978.7710546874987
I3
I0
I0
tp14
a(I12
F8429.4917578125005
I4
I1
I0
tp15
a(I13
F9330.9331640625005
I2
I0
I0
tp16
a(I14
F9780.6782812500005
I1
I1
I0
tp17
a(I15
F11132.840390625001
I2
I1
I0
tp18
a(I16
F11583.561093750001
I3
I1
I0
tp19
a(I17
F12485.002500000001
I3
I1
I0
tp20
a(I18
F12935.723203125001
I3
I1
I0
tp21
a(I19
F13386.443906250001
I1
I1
I0
tp22
a(I20
F13837.164609375001
I2
I1
I0
tp23
a(I21
F15189.326718750001
I3
I1
I0
tp24
a(I22
F16090.768125000001
I4
I0
I0
tp25
a(I23
F16992.209531249999
I3
I1
I0
tp26
a(I24
F17442.930234374999
I2
I1
I0
tp27
a(I25
F17893.650937499999
I3
I1
I0
tp28
a(I26
F18795.092343749999
I1
I1
I0
tp29
a(I27
F19696.533749999999
I3
I1
I0
tp30
a(I28
F20596.999570312499
I1
I1
I0
tp31
a(I29
F21047.720273437499
I2
I1
I0
tp32
a(I30
F21498.440976562499
I1
I1
I0
tp33
a(I31
F22399.882382812499
I3
I0
I0
tp34
a(I32
F23301.323789062499
I4
I1
I0
tp35
a(I33
F24202.765195312499
I3
I0
I0
tp36
a(I34
F24653.485898437499
I2
I0
I0
tp37
a(I35
F25104.206601562499
I3
I0
I0
tp38
a(I36
F26005.648007812499
I1
I0
I0
tp39
a(I37
F26907.089414062499
I3
I0
I0
tp40
a(I38
F27808.530820312499
I1
I0
I0
tp41
a(I39
F28259.251523437499
I2
I0
I0
tp42
a(I40
F28709.972226562495
I1
I0
I0
tp43
a(I41
F29611.413632812495
I3
I1
I0
tp44
a(I42
F30061.158749999995
I4
I0
I0
tp45
a(I43
F30962.600156249995
I2
I1
I0
tp46
a(I44
F31413.320859374995
I1
I0
I0
tp47
a(I45
F32765.482968749999
I2
I0
I0
tp48
a(I46
F33216.203671874995
I4
I0
I0
tp49
a(I47
F34117.645078124995
I3
I0
I0
tp50
a(I48
F34568.365781249995
I3
I1
I0
tp51
a(I49
F35019.086484374995
I1
I0
I0
tp52
a(I50
F35920.527890624995
I1
I1
I0
tp53
a(I51
F36821.969296874995
I3
I0
I0
tp54
a(I52
F37272.689999999995
I4
I1
I0
tp55
a(I53
F38174.131406249995
I2
I0
I0
tp56
a(I54
F38624.852109374995
I1
I1
I0
tp57
a(I55
F39976.038632812495
I2
I1
I0
tp58
a(I56
F40426.759335937495
I3
I1
I0
tp59
a(I57
F41328.200742187495
I3
I1
I0
tp60
a(I58
F41778.921445312495
I3
I1
I0
tp61
a(I59
F42229.642148437495
I1
I1
I0
tp62
a(I60
F42680.362851562495
I2
I1
I0
tp63
a(I61
F44032.524960937495
I3
I1
I0
tp64
a(I62
F44933.966367187495
I4
I0
I0
tp65
a(I63
F45835.407773437495
I3
I1
I0
tp66
a(I64
F46286.128476562495
I2
I1
I0
tp67
a(I65
F46736.849179687495
I3
I1
I0
tp68
a(I66
F47638.290585937495
I1
I1
I0
tp69
a(I67
F48539.731992187495
I3
I1
I0
tp70
a(I68
F49441.173398437495
I1
I1
I0
tp71
a(I69
F49890.918515624995
I2
I1
I0
tp72
a(I70
F50341.639218749995
I1
I1
I0
tp73
a(I71
F51243.080624999995
I1
I0
I0
tp74
a(I72
F51243.080624999995
I2
I0
I0
tp75
a(I73
F52144.522031249995
I1
I1
I0
tp76
a(I74
F52144.522031249995
I2
I1
I0
tp77
a(I75
F53045.963437499995
I3
I0
I0
tp78
a(I76
F53947.404843749995
I1
I1
I0
tp79
a(I77
F54848.846249999995
I2
I1
I0
tp80
a(I78
F55750.287656249995
I3
I1
I0
tp81
a(I79
F55750.287656249995
I4
I1
I0
tp82
a(I80
F56651.729062499995
I3
I1
I0
tp83
a(I81
F57553.170468749995
I4
I1
I0
tp84
a(I82
F65665.167539062488
I3
I1
I0
tp85
a(I83
F65665.167539062488
I4
I1
I0
tp86
a(I84
F66566.608945312488
I1
I0
I0
tp87
a(I85
F67017.329648437488
I4
I0
I0
tp88
a(I86
F67468.050351562488
I1
I1
I0
tp89
a(I87
F68369.491757812488
I3
I0
I0
tp90
a(I88
F68820.212460937488
I2
I0
I0
tp91
a(I89
F69270.933164062488
I3
I1
I0
tp92
a(I90
F70171.398984374988
I1
I0
I0
tp93
a(I91
F70622.119687499988
I4
I0
I0
tp94
a(I92
F71072.840390624988
I1
I1
I0
tp95
a(I93
F72425.002499999988
I2
I1
I0
tp96
aa(lp97
(I0
F767.23980468750005
I3
I1
I0
tp98
a(I1
F1217.9605078125001
I4
I1
I0
tp99
a(I2
F1894.0415624999998
I3
I0
I0
tp100
a(I3
F2119.4019140624996
I2
I1
I0
tp101
a(I4
F2570.1226171874996
I1
I0
I0
tp102
a(I5
F3696.9243749999996
I3
I0
I0
tp103
a(I6
F3922.2847265624996
I2
I0
I0
tp104
a(I7
F4373.0054296874987
I3
I1
I0
tp105
a(I8
F5274.4468359374987
I3
I1
I0
tp106
a(I9
F5725.1675390624987
I3
I1
I0
tp107
a(I10
F6175.8882421874987
I1
I0
I0
tp108
a(I11
F6626.6089453124987
I2
I0
I0
tp109
a(I12
F7077.3296484374987
I1
I1
I0
tp110
a(I13
F7528.0503515624987
I3
I1
I0
tp111
a(I14
F7978.7710546874987
I3
I0
I0
tp112
a(I15
F8429.4917578125005
I4
I1
I0
tp113
a(I16
F9105.5728125000005
I3
I1
I0
tp114
a(I17
F9330.9331640625005
I2
I1
I0
tp115
a(I18
F9780.6782812500005
I1
I1
I0
tp116
a(I19
F10907.480039062501
I3
I0
I0
tp117
a(I20
F11132.840390625001
I2
I1
I0
tp118
a(I21
F11583.561093750001
I3
I1
I0
tp119
a(I22
F12372.810117187501
I3
I0
I0
tp120
a(I23
F12485.002500000001
I3
I1
I0
tp121
a(I24
F12823.530820312501
I3
I0
I0
tp122
a(I25
F12935.723203125001
I3
I1
I0
tp123
a(I26
F13161.083554687501
I2
I1
I0
tp124
a(I27
F13386.443906250001
I1
I1
I0
tp125
a(I28
F13837.164609375001
I2
I1
I0
tp126
a(I29
F14513.245664062501
I4
I1
I0
tp127
a(I30
F14738.606015625001
I3
I0
I0
tp128
a(I31
F15076.158750000001
I4
I1
I0
tp129
a(I32
F15189.326718750001
I3
I1
I0
tp130
a(I33
F15640.047421875001
I2
I1
I0
tp131
a(I34
F16090.768125000001
I4
I0
I0
tp132
a(I35
F16541.488828124999
I1
I1
I0
tp133
a(I36
F16992.209531249999
I3
I1
I0
tp134
a(I37
F17893.650937499999
I3
I0
I0
tp135
a(I38
F18795.092343749999
I4
I1
I0
tp136
a(I39
F19245.813046874999
I2
I0
I0
tp137
a(I40
F19696.533749999999
I3
I1
I0
tp138
a(I41
F20146.278867187499
I1
I0
I0
tp139
a(I42
F20596.999570312499
I3
I1
I0
tp140
a(I43
F21047.720273437499
I2
I1
I0
tp141
a(I44
F21498.440976562499
I1
I1
I0
tp142
a(I45
F22399.882382812499
I3
I0
I0
tp143
a(I46
F22850.603085937499
I2
I0
I0
tp144
a(I47
F23301.323789062499
I4
I1
I0
tp145
a(I48
F23752.044492187499
I1
I0
I0
tp146
a(I49
F24202.765195312499
I3
I0
I0
tp147
a(I50
F25104.206601562499
I3
I1
I0
tp148
a(I51
F26005.648007812499
I4
I0
I0
tp149
a(I52
F26456.368710937499
I2
I1
I0
tp150
a(I53
F26907.089414062499
I3
I0
I0
tp151
a(I54
F27357.810117187499
I1
I1
I0
tp152
a(I55
F27808.530820312499
I3
I0
I0
tp153
a(I56
F28259.251523437499
I2
I0
I0
tp154
a(I57
F28709.972226562495
I1
I0
I0
tp155
a(I58
F29611.413632812495
I3
I1
I0
tp156
a(I59
F30061.158749999995
I4
I1
I0
tp157
a(I60
F30737.239804687495
I3
I0
I0
tp158
a(I61
F30962.600156249995
I2
I1
I0
tp159
a(I62
F31413.320859374995
I1
I0
I0
tp160
a(I63
F32540.122617187495
I3
I0
I0
tp161
a(I64
F32765.482968749999
I2
I0
I0
tp162
a(I65
F33216.203671874995
I3
I1
I0
tp163
a(I66
F34117.645078124995
I3
I1
I0
tp164
a(I67
F34568.365781249995
I3
I1
I0
tp165
a(I68
F35019.086484374995
I1
I0
I0
tp166
a(I69
F35469.807187499995
I2
I0
I0
tp167
a(I70
F35920.527890624995
I1
I1
I0
tp168
a(I71
F36371.248593749995
I3
I1
I0
tp169
a(I72
F36821.969296874995
I3
I0
I0
tp170
a(I73
F37272.689999999995
I4
I1
I0
tp171
a(I74
F37948.771054687495
I3
I1
I0
tp172
a(I75
F38174.131406249995
I2
I1
I0
tp173
a(I76
F38624.852109374995
I1
I1
I0
tp174
a(I77
F39750.678281249995
I3
I0
I0
tp175
a(I78
F39976.038632812495
I2
I1
I0
tp176
a(I79
F40426.759335937495
I3
I1
I0
tp177
a(I80
F41216.008359374995
I3
I0
I0
tp178
a(I81
F41328.200742187495
I3
I1
I0
tp179
a(I82
F41666.729062499995
I3
I0
I0
tp180
a(I83
F41778.921445312495
I3
I1
I0
tp181
a(I84
F42004.281796874995
I2
I1
I0
tp182
a(I85
F42229.642148437495
I1
I1
I0
tp183
a(I86
F42680.362851562495
I2
I1
I0
tp184
a(I87
F43356.443906249995
I4
I1
I0
tp185
a(I88
F43581.804257812495
I3
I0
I0
tp186
a(I89
F43920.332578124995
I4
I1
I0
tp187
a(I90
F44032.524960937495
I3
I1
I0
tp188
a(I91
F44483.245664062495
I2
I1
I0
tp189
a(I92
F44933.966367187495
I4
I0
I0
tp190
a(I93
F45384.687070312495
I1
I1
I0
tp191
a(I94
F45835.407773437495
I3
I1
I0
tp192
a(I95
F46736.849179687495
I3
I0
I0
tp193
a(I96
F47638.290585937495
I4
I1
I0
tp194
a(I97
F48089.011289062495
I2
I0
I0
tp195
a(I98
F48539.731992187495
I3
I1
I0
tp196
a(I99
F48990.452695312495
I1
I0
I0
tp197
a(I100
F49441.173398437495
I3
I1
I0
tp198
a(I101
F49890.918515624995
I2
I1
I0
tp199
a(I102
F50341.639218749995
I1
I1
I0
tp200
a(I103
F51243.080624999995
I1
I1
I0
tp201
a(I104
F51243.080624999995
I2
I1
I0
tp202
a(I105
F51693.801328124995
I3
I1
I0
tp203
a(I106
F52144.522031249995
I1
I1
I0
tp204
a(I107
F52144.522031249995
I2
I1
I0
tp205
a(I108
F53045.963437499995
I3
I0
I0
tp206
a(I109
F53496.684140624995
I4
I1
I0
tp207
a(I110
F53947.404843749995
I3
I1
I0
tp208
a(I111
F54398.125546874995
I2
I0
I0
tp209
a(I112
F54848.846249999995
I3
I0
I0
tp210
a(I113
F55750.287656249995
I3
I1
I0
tp211
a(I114
F55750.287656249995
I4
I1
I0
tp212
a(I115
F56201.008359374995
I2
I1
I0
tp213
a(I116
F56651.729062499995
I1
I1
I0
tp214
a(I117
F56651.729062499995
I2
I1
I0
tp215
a(I118
F57553.170468749995
I4
I0
I0
tp216
a(I119
F58003.891171874995
I2
I0
I0
tp217
a(I120
F58454.611874999995
I3
I1
I0
tp218
a(I121
F58905.332578124995
I2
I1
I0
tp219
a(I122
F59356.053281249995
I3
I1
I0
tp220
a(I123
F60256.519101562495
I4
I1
I0
tp221
a(I124
F60707.239804687495
I1
I1
I0
tp222
a(I125
F61157.960507812495
I4
I1
I0
tp223
a(I126
F62059.401914062495
I3
I1
I0
tp224
a(I127
F62059.401914062495
I4
I1
I0
tp225
a(I128
F62960.843320312495
I1
I1
I0
tp226
a(I129
F62960.843320312495
I2
I1
I0
tp227
a(I130
F63862.284726562495
I3
I1
I0
tp228
a(I131
F63862.284726562495
I4
I1
I0
tp229
a(I132
F64763.726132812495
I1
I1
I0
tp230
a(I133
F64763.726132812495
I2
I1
I0
tp231
a(I134
F65665.167539062488
I3
I1
I0
tp232
a(I135
F65665.167539062488
I4
I1
I0
tp233
a(I136
F66566.608945312488
I1
I0
I0
tp234
a(I137
F67017.329648437488
I4
I0
I0
tp235
a(I138
F67468.050351562488
I1
I1
I0
tp236
a(I139
F68369.491757812488
I3
I0
I0
tp237
a(I140
F68820.212460937488
I2
I0
I0
tp238
a(I141
F69270.933164062488
I3
I1
I0
tp239
a(I142
F70171.398984374988
I1
I0
I0
tp240
a(I143
F70622.119687499988
I4
I0
I0
tp241
a(I144
F71072.840390624988
I1
I1
I0
tp242
aa(lp243
(I0
F184.81499999999997
I1
I0
I0
tp244
a(I1
F184.81499999999997
I1
I0
I0
tp245
a(I2
F316.51910156249994
I2
I1
I0
tp246
a(I3
F316.51910156249994
I2
I1
I0
tp247
a(I4
F655.04742187500005
I3
I1
I0
tp248
a(I5
F767.23980468750005
I3
I1
I0
tp249
a(I6
F1217.9605078125001
I4
I1
I0
tp250
a(I7
F1894.0415624999998
I3
I0
I0
tp251
a(I8
F2119.4019140624996
I2
I1
I0
tp252
a(I9
F2570.1226171874996
I1
I0
I0
tp253
a(I10
F3696.9243749999996
I3
I0
I0
tp254
a(I11
F3922.2847265624996
I2
I0
I0
tp255
a(I12
F4147.6450781249987
I3
I0
I0
tp256
a(I13
F4373.0054296874987
I3
I1
I0
tp257
a(I14
F5274.4468359374987
I3
I1
I0
tp258
a(I15
F5725.1675390624987
I3
I1
I0
tp259
a(I16
F5950.5278906249987
I2
I1
I0
tp260
a(I17
F6175.8882421874987
I1
I0
I0
tp261
a(I18
F6626.6089453124987
I2
I0
I0
tp262
a(I19
F7077.3296484374987
I1
I1
I0
tp263
a(I20
F7302.6899999999987
I2
I1
I0
tp264
a(I21
F7528.0503515624987
I3
I1
I0
tp265
a(I22
F7865.6030859374987
I4
I1
I0
tp266
a(I23
F7978.7710546874987
I3
I0
I0
tp267
a(I24
F8429.4917578125005
I4
I1
I0
tp268
a(I25
F9105.5728125000005
I3
I1
I0
tp269
a(I26
F9330.9331640625005
I2
I1
I0
tp270
a(I27
F9668.4858984375005
I1
I0
I0
tp271
a(I28
F9780.6782812500005
I1
I1
I0
tp272
a(I29
F10907.480039062501
I3
I0
I0
tp273
a(I30
F11132.840390625001
I2
I1
I0
tp274
a(I31
F11358.200742187501
I3
I0
I0
tp275
a(I32
F11583.561093750001
I3
I1
I0
tp276
a(I33
F12372.810117187501
I3
I0
I0
tp277
a(I34
F12485.002500000001
I3
I1
I0
tp278
a(I35
F12823.530820312501
I3
I0
I0
tp279
a(I36
F12935.723203125001
I3
I1
I0
tp280
a(I37
F13161.083554687501
I2
I1
I0
tp281
a(I38
F13386.443906250001
I1
I1
I0
tp282
a(I39
F13837.164609375001
I2
I1
I0
tp283
a(I40
F14287.885312500001
I1
I1
I0
tp284
a(I41
F14513.245664062501
I4
I1
I0
tp285
a(I42
F14738.606015625001
I3
I0
I0
tp286
a(I43
F15076.158750000001
I4
I1
I0
tp287
a(I44
F15189.326718750001
I3
I1
I0
tp288
a(I45
F15640.047421875001
I2
I1
I0
tp289
a(I46
F15640.047421875001
I4
I1
I0
tp290
a(I47
F16090.768125000001
I4
I0
I0
tp291
a(I48
F16541.488828124999
I1
I1
I0
tp292
a(I49
F16541.488828124999
I3
I1
I0
tp293
a(I50
F16992.209531249999
I3
I0
I0
tp294
a(I51
F17442.930234374999
I2
I0
I0
tp295
a(I52
F17893.650937499999
I3
I0
I0
tp296
a(I53
F18119.011289062499
I2
I1
I0
tp297
a(I54
F18344.371640624999
I1
I1
I0
tp298
a(I55
F18795.092343749999
I1
I0
I0
tp299
a(I56
F19245.813046874999
I2
I1
I0
tp300
a(I57
F19245.813046874999
I3
I1
I0
tp301
a(I58
F19696.533749999999
I3
I1
I0
tp302
a(I59
F20146.278867187499
I1
I1
I0
tp303
a(I60
F20146.278867187499
I4
I1
I0
tp304
a(I61
F20596.999570312499
I1
I1
I0
tp305
a(I62
F21047.720273437499
I2
I1
I0
tp306
a(I63
F21498.440976562499
I1
I1
I0
tp307
a(I64
F22399.882382812499
I3
I0
I0
tp308
a(I65
F22850.603085937499
I2
I0
I0
tp309
a(I66
F22850.603085937499
I4
I0
I0
tp310
a(I67
F23301.323789062499
I4
I1
I0
tp311
a(I68
F23752.044492187499
I1
I0
I0
tp312
a(I69
F23752.044492187499
I3
I0
I0
tp313
a(I70
F24202.765195312499
I3
I1
I0
tp314
a(I71
F24653.485898437499
I2
I1
I0
tp315
a(I72
F25104.206601562499
I3
I1
I0
tp316
a(I73
F25329.566953124999
I2
I0
I0
tp317
a(I74
F25554.927304687499
I1
I0
I0
tp318
a(I75
F26005.648007812499
I1
I1
I0
tp319
a(I76
F26456.368710937499
I2
I0
I0
tp320
a(I77
F26456.368710937499
I3
I0
I0
tp321
a(I78
F26907.089414062499
I3
I0
I0
tp322
a(I79
F27357.810117187499
I1
I0
I0
tp323
a(I80
F27357.810117187499
I4
I0
I0
tp324
a(I81
F27808.530820312499
I1
I0
I0
tp325
a(I82
F28259.251523437499
I2
I0
I0
tp326
a(I83
F28709.972226562495
I1
I0
I0
tp327
a(I84
F29611.413632812495
I3
I1
I0
tp328
a(I85
F30061.158749999995
I4
I1
I0
tp329
a(I86
F30737.239804687495
I3
I0
I0
tp330
a(I87
F30962.600156249995
I2
I1
I0
tp331
a(I88
F31413.320859374995
I1
I0
I0
tp332
a(I89
F32540.122617187495
I3
I0
I0
tp333
a(I90
F32765.482968749999
I2
I0
I0
tp334
a(I91
F32990.843320312495
I3
I0
I0
tp335
a(I92
F33216.203671874995
I3
I1
I0
tp336
a(I93
F34117.645078124995
I3
I1
I0
tp337
a(I94
F34568.365781249995
I3
I1
I0
tp338
a(I95
F34793.726132812495
I2
I1
I0
tp339
a(I96
F35019.086484374995
I1
I0
I0
tp340
a(I97
F35469.807187499995
I2
I0
I0
tp341
a(I98
F35920.527890624995
I1
I1
I0
tp342
a(I99
F36145.888242187495
I2
I1
I0
tp343
a(I100
F36371.248593749995
I3
I1
I0
tp344
a(I101
F36708.801328124995
I4
I1
I0
tp345
a(I102
F36821.969296874995
I3
I0
I0
tp346
a(I103
F37272.689999999995
I4
I1
I0
tp347
a(I104
F37948.771054687495
I3
I1
I0
tp348
a(I105
F38174.131406249995
I2
I1
I0
tp349
a(I106
F38511.684140624995
I1
I0
I0
tp350
a(I107
F38624.852109374995
I1
I1
I0
tp351
a(I108
F39750.678281249995
I3
I0
I0
tp352
a(I109
F39976.038632812495
I2
I1
I0
tp353
a(I110
F40201.398984374995
I3
I0
I0
tp354
a(I111
F40426.759335937495
I3
I1
I0
tp355
a(I112
F41216.008359374995
I3
I0
I0
tp356
a(I113
F41328.200742187495
I3
I1
I0
tp357
a(I114
F41666.729062499995
I3
I0
I0
tp358
a(I115
F41778.921445312495
I3
I1
I0
tp359
a(I116
F42004.281796874995
I2
I1
I0
tp360
a(I117
F42229.642148437495
I1
I1
I0
tp361
a(I118
F42680.362851562495
I2
I1
I0
tp362
a(I119
F43131.083554687495
I1
I1
I0
tp363
a(I120
F43356.443906249995
I4
I1
I0
tp364
a(I121
F43581.804257812495
I3
I0
I0
tp365
a(I122
F43920.332578124995
I4
I1
I0
tp366
a(I123
F44032.524960937495
I3
I1
I0
tp367
a(I124
F44483.245664062495
I2
I1
I0
tp368
a(I125
F44483.245664062495
I4
I1
I0
tp369
a(I126
F44933.966367187495
I4
I0
I0
tp370
a(I127
F45384.687070312495
I1
I1
I0
tp371
a(I128
F45384.687070312495
I3
I1
I0
tp372
a(I129
F45835.407773437495
I3
I0
I0
tp373
a(I130
F46286.128476562495
I2
I0
I0
tp374
a(I131
F46736.849179687495
I3
I0
I0
tp375
a(I132
F46962.209531249995
I2
I1
I0
tp376
a(I133
F47187.569882812495
I1
I1
I0
tp377
a(I134
F47638.290585937495
I1
I0
I0
tp378
a(I135
F48089.011289062495
I2
I1
I0
tp379
a(I136
F48089.011289062495
I3
I1
I0
tp380
a(I137
F48539.731992187495
I3
I1
I0
tp381
a(I138
F48990.452695312495
I1
I1
I0
tp382
a(I139
F48990.452695312495
I4
I1
I0
tp383
a(I140
F49441.173398437495
I1
I1
I0
tp384
a(I141
F49890.918515624995
I2
I1
I0
tp385
a(I142
F50341.639218749995
I1
I1
I0
tp386
a(I143
F51243.080624999995
I1
I1
I0
tp387
a(I144
F51243.080624999995
I2
I1
I0
tp388
a(I145
F51693.801328124995
I3
I1
I0
tp389
a(I146
F52144.522031249995
I1
I1
I0
tp390
a(I147
F52144.522031249995
I2
I1
I0
tp391
a(I148
F53045.963437499995
I3
I0
I0
tp392
a(I149
F53496.684140624995
I4
I1
I0
tp393
a(I150
F53722.044492187495
I1
I1
I0
tp394
a(I151
F53947.404843749995
I3
I1
I0
tp395
a(I152
F54172.765195312495
I4
I1
I0
tp396
a(I153
F54398.125546874995
I2
I1
I0
tp397
a(I154
F54623.485898437495
I1
I1
I0
tp398
a(I155
F54848.846249999995
I3
I0
I0
tp399
a(I156
F55750.287656249995
I1
I1
I0
tp400
a(I157
F55750.287656249995
I3
I1
I0
tp401
a(I158
F56201.008359374995
I2
I1
I0
tp402
a(I159
F56651.729062499995
I1
I1
I0
tp403
a(I160
F56651.729062499995
I4
I1
I0
tp404
a(I161
F57553.170468749995
I4
I0
I0
tp405
a(I162
F58003.891171874995
I2
I0
I0
tp406
a(I163
F58229.251523437495
I1
I1
I0
tp407
a(I164
F58454.611874999995
I3
I0
I0
tp408
a(I165
F58679.972226562495
I1
I0
I0
tp409
a(I166
F58905.332578124995
I2
I0
I0
tp410
a(I167
F59130.692929687495
I4
I0
I0
tp411
a(I168
F59356.053281249995
I3
I1
I0
tp412
a(I169
F60256.519101562495
I4
I0
I0
tp413
a(I170
F60481.879453124995
I2
I0
I0
tp414
a(I171
F60707.239804687495
I1
I0
I0
tp415
a(I172
F60932.600156249995
I3
I0
I0
tp416
a(I173
F61157.960507812495
I4
I1
I0
tp417
a(I174
F62059.401914062495
I1
I1
I0
tp418
a(I175
F62059.401914062495
I3
I1
I0
tp419
a(I176
F62960.843320312495
I1
I1
I0
tp420
a(I177
F62960.843320312495
I4
I1
I0
tp421
a(I178
F63862.284726562495
I2
I1
I0
tp422
a(I179
F63862.284726562495
I3
I1
I0
tp423
a(I180
F64763.726132812495
I2
I1
I0
tp424
a(I181
F64763.726132812495
I4
I1
I0
tp425
a(I182
F65665.167539062488
I3
I1
I0
tp426
a(I183
F65665.167539062488
I4
I1
I0
tp427
a(I184
F66566.608945312488
I1
I0
I0
tp428
a(I185
F67017.329648437488
I4
I0
I0
tp429
a(I186
F67468.050351562488
I1
I1
I0
tp430
a(I187
F68369.491757812488
I3
I0
I0
tp431
a(I188
F68820.212460937488
I2
I0
I0
tp432
a(I189
F69270.933164062488
I3
I1
I0
tp433
a(I190
F70171.398984374988
I1
I0
I0
tp434
a(I191
F70622.119687499988
I4
I0
I0
tp435
a(I192
F71072.840390624988
I1
I1
I0
tp436
a(I193
F72199.642148437488
I1
I0
I0
tp437
a(I194
F72199.642148437488
I1
I0
I0
tp438
a(I195
F72425.002499999988
I2
I1
I0
tp439
a(I196
F72425.002499999988
I2
I1
I0
tp440
a(I197
F72763.530820312488
I3
I1
I0
tp441
aa.